	.file	"logger.cpp"
	.text
.Ltext0:
	.section	.rodata.str1.1,"aMS",@progbits,1
.LC0:
	.string	"a+"
	.section	.text.unlikely._ZN6LoggerC2EPcb,"ax",@progbits
	.align 2
.LCOLDB1:
	.section	.text._ZN6LoggerC2EPcb,"ax",@progbits
.LHOTB1:
	.align 2
	.p2align 4,,15
	.section	.text.unlikely._ZN6LoggerC2EPcb
.Ltext_cold0:
	.section	.text._ZN6LoggerC2EPcb
	.globl	_ZN6LoggerC2EPcb
	.type	_ZN6LoggerC2EPcb, @function
_ZN6LoggerC2EPcb:
.LFB30:
	.file 1 "jni/scrcap/../util/logger.cpp"
	.loc 1 11 0
	.cfi_startproc
.LVL0:
	pushl	%ebp
	.cfi_def_cfa_offset 8
	.cfi_offset 5, -8
	pushl	%edi
	.cfi_def_cfa_offset 12
	.cfi_offset 7, -12
	pushl	%esi
	.cfi_def_cfa_offset 16
	.cfi_offset 6, -16
	pushl	%ebx
	.cfi_def_cfa_offset 20
	.cfi_offset 3, -20
	call	__x86.get_pc_thunk.bx
	addl	$_GLOBAL_OFFSET_TABLE_, %ebx
	leal	-28(%esp), %esp
	.cfi_def_cfa_offset 48
	.loc 1 11 0
	movl	48(%esp), %esi
	movl	52(%esp), %edi
	movl	56(%esp), %ebp
.LBB17:
	.loc 1 13 0
	movl	%esi, (%esp)
	call	MutexCreate@PLT
.LVL1:
	.loc 1 14 0
	testl	%edi, %edi
	je	.L9
	.loc 1 17 0
	movl	%ebp, %eax
	movb	%al, 8(%esi)
	.loc 1 18 0
	leal	.LC0@GOTOFF(%ebx), %eax
	movl	%eax, 4(%esp)
	movl	%edi, (%esp)
	call	fopen@PLT
.LVL2:
	movl	%eax, 4(%esi)
	testl	%eax, %eax
	je	.L1
	.loc 1 19 0
	movl	$511, 4(%esp)
	movl	%edi, (%esp)
	call	chmod@PLT
.LVL3:
.L1:
.LBE17:
	.loc 1 22 0
	leal	28(%esp), %esp
	.cfi_remember_state
	.cfi_def_cfa_offset 20
	popl	%ebx
	.cfi_restore 3
	.cfi_def_cfa_offset 16
	popl	%esi
	.cfi_restore 6
	.cfi_def_cfa_offset 12
	popl	%edi
	.cfi_restore 7
	.cfi_def_cfa_offset 8
	popl	%ebp
	.cfi_restore 5
	.cfi_def_cfa_offset 4
	ret
	.p2align 4,,7
	.p2align 3
.L9:
	.cfi_restore_state
.LBB18:
	.loc 1 15 0
	movl	__sF@GOT(%ebx), %eax
	leal	84(%eax), %eax
	movl	%eax, 4(%esi)
.LBE18:
	.loc 1 22 0
	leal	28(%esp), %esp
	.cfi_def_cfa_offset 20
	popl	%ebx
	.cfi_restore 3
	.cfi_def_cfa_offset 16
	popl	%esi
	.cfi_restore 6
	.cfi_def_cfa_offset 12
	popl	%edi
	.cfi_restore 7
	.cfi_def_cfa_offset 8
	popl	%ebp
	.cfi_restore 5
	.cfi_def_cfa_offset 4
	ret
	.cfi_endproc
.LFE30:
	.size	_ZN6LoggerC2EPcb, .-_ZN6LoggerC2EPcb
	.section	.text.unlikely._ZN6LoggerC2EPcb
.LCOLDE1:
	.section	.text._ZN6LoggerC2EPcb
.LHOTE1:
	.globl	_ZN6LoggerC1EPcb
	.set	_ZN6LoggerC1EPcb,_ZN6LoggerC2EPcb
	.section	.text.unlikely._ZN6LoggerC2Ev,"ax",@progbits
	.align 2
.LCOLDB2:
	.section	.text._ZN6LoggerC2Ev,"ax",@progbits
.LHOTB2:
	.align 2
	.p2align 4,,15
	.globl	_ZN6LoggerC2Ev
	.type	_ZN6LoggerC2Ev, @function
_ZN6LoggerC2Ev:
.LFB33:
	.loc 1 24 0
	.cfi_startproc
.LVL4:
	pushl	%esi
	.cfi_def_cfa_offset 8
	.cfi_offset 6, -8
	pushl	%ebx
	.cfi_def_cfa_offset 12
	.cfi_offset 3, -12
	call	__x86.get_pc_thunk.bx
	addl	$_GLOBAL_OFFSET_TABLE_, %ebx
	leal	-20(%esp), %esp
	.cfi_def_cfa_offset 32
	.loc 1 24 0
	movl	32(%esp), %esi
.LBB19:
	.loc 1 26 0
	movl	%esi, (%esp)
	call	MutexCreate@PLT
.LVL5:
	.loc 1 27 0
	movl	__sF@GOT(%ebx), %eax
	.loc 1 28 0
	movb	$1, 8(%esi)
	.loc 1 27 0
	leal	84(%eax), %eax
	movl	%eax, 4(%esi)
.LBE19:
	.loc 1 30 0
	leal	20(%esp), %esp
	.cfi_def_cfa_offset 12
	popl	%ebx
	.cfi_restore 3
	.cfi_def_cfa_offset 8
	popl	%esi
	.cfi_restore 6
	.cfi_def_cfa_offset 4
	ret
	.cfi_endproc
.LFE33:
	.size	_ZN6LoggerC2Ev, .-_ZN6LoggerC2Ev
	.section	.text.unlikely._ZN6LoggerC2Ev
.LCOLDE2:
	.section	.text._ZN6LoggerC2Ev
.LHOTE2:
	.globl	_ZN6LoggerC1Ev
	.set	_ZN6LoggerC1Ev,_ZN6LoggerC2Ev
	.section	.text.unlikely._ZN6LoggerD2Ev,"ax",@progbits
	.align 2
.LCOLDB3:
	.section	.text._ZN6LoggerD2Ev,"ax",@progbits
.LHOTB3:
	.align 2
	.p2align 4,,15
	.globl	_ZN6LoggerD2Ev
	.type	_ZN6LoggerD2Ev, @function
_ZN6LoggerD2Ev:
.LFB36:
	.loc 1 32 0
	.cfi_startproc
.LVL6:
	pushl	%ebx
	.cfi_def_cfa_offset 8
	.cfi_offset 3, -8
	call	__x86.get_pc_thunk.bx
	addl	$_GLOBAL_OFFSET_TABLE_, %ebx
	leal	-24(%esp), %esp
	.cfi_def_cfa_offset 32
.LBB20:
	.loc 1 34 0
	movl	32(%esp), %eax
	movl	4(%eax), %eax
	.loc 1 35 0
	testl	%eax, %eax
	je	.L12
	movl	__sF@GOT(%ebx), %edx
	leal	84(%edx), %edx
	cmpl	%edx, %eax
	je	.L12
	.loc 1 36 0
	movl	%eax, (%esp)
	call	fclose@PLT
.LVL7:
.L12:
.LBE20:
	.loc 1 39 0
	leal	24(%esp), %esp
	.cfi_def_cfa_offset 8
	popl	%ebx
	.cfi_restore 3
	.cfi_def_cfa_offset 4
	ret
	.cfi_endproc
.LFE36:
	.size	_ZN6LoggerD2Ev, .-_ZN6LoggerD2Ev
	.section	.text.unlikely._ZN6LoggerD2Ev
.LCOLDE3:
	.section	.text._ZN6LoggerD2Ev
.LHOTE3:
	.globl	_ZN6LoggerD1Ev
	.set	_ZN6LoggerD1Ev,_ZN6LoggerD2Ev
	.section	.rodata.str1.1
.LC4:
	.string	"%02X "
	.section	.text.unlikely._ZN6Logger5toHexEPhi,"ax",@progbits
	.align 2
.LCOLDB5:
	.section	.text._ZN6Logger5toHexEPhi,"ax",@progbits
.LHOTB5:
	.align 2
	.p2align 4,,15
	.globl	_ZN6Logger5toHexEPhi
	.type	_ZN6Logger5toHexEPhi, @function
_ZN6Logger5toHexEPhi:
.LFB38:
	.loc 1 42 0
	.cfi_startproc
.LVL8:
	pushl	%ebp
	.cfi_def_cfa_offset 8
	.cfi_offset 5, -8
	pushl	%edi
	.cfi_def_cfa_offset 12
	.cfi_offset 7, -12
	pushl	%esi
	.cfi_def_cfa_offset 16
	.cfi_offset 6, -16
	pushl	%ebx
	.cfi_def_cfa_offset 20
	.cfi_offset 3, -20
	call	__x86.get_pc_thunk.bx
	addl	$_GLOBAL_OFFSET_TABLE_, %ebx
	leal	-92(%esp), %esp
	.cfi_def_cfa_offset 112
	leal	_ZZN6Logger5toHexEPhiE3tmp@GOTOFF(%ebx), %edi
	.loc 1 42 0
	movl	112(%esp), %eax
	movl	116(%esp), %ecx
	movl	%gs:20, %edx
	movl	%edx, 76(%esp)
	xorl	%edx, %edx
.LBB21:
	.loc 1 46 0
	movl	%eax, (%esp)
.LBE21:
	.loc 1 42 0
	movl	%eax, 28(%esp)
.LBB23:
	.loc 1 45 0
	movb	$0, _ZZN6Logger5toHexEPhiE3tmp@GOTOFF(%ebx)
.LBE23:
	.loc 1 42 0
	movl	%ecx, 20(%esp)
.LBB24:
	.loc 1 46 0
	call	MutexLock@PLT
.LVL9:
.LBB22:
	.loc 1 47 0 discriminator 1
	movl	120(%esp), %eax
	testl	%eax, %eax
	jle	.L23
	leal	.LC4@GOTOFF(%ebx), %eax
	xorl	%ebp, %ebp
	leal	44(%esp), %esi
	leal	_ZZN6Logger5toHexEPhiE3tmp@GOTOFF(%ebx), %edi
	movl	%eax, 24(%esp)
	jmp	.L22
.LVL10:
	.p2align 4,,7
	.p2align 3
.L41:
	cmpl	%ebp, 120(%esp)
	jle	.L26
.LVL11:
.L22:
	.loc 1 48 0
	movl	20(%esp), %eax
	movzbl	(%eax,%ebp), %eax
	.loc 1 47 0 discriminator 3
	addl	$1, %ebp
.LVL12:
	.loc 1 48 0
	movl	%esi, (%esp)
	movl	%eax, 8(%esp)
	movl	24(%esp), %eax
	movl	%eax, 4(%esp)
	call	sprintf@PLT
.LVL13:
	.loc 1 49 0
	movl	%esi, 4(%esp)
	movl	%edi, (%esp)
	call	strcat@PLT
.LVL14:
	.loc 1 47 0 discriminator 1
	cmpl	$15, %ebp
	jle	.L41
.L26:
.LBE22:
	.loc 1 51 0
	cmpl	$16, 120(%esp)
	jg	.L42
.LVL15:
.L23:
	.loc 1 54 0
	movl	28(%esp), %eax
	movl	%eax, (%esp)
	call	MutexUnlock@PLT
.LVL16:
.LBE24:
	.loc 1 56 0
	movl	76(%esp), %edx
	xorl	%gs:20, %edx
	movl	%edi, %eax
	jne	.L43
	leal	92(%esp), %esp
	.cfi_remember_state
	.cfi_def_cfa_offset 20
	popl	%ebx
	.cfi_restore 3
	.cfi_def_cfa_offset 16
	popl	%esi
	.cfi_restore 6
	.cfi_def_cfa_offset 12
	popl	%edi
	.cfi_restore 7
	.cfi_def_cfa_offset 8
	popl	%ebp
	.cfi_restore 5
	.cfi_def_cfa_offset 4
	ret
.LVL17:
	.p2align 4,,7
	.p2align 3
.L42:
	.cfi_restore_state
.LBB25:
	.loc 1 52 0
	movl	%edi, %edx
.L27:
	movl	(%edx), %ecx
	addl	$4, %edx
	leal	-16843009(%ecx), %eax
	notl	%ecx
	andl	%ecx, %eax
	andl	$-2139062144, %eax
	je	.L27
	movl	%eax, %ecx
	shrl	$16, %ecx
	testl	$32896, %eax
	cmove	%ecx, %eax
	leal	2(%edx), %ecx
	cmove	%ecx, %edx
	addb	%al, %al
	sbbl	$3, %edx
	.loc 1 52 0 is_stmt 0 discriminator 1
	movl	$3026478, (%edx)
	jmp	.L23
.LVL18:
.L43:
.LBE25:
	.loc 1 56 0 is_stmt 1
	call	__stack_chk_fail_local
.LVL19:
	.cfi_endproc
.LFE38:
	.size	_ZN6Logger5toHexEPhi, .-_ZN6Logger5toHexEPhi
	.section	.text.unlikely._ZN6Logger5toHexEPhi
.LCOLDE5:
	.section	.text._ZN6Logger5toHexEPhi
.LHOTE5:
	.section	.rodata.str1.1
.LC6:
	.string	"[%5d] %s\n"
.LC7:
	.string	"%s [%5d] %s\n"
	.section	.text.unlikely._ZN6Logger6logStrEPc,"ax",@progbits
	.align 2
.LCOLDB8:
	.section	.text._ZN6Logger6logStrEPc,"ax",@progbits
.LHOTB8:
	.align 2
	.p2align 4,,15
	.globl	_ZN6Logger6logStrEPc
	.type	_ZN6Logger6logStrEPc, @function
_ZN6Logger6logStrEPc:
.LFB40:
	.loc 1 68 0
	.cfi_startproc
.LVL20:
	pushl	%ebp
	.cfi_def_cfa_offset 8
	.cfi_offset 5, -8
	pushl	%edi
	.cfi_def_cfa_offset 12
	.cfi_offset 7, -12
	pushl	%esi
	.cfi_def_cfa_offset 16
	.cfi_offset 6, -16
	pushl	%ebx
	.cfi_def_cfa_offset 20
	.cfi_offset 3, -20
	call	__x86.get_pc_thunk.bx
	addl	$_GLOBAL_OFFSET_TABLE_, %ebx
	leal	-60(%esp), %esp
	.cfi_def_cfa_offset 80
	.loc 1 68 0
	movl	80(%esp), %esi
	movl	%gs:20, %eax
	movl	%eax, 44(%esp)
	xorl	%eax, %eax
.LBB26:
	.loc 1 70 0
	movl	4(%esi), %eax
.LBE26:
	.loc 1 68 0
	movl	84(%esp), %ebp
.LBB29:
	.loc 1 70 0
	testl	%eax, %eax
	je	.L44
.LBB27:
	.loc 1 71 0
	movl	%esi, (%esp)
	.loc 1 73 0
	leal	40(%esp), %edi
	.loc 1 71 0
	call	MutexLock@PLT
.LVL21:
	.loc 1 73 0
	movl	%edi, (%esp)
	call	time@PLT
.LVL22:
	.loc 1 74 0
	movl	%edi, (%esp)
	call	ctime@PLT
.LVL23:
	.loc 1 75 0
	movl	%eax, (%esp)
	.loc 1 74 0
	movl	%eax, %edi
.LVL24:
	.loc 1 75 0
	call	strlen@PLT
.LVL25:
	movb	$0, -1(%edi,%eax)
	.loc 1 76 0
	cmpb	$0, 8(%esi)
	jne	.L50
	.loc 1 79 0
	call	gettid@PLT
.LVL26:
	.loc 1 79 0 is_stmt 0 discriminator 1
	movl	%eax, 12(%esp)
	leal	.LC7@GOTOFF(%ebx), %eax
	movl	%ebp, 16(%esp)
	movl	%edi, 8(%esp)
	movl	%eax, 4(%esp)
	movl	4(%esi), %eax
	movl	%eax, (%esp)
	call	fprintf@PLT
.LVL27:
.L47:
	.loc 1 81 0 is_stmt 1
	movl	4(%esi), %eax
	movl	%eax, (%esp)
	call	fflush@PLT
.LVL28:
	.loc 1 82 0
	movl	%esi, (%esp)
	call	MutexUnlock@PLT
.LVL29:
.L44:
.LBE27:
.LBE29:
	.loc 1 84 0
	movl	44(%esp), %eax
	xorl	%gs:20, %eax
	jne	.L51
	leal	60(%esp), %esp
	.cfi_remember_state
	.cfi_def_cfa_offset 20
	popl	%ebx
	.cfi_restore 3
	.cfi_def_cfa_offset 16
	popl	%esi
	.cfi_restore 6
	.cfi_def_cfa_offset 12
	popl	%edi
	.cfi_restore 7
	.cfi_def_cfa_offset 8
	popl	%ebp
	.cfi_restore 5
	.cfi_def_cfa_offset 4
	ret
.LVL30:
	.p2align 4,,7
	.p2align 3
.L50:
	.cfi_restore_state
.LBB30:
.LBB28:
	.loc 1 77 0
	call	gettid@PLT
.LVL31:
	.loc 1 77 0 is_stmt 0 discriminator 1
	movl	%eax, 8(%esp)
	leal	.LC6@GOTOFF(%ebx), %eax
	movl	%ebp, 12(%esp)
	movl	%eax, 4(%esp)
	movl	4(%esi), %eax
	movl	%eax, (%esp)
	call	fprintf@PLT
.LVL32:
	jmp	.L47
.LVL33:
.L51:
.LBE28:
.LBE30:
	.loc 1 84 0 is_stmt 1
	call	__stack_chk_fail_local
.LVL34:
	.cfi_endproc
.LFE40:
	.size	_ZN6Logger6logStrEPc, .-_ZN6Logger6logStrEPc
	.section	.text.unlikely._ZN6Logger6logStrEPc
.LCOLDE8:
	.section	.text._ZN6Logger6logStrEPc
.LHOTE8:
	.section	.text.unlikely._ZN6Logger6printfEPcz,"ax",@progbits
	.align 2
.LCOLDB9:
	.section	.text._ZN6Logger6printfEPcz,"ax",@progbits
.LHOTB9:
	.align 2
	.p2align 4,,15
	.globl	_ZN6Logger6printfEPcz
	.type	_ZN6Logger6printfEPcz, @function
_ZN6Logger6printfEPcz:
.LFB39:
	.loc 1 59 0
	.cfi_startproc
.LVL35:
	pushl	%edi
	.cfi_def_cfa_offset 8
	.cfi_offset 7, -8
	pushl	%esi
	.cfi_def_cfa_offset 12
	.cfi_offset 6, -12
	pushl	%ebx
	.cfi_def_cfa_offset 16
	.cfi_offset 3, -16
	call	__x86.get_pc_thunk.bx
	addl	$_GLOBAL_OFFSET_TABLE_, %ebx
	leal	-2080(%esp), %esp
	.cfi_def_cfa_offset 2096
	.loc 1 59 0
	movl	%gs:20, %eax
	movl	%eax, 2076(%esp)
	xorl	%eax, %eax
.LBB31:
	.loc 1 62 0
	leal	2104(%esp), %eax
.LVL36:
	.loc 1 63 0
	leal	28(%esp), %esi
	movl	%eax, 8(%esp)
	movl	2100(%esp), %eax
.LVL37:
.LBE31:
	.loc 1 59 0
	movl	2096(%esp), %edi
.LBB32:
	.loc 1 63 0
	movl	%esi, (%esp)
	movl	%eax, 4(%esp)
	call	vsprintf@PLT
.LVL38:
	.loc 1 65 0
	movl	%esi, 4(%esp)
	movl	%edi, (%esp)
	call	_ZN6Logger6logStrEPc@PLT
.LVL39:
.LBE32:
	.loc 1 66 0
	movl	2076(%esp), %eax
	xorl	%gs:20, %eax
	jne	.L55
	leal	2080(%esp), %esp
	.cfi_remember_state
	.cfi_def_cfa_offset 16
	popl	%ebx
	.cfi_restore 3
	.cfi_def_cfa_offset 12
	popl	%esi
	.cfi_restore 6
	.cfi_def_cfa_offset 8
	popl	%edi
	.cfi_restore 7
	.cfi_def_cfa_offset 4
	ret
.L55:
	.cfi_restore_state
	call	__stack_chk_fail_local
.LVL40:
	.cfi_endproc
.LFE39:
	.size	_ZN6Logger6printfEPcz, .-_ZN6Logger6printfEPcz
	.section	.text.unlikely._ZN6Logger6printfEPcz
.LCOLDE9:
	.section	.text._ZN6Logger6printfEPcz
.LHOTE9:
	.section	.rodata.str1.1
.LC10:
	.string	"   "
	.section	.text.unlikely._ZN6Logger6logHexEPhi,"ax",@progbits
	.align 2
.LCOLDB11:
	.section	.text._ZN6Logger6logHexEPhi,"ax",@progbits
.LHOTB11:
	.align 2
	.p2align 4,,15
	.globl	_ZN6Logger6logHexEPhi
	.type	_ZN6Logger6logHexEPhi, @function
_ZN6Logger6logHexEPhi:
.LFB41:
	.loc 1 90 0
	.cfi_startproc
.LVL41:
	pushl	%ebp
	.cfi_def_cfa_offset 8
	.cfi_offset 5, -8
	pushl	%edi
	.cfi_def_cfa_offset 12
	.cfi_offset 7, -12
	pushl	%esi
	.cfi_def_cfa_offset 16
	.cfi_offset 6, -16
	pushl	%ebx
	.cfi_def_cfa_offset 20
	.cfi_offset 3, -20
	call	__x86.get_pc_thunk.bx
	addl	$_GLOBAL_OFFSET_TABLE_, %ebx
	leal	-44(%esp), %esp
	.cfi_def_cfa_offset 64
	.loc 1 90 0
	movl	64(%esp), %edi
.LBB33:
.LBB34:
	.loc 1 92 0
	movl	4(%edi), %ecx
	testl	%ecx, %ecx
	je	.L56
.LBB35:
	.loc 1 93 0
	movl	%edi, (%esp)
	call	MutexLock@PLT
.LVL42:
.LBB36:
	.loc 1 94 0 discriminator 1
	movl	72(%esp), %edx
	testl	%edx, %edx
	jle	.L76
.LBB37:
	.loc 1 95 0
	movl	68(%esp), %eax
	movzbl	(%eax), %eax
	movl	%eax, 8(%esp)
	leal	.LC4@GOTOFF(%ebx), %eax
	movl	%eax, 4(%esp)
	movl	%eax, 28(%esp)
	movl	4(%edi), %eax
	movl	%eax, (%esp)
	call	fprintf@PLT
.LVL43:
	movl	68(%esp), %eax
.LBB38:
	.loc 1 96 0
	movl	$1, 24(%esp)
	movl	_ctype_@GOT(%ebx), %ebp
.LVL44:
	addl	$2, %eax
	movl	%eax, 20(%esp)
.LBE38:
.LBE37:
	.loc 1 94 0 discriminator 1
	movl	24(%esp), %eax
	cmpl	72(%esp), %eax
	je	.L77
.LVL45:
	.p2align 5,,30
	.p2align 3
.L64:
.LBB46:
	.loc 1 95 0
	movl	20(%esp), %esi
	movzbl	-1(%esi), %eax
	movl	%eax, 8(%esp)
	movl	28(%esp), %eax
	movl	%eax, 4(%esp)
	movl	4(%edi), %eax
	movl	%eax, (%esp)
	call	fprintf@PLT
.LVL46:
.LBB45:
	.loc 1 96 0
	addl	$1, 24(%esp)
.LVL47:
	movl	24(%esp), %eax
	testb	$15, %al
	jne	.L60
	leal	-16(%esi), %esi
	jmp	.L63
.LVL48:
	.p2align 4,,7
	.p2align 3
.L79:
.LBB39:
.LBB40:
.LBB41:
	.loc 1 100 0
	movl	4(%edi), %ecx
	addl	$1, %esi
.LVL49:
	.loc 1 99 0
	movl	%eax, (%esp)
.LVL50:
	.loc 1 100 0
	movl	%ecx, 4(%esp)
	call	fputc@PLT
.LVL51:
.LBE41:
	.loc 1 97 0 discriminator 1
	cmpl	20(%esp), %esi
	je	.L78
.L63:
.LVL52:
.LBB44:
.LBB42:
.LBB43:
	.file 2 "d:\\android-ndk-r12b\\platforms\\android-9\\arch-x86\\usr\\include\\ctype.h"
	.loc 2 104 0 discriminator 1
	movzbl	(%esi), %eax
.LVL53:
	movl	0(%ebp), %ecx
.LBE43:
.LBE42:
	.loc 1 99 0
	testb	$7, 1(%ecx,%eax)
	jne	.L79
	.loc 1 102 0
	movl	4(%edi), %eax
.LVL54:
	addl	$1, %esi
.LVL55:
	movl	$46, (%esp)
.LVL56:
	movl	%eax, 4(%esp)
	call	fputc@PLT
.LVL57:
.LBE44:
	.loc 1 97 0 discriminator 1
	cmpl	20(%esp), %esi
	jne	.L63
.L78:
.LBE40:
	.loc 1 105 0
	movl	4(%edi), %eax
	movl	$10, (%esp)
	movl	%eax, 4(%esp)
	call	fputc@PLT
.LVL58:
.L60:
.LBE39:
.LBE45:
.LBE46:
	.loc 1 94 0 discriminator 1
	movl	24(%esp), %eax
	addl	$1, 20(%esp)
	cmpl	72(%esp), %eax
	jne	.L64
.LVL59:
.L77:
.LBE36:
	.loc 1 108 0
	movl	72(%esp), %esi
	movl	72(%esp), %ebp
	sarl	$31, %esi
	shrl	$28, %esi
	addl	%esi, %ebp
	andl	$15, %ebp
	subl	%esi, %ebp
	.loc 1 110 0 discriminator 1
	movl	$16, %esi
	.loc 1 108 0
	movl	%ebp, 24(%esp)
.LVL60:
	.loc 1 110 0 discriminator 1
	subl	%ebp, %esi
	movl	%esi, 20(%esp)
.LVL61:
.L59:
	leal	.LC10@GOTOFF(%ebx), %ebp
	xorl	%esi, %esi
	movl	%ebp, %eax
	movl	%edi, %ebp
	movl	%eax, %edi
.LVL62:
	.p2align 5,,30
	.p2align 3
.L65:
	.loc 1 111 0
	movl	4(%ebp), %eax
	.loc 1 110 0 discriminator 3
	addl	$1, %esi
.LVL63:
	.loc 1 111 0
	movl	$3, 8(%esp)
	movl	$1, 4(%esp)
	movl	%eax, 12(%esp)
	movl	%edi, (%esp)
	call	fwrite@PLT
.LVL64:
	.loc 1 110 0 discriminator 1
	cmpl	20(%esp), %esi
	jne	.L65
.LBB47:
	.loc 1 114 0 discriminator 1
	movl	24(%esp), %eax
	movl	%ebp, %edi
.LVL65:
	testl	%eax, %eax
	jle	.L70
	movl	72(%esp), %ebp
	movl	68(%esp), %eax
.LVL66:
	movl	_ctype_@GOT(%ebx), %esi
	subl	24(%esp), %ebp
	addl	72(%esp), %eax
	addl	68(%esp), %ebp
	movl	%eax, 20(%esp)
	jmp	.L69
.LVL67:
	.p2align 4,,7
	.p2align 3
.L80:
.LBB48:
	.loc 1 117 0
	movl	4(%edi), %ecx
	addl	$1, %ebp
.LVL68:
	.loc 1 116 0
	movl	%eax, (%esp)
.LVL69:
	.loc 1 117 0
	movl	%ecx, 4(%esp)
	call	fputc@PLT
.LVL70:
.LBE48:
	.loc 1 114 0 discriminator 1
	cmpl	20(%esp), %ebp
	je	.L70
.L69:
.LVL71:
.LBB51:
.LBB49:
.LBB50:
	.loc 2 104 0 discriminator 1
	movzbl	0(%ebp), %eax
.LVL72:
.LBE50:
.LBE49:
	.loc 1 116 0
	movl	(%esi), %ecx
	testb	$7, 1(%ecx,%eax)
	jne	.L80
	.loc 1 119 0
	movl	4(%edi), %eax
.LVL73:
	addl	$1, %ebp
.LVL74:
	movl	$46, (%esp)
.LVL75:
	movl	%eax, 4(%esp)
	call	fputc@PLT
.LVL76:
.LBE51:
	.loc 1 114 0 discriminator 1
	cmpl	20(%esp), %ebp
	jne	.L69
.L70:
.LBE47:
	.loc 1 122 0
	movl	4(%edi), %eax
	movl	$10, (%esp)
	movl	%eax, 4(%esp)
	call	fputc@PLT
.LVL77:
	.loc 1 123 0
	movl	4(%edi), %eax
	movl	%eax, (%esp)
	call	fflush@PLT
.LVL78:
	.loc 1 124 0
	movl	%edi, (%esp)
	call	MutexUnlock@PLT
.LVL79:
.L56:
.LBE35:
.LBE34:
.LBE33:
	.loc 1 126 0
	leal	44(%esp), %esp
	.cfi_remember_state
	.cfi_def_cfa_offset 20
	popl	%ebx
	.cfi_restore 3
	.cfi_def_cfa_offset 16
	popl	%esi
	.cfi_restore 6
	.cfi_def_cfa_offset 12
	popl	%edi
	.cfi_restore 7
	.cfi_def_cfa_offset 8
	popl	%ebp
	.cfi_restore 5
	.cfi_def_cfa_offset 4
	ret
.LVL80:
.L76:
	.cfi_restore_state
.LBB55:
.LBB54:
.LBB53:
.LBB52:
	.loc 1 94 0
	movl	$0, 72(%esp)
.LBE52:
	.loc 1 108 0
	movl	$0, 24(%esp)
	.loc 1 110 0 discriminator 1
	movl	$16, 20(%esp)
	jmp	.L59
.LBE53:
.LBE54:
.LBE55:
	.cfi_endproc
.LFE41:
	.size	_ZN6Logger6logHexEPhi, .-_ZN6Logger6logHexEPhi
	.section	.text.unlikely._ZN6Logger6logHexEPhi
.LCOLDE11:
	.section	.text._ZN6Logger6logHexEPhi
.LHOTE11:
	.local	_ZZN6Logger5toHexEPhiE3tmp
	.comm	_ZZN6Logger5toHexEPhiE3tmp,1024000,64
	.section	.text.__x86.get_pc_thunk.bx,"axG",@progbits,__x86.get_pc_thunk.bx,comdat
	.globl	__x86.get_pc_thunk.bx
	.hidden	__x86.get_pc_thunk.bx
	.type	__x86.get_pc_thunk.bx, @function
__x86.get_pc_thunk.bx:
.LFB42:
	.cfi_startproc
	movl	(%esp), %ebx
	ret
	.cfi_endproc
.LFE42:
	.text
.Letext0:
	.section	.text.unlikely._ZN6LoggerC2EPcb
.Letext_cold0:
	.file 3 "D:/android-ndk-r12b/build//../sources/cxx-stl/stlport/stlport/stl/config/features.h"
	.file 4 "d:\\android-ndk-r12b\\toolchains\\x86-4.9\\prebuilt\\windows-x86_64\\lib\\gcc\\i686-linux-android\\4.9.x\\include\\stddef.h"
	.file 5 "d:\\android-ndk-r12b\\platforms\\android-9\\arch-x86\\usr\\include\\machine\\_types.h"
	.file 6 "d:\\android-ndk-r12b\\platforms\\android-9\\arch-x86\\usr\\include\\asm\\posix_types_32.h"
	.file 7 "d:\\android-ndk-r12b\\platforms\\android-9\\arch-x86\\usr\\include\\sys\\types.h"
	.file 8 "d:\\android-ndk-r12b\\toolchains\\x86-4.9\\prebuilt\\windows-x86_64\\lib\\gcc\\i686-linux-android\\4.9.x\\include\\stdarg.h"
	.file 9 "d:\\android-ndk-r12b\\platforms\\android-9\\arch-x86\\usr\\include\\stdio.h"
	.file 10 "d:\\android-ndk-r12b\\platforms\\android-9\\arch-x86\\usr\\include\\pthread.h"
	.file 11 "jni/scrcap/../util/Mutex.hpp"
	.file 12 "jni/scrcap/../util/logger.h"
	.file 13 "d:\\android-ndk-r12b\\platforms\\android-9\\arch-x86\\usr\\include\\sys\\stat.h"
	.file 14 "d:\\android-ndk-r12b\\platforms\\android-9\\arch-x86\\usr\\include\\string.h"
	.file 15 "d:\\android-ndk-r12b\\platforms\\android-9\\arch-x86\\usr\\include\\time.h"
	.file 16 "<built-in>"
	.file 17 "d:\\android-ndk-r12b\\platforms\\android-9\\arch-x86\\usr\\include\\unistd.h"
	.section	.note.GNU-stack,"",@progbits
