	.file	"main.cpp"
	.text
.Ltext0:
	.section	.rodata.str1.1,"aMS",@progbits,1
.LC0:
	.string	"Hello"
	.section	.text.unlikely.main,"ax",@progbits
.LCOLDB1:
	.section	.text.startup.main,"ax",@progbits
.LHOTB1:
	.p2align 4,,15
	.section	.text.unlikely.main
.Ltext_cold0:
	.section	.text.startup.main
	.globl	main
	.type	main, @function
main:
.LFB1595:
	.file 1 "jni/scrcap/main.cpp"
	.loc 1 44 0
	.cfi_startproc
.LVL0:
	pushl	%ebp
	.cfi_def_cfa_offset 8
	.cfi_offset 5, -8
	movl	%esp, %ebp
	.cfi_def_cfa_register 5
	pushl	%ebx
	.cfi_offset 3, -12
	call	__x86.get_pc_thunk.bx
	addl	$_GLOBAL_OFFSET_TABLE_, %ebx
	andl	$-16, %esp
	.loc 1 45 0
	leal	.LC0@GOTOFF(%ebx), %eax
	.loc 1 44 0
	leal	-16(%esp), %esp
	.loc 1 45 0
	movl	%eax, (%esp)
	call	puts@PLT
.LVL1:
	.loc 1 47 0
	movl	-4(%ebp), %ebx
	xorl	%eax, %eax
	leave
	.cfi_restore 5
	.cfi_restore 3
	.cfi_def_cfa 4, 4
	ret
	.cfi_endproc
.LFE1595:
	.size	main, .-main
	.section	.text.unlikely.main
.LCOLDE1:
	.section	.text.startup.main
.LHOTE1:
	.section	.text.__x86.get_pc_thunk.bx,"axG",@progbits,__x86.get_pc_thunk.bx,comdat
	.globl	__x86.get_pc_thunk.bx
	.hidden	__x86.get_pc_thunk.bx
	.type	__x86.get_pc_thunk.bx, @function
__x86.get_pc_thunk.bx:
.LFB1773:
	.cfi_startproc
	movl	(%esp), %ebx
	ret
	.cfi_endproc
.LFE1773:
	.text
.Letext0:
	.section	.text.unlikely.main
.Letext_cold0:
	.file 2 "D:/android-ndk-r12b/build//../sources/cxx-stl/stlport/stlport/stl/_cstddef.h"
	.file 3 "D:/android-ndk-r12b/build//../sources/cxx-stl/stlport/stlport/stl/_cstdlib.h"
	.file 4 "D:/android-ndk-r12b/build//../sources/cxx-stl/stlport/stlport/stl/_cmath.h"
	.file 5 "D:/android-ndk-r12b/build//../sources/cxx-stl/stlport/stlport/using/cstring"
	.file 6 "D:/android-ndk-r12b/build//../sources/cxx-stl/stlport/stlport/stl/type_manips.h"
	.file 7 "D:/android-ndk-r12b/build//../sources/cxx-stl/stlport/stlport/stl/_limits.h"
	.file 8 "D:/android-ndk-r12b/build//../sources/cxx-stl/stlport/stlport/../../gabi++/include/cstddef"
	.file 9 "D:/android-ndk-r12b/build//../sources/cxx-stl/stlport/stlport/stl/_cstdio.h"
	.file 10 "D:/android-ndk-r12b/build//../sources/cxx-stl/stlport/stlport/stl/_cwchar.h"
	.file 11 "D:/android-ndk-r12b/build//../sources/cxx-stl/stlport/stlport/stl/_threads.h"
	.file 12 "D:/android-ndk-r12b/build//../sources/cxx-stl/stlport/stlport/stl/_ctime.h"
	.file 13 "D:/android-ndk-r12b/build//../sources/cxx-stl/stlport/stlport/stl/config/features.h"
	.file 14 "d:\\android-ndk-r12b\\toolchains\\x86-4.9\\prebuilt\\windows-x86_64\\lib\\gcc\\i686-linux-android\\4.9.x\\include\\stddef.h"
	.file 15 "d:\\android-ndk-r12b\\platforms\\android-9\\arch-x86\\usr\\include\\asm\\posix_types_32.h"
	.file 16 "d:\\android-ndk-r12b\\platforms\\android-9\\arch-x86\\usr\\include\\sys\\types.h"
	.file 17 "d:\\android-ndk-r12b\\toolchains\\x86-4.9\\prebuilt\\windows-x86_64\\lib\\gcc\\i686-linux-android\\4.9.x\\include\\stdarg.h"
	.file 18 "d:\\android-ndk-r12b\\platforms\\android-9\\arch-x86\\usr\\include\\stdio.h"
	.file 19 "d:\\android-ndk-r12b\\platforms\\android-9\\arch-x86\\usr\\include\\stdlib.h"
	.file 20 "d:\\android-ndk-r12b\\platforms\\android-9\\arch-x86\\usr\\include\\string.h"
	.file 21 "d:\\android-ndk-r12b\\platforms\\android-9\\arch-x86\\usr\\include\\time.h"
	.file 22 "d:\\android-ndk-r12b\\platforms\\android-9\\arch-x86\\usr\\include\\wchar.h"
	.file 23 "d:\\android-ndk-r12b\\platforms\\android-9\\arch-x86\\usr\\include\\pthread.h"
	.file 24 "d:\\android-ndk-r12b\\platforms\\android-9\\arch-x86\\usr\\include\\ctype.h"
	.file 25 "<built-in>"
	.file 26 "D:/android-ndk-r12b/build//../sources/cxx-stl/stlport/stlport/stl/_threads.c"
	.section	.note.GNU-stack,"",@progbits
