	.file	"payload.cpp"
	.text
.Ltext0:
	.section	.text.unlikely._Z29GetBranchToAddressCommandSizev,"ax",@progbits
.LCOLDB0:
	.section	.text._Z29GetBranchToAddressCommandSizev,"ax",@progbits
.LHOTB0:
	.p2align 4,,15
	.section	.text.unlikely._Z29GetBranchToAddressCommandSizev
.Ltext_cold0:
	.section	.text._Z29GetBranchToAddressCommandSizev
	.globl	_Z29GetBranchToAddressCommandSizev
	.type	_Z29GetBranchToAddressCommandSizev, @function
_Z29GetBranchToAddressCommandSizev:
.LFB1462:
	.file 1 "jni/tracer/../util/payload.cpp"
	.loc 1 42 0
	.cfi_startproc
	.loc 1 44 0
	movl	$12, %eax
	ret
	.cfi_endproc
.LFE1462:
	.size	_Z29GetBranchToAddressCommandSizev, .-_Z29GetBranchToAddressCommandSizev
	.section	.text.unlikely._Z29GetBranchToAddressCommandSizev
.LCOLDE0:
	.section	.text._Z29GetBranchToAddressCommandSizev
.LHOTE0:
	.section	.text.unlikely._Z28CreateBranchToAddressCommandj,"ax",@progbits
.LCOLDB1:
	.section	.text._Z28CreateBranchToAddressCommandj,"ax",@progbits
.LHOTB1:
	.p2align 4,,15
	.globl	_Z28CreateBranchToAddressCommandj
	.type	_Z28CreateBranchToAddressCommandj, @function
_Z28CreateBranchToAddressCommandj:
.LFB1461:
	.loc 1 34 0
	.cfi_startproc
.LVL0:
	pushl	%ebp
	.cfi_def_cfa_offset 8
	.cfi_offset 5, -8
	pushl	%edi
	.cfi_def_cfa_offset 12
	.cfi_offset 7, -12
	pushl	%esi
	.cfi_def_cfa_offset 16
	.cfi_offset 6, -16
	pushl	%ebx
	.cfi_def_cfa_offset 20
	.cfi_offset 3, -20
	call	__x86.get_pc_thunk.bx
	addl	$_GLOBAL_OFFSET_TABLE_, %ebx
	leal	-28(%esp), %esp
	.cfi_def_cfa_offset 48
.LBB188:
	.loc 1 35 0
	call	_Z29GetBranchToAddressCommandSizev@PLT
.LVL1:
	.loc 1 35 0 is_stmt 0 discriminator 1
	movl	%eax, (%esp)
	call	malloc@PLT
.LVL2:
	movl	%eax, %ebp
.LVL3:
	.loc 1 36 0 is_stmt 1
	call	_Z29GetBranchToAddressCommandSizev@PLT
.LVL4:
	.loc 1 36 0 is_stmt 0 discriminator 1
	cmpl	$4, %eax
	movl	%ebp, %edi
	movl	_branchToAddressCmd@GOT(%ebx), %esi
	jb	.L3
	movl	%eax, %ecx
	shrl	$2, %ecx
	rep movsl
.L3:
	xorl	%edx, %edx
	testb	$2, %al
	je	.L4
	movzwl	(%esi), %edx
	movw	%dx, (%edi)
	movl	$2, %edx
.L4:
	testb	$1, %al
	je	.L5
	movzbl	(%esi,%edx), %eax
	movb	%al, (%edi,%edx)
.L5:
	.loc 1 37 0 is_stmt 1
	movl	48(%esp), %eax
	movl	%eax, 8(%ebp)
.LBE188:
	.loc 1 39 0
	leal	28(%esp), %esp
	.cfi_def_cfa_offset 20
	popl	%ebx
	.cfi_restore 3
	.cfi_def_cfa_offset 16
	movl	%ebp, %eax
	popl	%esi
	.cfi_restore 6
	.cfi_def_cfa_offset 12
	popl	%edi
	.cfi_restore 7
	.cfi_def_cfa_offset 8
	popl	%ebp
	.cfi_restore 5
	.cfi_def_cfa_offset 4
.LVL5:
	ret
	.cfi_endproc
.LFE1461:
	.size	_Z28CreateBranchToAddressCommandj, .-_Z28CreateBranchToAddressCommandj
	.section	.text.unlikely._Z28CreateBranchToAddressCommandj
.LCOLDE1:
	.section	.text._Z28CreateBranchToAddressCommandj
.LHOTE1:
	.section	.text.unlikely._Z24AllocateExecutableMemoryj,"ax",@progbits
.LCOLDB2:
	.section	.text._Z24AllocateExecutableMemoryj,"ax",@progbits
.LHOTB2:
	.p2align 4,,15
	.globl	_Z24AllocateExecutableMemoryj
	.type	_Z24AllocateExecutableMemoryj, @function
_Z24AllocateExecutableMemoryj:
.LFB1463:
	.loc 1 47 0
	.cfi_startproc
.LVL6:
	pushl	%ebx
	.cfi_def_cfa_offset 8
	.cfi_offset 3, -8
	call	__x86.get_pc_thunk.bx
	addl	$_GLOBAL_OFFSET_TABLE_, %ebx
	leal	-40(%esp), %esp
	.cfi_def_cfa_offset 48
.LBB189:
	.loc 1 55 0
	movl	48(%esp), %eax
	movl	$0, 20(%esp)
	movl	$0, 16(%esp)
	movl	$34, 12(%esp)
	movl	$7, 8(%esp)
	movl	$0, (%esp)
	movl	%eax, 4(%esp)
	call	mmap@PLT
.LVL7:
.LBE189:
	.loc 1 59 0
	leal	40(%esp), %esp
	.cfi_def_cfa_offset 8
	popl	%ebx
	.cfi_restore 3
	.cfi_def_cfa_offset 4
	ret
	.cfi_endproc
.LFE1463:
	.size	_Z24AllocateExecutableMemoryj, .-_Z24AllocateExecutableMemoryj
	.section	.text.unlikely._Z24AllocateExecutableMemoryj
.LCOLDE2:
	.section	.text._Z24AllocateExecutableMemoryj
.LHOTE2:
	.section	.rodata.str1.1,"aMS",@progbits,1
.LC3:
	.string	"/proc/%d/maps"
.LC4:
	.string	"r"
.LC5:
	.string	"%s %s %s"
.LC6:
	.string	"/dev"
.LC7:
	.string	"liblog.so"
.LC8:
	.string	"freespaceaddr: found at"
.LC9:
	.string	"%s"
	.section	.text.unlikely._Z13FindFreeSpaceiPc,"ax",@progbits
.LCOLDB10:
	.section	.text._Z13FindFreeSpaceiPc,"ax",@progbits
.LHOTB10:
	.p2align 4,,15
	.globl	_Z13FindFreeSpaceiPc
	.type	_Z13FindFreeSpaceiPc, @function
_Z13FindFreeSpaceiPc:
.LFB1464:
	.loc 1 62 0
	.cfi_startproc
.LVL8:
	pushl	%ebp
	.cfi_def_cfa_offset 8
	.cfi_offset 5, -8
	pushl	%edi
	.cfi_def_cfa_offset 12
	.cfi_offset 7, -12
	pushl	%esi
	.cfi_def_cfa_offset 16
	.cfi_offset 6, -16
	pushl	%ebx
	.cfi_def_cfa_offset 20
	.cfi_offset 3, -20
	call	__x86.get_pc_thunk.bx
	addl	$_GLOBAL_OFFSET_TABLE_, %ebx
	leal	-1244(%esp), %esp
	.cfi_def_cfa_offset 1264
	.loc 1 62 0
	movl	1268(%esp), %eax
.LBB190:
	.loc 1 69 0
	leal	60(%esp), %esi
	movl	%esi, (%esp)
.LBE190:
	.loc 1 62 0
	movl	%eax, 44(%esp)
	movl	%gs:20, %eax
	movl	%eax, 1228(%esp)
	xorl	%eax, %eax
.LBB191:
	.loc 1 69 0
	movl	1264(%esp), %eax
	movl	%eax, 8(%esp)
	leal	.LC3@GOTOFF(%ebx), %eax
	movl	%eax, 4(%esp)
	call	sprintf@PLT
.LVL9:
	.loc 1 70 0
	movl	%esi, (%esp)
	leal	.LC4@GOTOFF(%ebx), %eax
	movl	%eax, 4(%esp)
	call	fopen@PLT
.LVL10:
	.loc 1 71 0
	testl	%eax, %eax
	.loc 1 70 0
	movl	%eax, %ebp
.LVL11:
	.loc 1 71 0
	je	.L31
	leal	122(%esp), %eax
.LVL12:
	leal	378(%esp), %esi
	movl	%eax, 36(%esp)
	.loc 1 75 0
	leal	.LC5@GOTOFF(%ebx), %eax
	movl	%eax, 40(%esp)
	.p2align 5,,30
	.p2align 3
.L27:
	.loc 1 73 0
	movl	%ebp, 8(%esp)
	movl	$850, 4(%esp)
	movl	%esi, (%esp)
	call	fgets@PLT
.LVL13:
	testl	%eax, %eax
	je	.L19
	.loc 1 75 0
	leal	250(%esp), %eax
	leal	90(%esp), %edi
	movl	%eax, 16(%esp)
	movl	36(%esp), %eax
	movl	%esi, (%esp)
	movl	%edi, 12(%esp)
	movl	%eax, 8(%esp)
	movl	40(%esp), %eax
	movl	%eax, 4(%esp)
	call	sscanf@PLT
.LVL14:
	.loc 1 76 0
	movl	%esi, (%esp)
	leal	.LC6@GOTOFF(%ebx), %eax
	movl	%eax, 4(%esp)
	call	strstr@PLT
.LVL15:
	testl	%eax, %eax
	jne	.L27
	.loc 1 81 0
	movl	%esi, (%esp)
	leal	.LC7@GOTOFF(%ebx), %eax
	movl	%eax, 4(%esp)
	call	strstr@PLT
.LVL16:
	testl	%eax, %eax
	je	.L27
	.loc 1 85 0
	movl	44(%esp), %eax
	testl	%eax, %eax
	je	.L18
	.loc 1 86 0
	movl	%eax, 4(%esp)
	movl	%edi, (%esp)
	call	strstr@PLT
.LVL17:
	testl	%eax, %eax
	je	.L27
.L18:
	.loc 1 92 0
	leal	.LC8@GOTOFF(%ebx), %eax
	movl	%eax, (%esp)
	call	puts@PLT
.LVL18:
	.loc 1 93 0
	movl	%esi, 4(%esp)
	leal	.LC9@GOTOFF(%ebx), %eax
	movl	%eax, (%esp)
	call	printf@PLT
.LVL19:
	.p2align 4,,15
.L19:
	.loc 1 97 0
	movl	%ebp, (%esp)
	call	fclose@PLT
.LVL20:
	.loc 1 98 0
	movl	36(%esp), %eax
	movl	$16, 8(%esp)
	movl	$0, 4(%esp)
	movl	%eax, (%esp)
	call	strtoul@PLT
.LVL21:
.LBE191:
	.loc 1 99 0
	movl	1228(%esp), %edx
	xorl	%gs:20, %edx
	jne	.L33
	leal	1244(%esp), %esp
	.cfi_remember_state
	.cfi_def_cfa_offset 20
	popl	%ebx
	.cfi_restore 3
	.cfi_def_cfa_offset 16
	popl	%esi
	.cfi_restore 6
	.cfi_def_cfa_offset 12
	popl	%edi
	.cfi_restore 7
	.cfi_def_cfa_offset 8
	popl	%ebp
	.cfi_restore 5
	.cfi_def_cfa_offset 4
.LVL22:
	ret
.LVL23:
.L33:
	.cfi_restore_state
	call	__stack_chk_fail_local
.LVL24:
.L31:
.LBB192:
	.loc 1 72 0
	movl	$1, (%esp)
	call	exit@PLT
.LVL25:
.LBE192:
	.cfi_endproc
.LFE1464:
	.size	_Z13FindFreeSpaceiPc, .-_Z13FindFreeSpaceiPc
	.section	.text.unlikely._Z13FindFreeSpaceiPc
.LCOLDE10:
	.section	.text._Z13FindFreeSpaceiPc
.LHOTE10:
	.section	.text.unlikely._Z10MemoryFindPhiS_i,"ax",@progbits
.LCOLDB11:
	.section	.text._Z10MemoryFindPhiS_i,"ax",@progbits
.LHOTB11:
	.p2align 4,,15
	.globl	_Z10MemoryFindPhiS_i
	.type	_Z10MemoryFindPhiS_i, @function
_Z10MemoryFindPhiS_i:
.LFB1465:
	.loc 1 102 0
	.cfi_startproc
.LVL26:
	pushl	%ebp
	.cfi_def_cfa_offset 8
	.cfi_offset 5, -8
	pushl	%edi
	.cfi_def_cfa_offset 12
	.cfi_offset 7, -12
	pushl	%esi
	.cfi_def_cfa_offset 16
	.cfi_offset 6, -16
	pushl	%ebx
	.cfi_def_cfa_offset 20
	.cfi_offset 3, -20
	call	__x86.get_pc_thunk.bx
	addl	$_GLOBAL_OFFSET_TABLE_, %ebx
	leal	-44(%esp), %esp
	.cfi_def_cfa_offset 64
	.loc 1 102 0
	movl	76(%esp), %esi
.LBB193:
.LBB194:
	.loc 1 103 0 discriminator 1
	movl	68(%esp), %eax
.LBE194:
.LBE193:
	.loc 1 102 0
	movl	72(%esp), %ebp
.LBB197:
.LBB195:
	.loc 1 103 0 discriminator 1
	subl	%esi, %eax
	movl	%eax, 28(%esp)
	testl	%eax, %eax
	jle	.L37
	xorl	%edi, %edi
	jmp	.L36
.LVL27:
	.p2align 4,,7
	.p2align 3
.L41:
	.loc 1 103 0 is_stmt 0 discriminator 2
	addl	$1, %edi
.LVL28:
	.loc 1 103 0 discriminator 1
	cmpl	28(%esp), %edi
	je	.L37
.LVL29:
.L36:
	movl	64(%esp), %eax
	.loc 1 104 0 is_stmt 1
	movl	%esi, 8(%esp)
	movl	%ebp, 4(%esp)
	addl	%edi, %eax
	movl	%eax, (%esp)
	call	memcmp@PLT
.LVL30:
	testl	%eax, %eax
	jne	.L41
.LBE195:
.LBE197:
	.loc 1 109 0
	leal	44(%esp), %esp
	.cfi_remember_state
	.cfi_def_cfa_offset 20
.LBB198:
.LBB196:
	.loc 1 105 0
	movl	%edi, %eax
.LBE196:
.LBE198:
	.loc 1 109 0
	popl	%ebx
	.cfi_restore 3
	.cfi_def_cfa_offset 16
	popl	%esi
	.cfi_restore 6
	.cfi_def_cfa_offset 12
	popl	%edi
	.cfi_restore 7
	.cfi_def_cfa_offset 8
.LVL31:
	popl	%ebp
	.cfi_restore 5
	.cfi_def_cfa_offset 4
	ret
.LVL32:
	.p2align 4,,7
	.p2align 3
.L37:
	.cfi_restore_state
	leal	44(%esp), %esp
	.cfi_def_cfa_offset 20
.LBB199:
	.loc 1 108 0
	movl	$-1, %eax
.LBE199:
	.loc 1 109 0
	popl	%ebx
	.cfi_restore 3
	.cfi_def_cfa_offset 16
	popl	%esi
	.cfi_restore 6
	.cfi_def_cfa_offset 12
	popl	%edi
	.cfi_restore 7
	.cfi_def_cfa_offset 8
	popl	%ebp
	.cfi_restore 5
	.cfi_def_cfa_offset 4
	ret
	.cfi_endproc
.LFE1465:
	.size	_Z10MemoryFindPhiS_i, .-_Z10MemoryFindPhiS_i
	.section	.text.unlikely._Z10MemoryFindPhiS_i
.LCOLDE11:
	.section	.text._Z10MemoryFindPhiS_i
.LHOTE11:
	.section	.rodata.str1.1
.LC12:
	.string	"wb"
	.section	.text.unlikely._Z13WriteAllBytesPcPhi,"ax",@progbits
.LCOLDB13:
	.section	.text._Z13WriteAllBytesPcPhi,"ax",@progbits
.LHOTB13:
	.p2align 4,,15
	.globl	_Z13WriteAllBytesPcPhi
	.type	_Z13WriteAllBytesPcPhi, @function
_Z13WriteAllBytesPcPhi:
.LFB1466:
	.loc 1 112 0
	.cfi_startproc
.LVL33:
	pushl	%esi
	.cfi_def_cfa_offset 8
	.cfi_offset 6, -8
	pushl	%ebx
	.cfi_def_cfa_offset 12
	.cfi_offset 3, -12
	call	__x86.get_pc_thunk.bx
	addl	$_GLOBAL_OFFSET_TABLE_, %ebx
	leal	-20(%esp), %esp
	.cfi_def_cfa_offset 32
.LBB200:
	.loc 1 113 0
	leal	.LC12@GOTOFF(%ebx), %eax
	movl	%eax, 4(%esp)
	movl	32(%esp), %eax
	movl	%eax, (%esp)
	call	fopen@PLT
.LVL34:
	movl	%eax, %esi
.LVL35:
	.loc 1 120 0
	xorl	%eax, %eax
.LVL36:
	.loc 1 114 0
	testl	%esi, %esi
	je	.L43
	.loc 1 115 0
	movl	40(%esp), %eax
	movl	%esi, 12(%esp)
	movl	$1, 8(%esp)
	movl	%eax, 4(%esp)
	movl	36(%esp), %eax
	movl	%eax, (%esp)
	call	fwrite@PLT
.LVL37:
	.loc 1 116 0
	movl	%esi, (%esp)
	call	fflush@PLT
.LVL38:
	.loc 1 117 0
	movl	%esi, (%esp)
	call	fclose@PLT
.LVL39:
	.loc 1 118 0
	movl	$1, %eax
.L43:
.LBE200:
	.loc 1 121 0
	leal	20(%esp), %esp
	.cfi_def_cfa_offset 12
	popl	%ebx
	.cfi_restore 3
	.cfi_def_cfa_offset 8
	popl	%esi
	.cfi_restore 6
	.cfi_def_cfa_offset 4
.LVL40:
	ret
	.cfi_endproc
.LFE1466:
	.size	_Z13WriteAllBytesPcPhi, .-_Z13WriteAllBytesPcPhi
	.section	.text.unlikely._Z13WriteAllBytesPcPhi
.LCOLDE13:
	.section	.text._Z13WriteAllBytesPcPhi
.LHOTE13:
	.section	.rodata.str1.1
.LC14:
	.string	"rb"
	.section	.text.unlikely._Z12ReadAllBytesPcPi,"ax",@progbits
.LCOLDB15:
	.section	.text._Z12ReadAllBytesPcPi,"ax",@progbits
.LHOTB15:
	.p2align 4,,15
	.globl	_Z12ReadAllBytesPcPi
	.type	_Z12ReadAllBytesPcPi, @function
_Z12ReadAllBytesPcPi:
.LFB1467:
	.loc 1 124 0
	.cfi_startproc
.LVL41:
	pushl	%ebp
	.cfi_def_cfa_offset 8
	.cfi_offset 5, -8
	pushl	%edi
	.cfi_def_cfa_offset 12
	.cfi_offset 7, -12
	pushl	%esi
	.cfi_def_cfa_offset 16
	.cfi_offset 6, -16
	pushl	%ebx
	.cfi_def_cfa_offset 20
	.cfi_offset 3, -20
	call	__x86.get_pc_thunk.bx
	addl	$_GLOBAL_OFFSET_TABLE_, %ebx
	leal	-28(%esp), %esp
	.cfi_def_cfa_offset 48
.LBB201:
	.loc 1 125 0
	leal	.LC14@GOTOFF(%ebx), %eax
	movl	%eax, 4(%esp)
	movl	48(%esp), %eax
	movl	%eax, (%esp)
	call	fopen@PLT
.LVL42:
.LBB202:
	.loc 1 127 0
	testl	%eax, %eax
.LBE202:
	.loc 1 125 0
	movl	%eax, %esi
.LVL43:
.LBB204:
	.loc 1 127 0
	je	.L50
.LBB203:
	.loc 1 128 0
	movl	$2, 8(%esp)
	movl	$0, 4(%esp)
	movl	%eax, (%esp)
	call	fseek@PLT
.LVL44:
	.loc 1 129 0
	movl	%esi, (%esp)
	call	ftell@PLT
.LVL45:
	movl	%eax, %ebp
.LVL46:
	.loc 1 130 0
	movl	52(%esp), %eax
.LVL47:
	movl	%ebp, (%eax)
	.loc 1 131 0
	movl	$0, 8(%esp)
	movl	$0, 4(%esp)
	movl	%esi, (%esp)
	call	fseek@PLT
.LVL48:
	.loc 1 133 0
	movl	%ebp, (%esp)
	call	malloc@PLT
.LVL49:
	.loc 1 134 0
	testl	%eax, %eax
	.loc 1 133 0
	movl	%eax, %edi
.LVL50:
	.loc 1 134 0
	je	.L50
	.loc 1 135 0
	movl	%esi, 12(%esp)
	movl	$1, 8(%esp)
	movl	%ebp, 4(%esp)
	movl	%eax, (%esp)
	call	fread@PLT
.LVL51:
	.loc 1 136 0
	movl	%esi, (%esp)
	call	fclose@PLT
.LVL52:
	.loc 1 137 0
	movl	%edi, %eax
.LVL53:
.L48:
.LBE203:
.LBE204:
.LBE201:
	.loc 1 141 0
	leal	28(%esp), %esp
	.cfi_remember_state
	.cfi_def_cfa_offset 20
	popl	%ebx
	.cfi_restore 3
	.cfi_def_cfa_offset 16
	popl	%esi
	.cfi_restore 6
	.cfi_def_cfa_offset 12
.LVL54:
	popl	%edi
	.cfi_restore 7
	.cfi_def_cfa_offset 8
	popl	%ebp
	.cfi_restore 5
	.cfi_def_cfa_offset 4
	ret
.LVL55:
	.p2align 4,,7
	.p2align 3
.L50:
	.cfi_restore_state
.LBB205:
	.loc 1 140 0
	xorl	%eax, %eax
	jmp	.L48
.LBE205:
	.cfi_endproc
.LFE1467:
	.size	_Z12ReadAllBytesPcPi, .-_Z12ReadAllBytesPcPi
	.section	.text.unlikely._Z12ReadAllBytesPcPi
.LCOLDE15:
	.section	.text._Z12ReadAllBytesPcPi
.LHOTE15:
	.section	.rodata.str1.1
.LC16:
	.string	"vector"
	.section	.text.unlikely._Z9_ReadFilePKc,"ax",@progbits
.LCOLDB17:
	.section	.text._Z9_ReadFilePKc,"ax",@progbits
.LHOTB17:
	.p2align 4,,15
	.globl	_Z9_ReadFilePKc
	.type	_Z9_ReadFilePKc, @function
_Z9_ReadFilePKc:
.LFB1468:
	.loc 1 144 0
	.cfi_startproc
.LVL56:
	pushl	%ebp
	.cfi_def_cfa_offset 8
	.cfi_offset 5, -8
	pushl	%edi
	.cfi_def_cfa_offset 12
	.cfi_offset 7, -12
	pushl	%esi
	.cfi_def_cfa_offset 16
	.cfi_offset 6, -16
	pushl	%ebx
	.cfi_def_cfa_offset 20
	.cfi_offset 3, -20
	call	__x86.get_pc_thunk.bx
	addl	$_GLOBAL_OFFSET_TABLE_, %ebx
	leal	-76(%esp), %esp
	.cfi_def_cfa_offset 96
	.loc 1 144 0
	movl	%gs:20, %eax
	movl	%eax, 60(%esp)
	xorl	%eax, %eax
	movl	96(%esp), %esi
.LBB261:
	.loc 1 146 0
	leal	.LC14@GOTOFF(%ebx), %eax
	movl	%eax, 4(%esp)
	movl	100(%esp), %eax
	movl	%eax, (%esp)
	call	fopen@PLT
.LVL57:
	.loc 1 147 0
	movl	%eax, (%esp)
	.loc 1 146 0
	movl	%eax, %ebp
.LVL58:
	.loc 1 147 0
	movl	$2, 8(%esp)
	movl	$0, 4(%esp)
	call	fseek@PLT
.LVL59:
	.loc 1 148 0
	movl	%ebp, (%esp)
	call	ftell@PLT
.LVL60:
	.loc 1 149 0
	movl	$0, 8(%esp)
	.loc 1 148 0
	movl	%eax, %edi
.LVL61:
	.loc 1 149 0
	movl	$0, 4(%esp)
	movl	%ebp, (%esp)
	call	fseek@PLT
.LVL62:
	.loc 1 151 0
	movl	%edi, (%esp)
	call	malloc@PLT
.LVL63:
	.loc 1 152 0
	movl	%eax, (%esp)
	movl	%ebp, 12(%esp)
	movl	$1, 8(%esp)
	movl	%edi, 4(%esp)
	.loc 1 151 0
	movl	%eax, 24(%esp)
.LVL64:
	.loc 1 152 0
	call	fread@PLT
.LVL65:
	.loc 1 153 0
	movl	%ebp, (%esp)
	call	fclose@PLT
.LVL66:
.LBB262:
.LBB263:
.LBB264:
	.file 2 "D:/android-ndk-r12b/build//../sources/cxx-stl/stlport/stlport/stl/_vector.h"
	.loc 2 67 0
	movl	$0, (%esi)
.LBE264:
.LBE263:
.LBE262:
.LBB269:
	.loc 1 158 0 discriminator 1
	testl	%edi, %edi
.LBE269:
.LBB389:
.LBB268:
.LBB267:
	.loc 2 67 0
	movl	$0, 4(%esi)
.LVL67:
.LBB265:
.LBB266:
	.file 3 "D:/android-ndk-r12b/build//../sources/cxx-stl/stlport/stlport/stl/_alloc.h"
	.loc 3 481 0
	movl	$0, 8(%esi)
.LVL68:
.LBE266:
.LBE265:
.LBE267:
.LBE268:
.LBE389:
.LBB390:
	.loc 1 158 0 discriminator 1
	jle	.L64
	movl	24(%esp), %eax
.LBB270:
.LBB271:
.LBB272:
.LBB273:
.LBB274:
.LBB275:
.LBB276:
.LBB277:
.LBB278:
.LBB279:
.LBB280:
.LBB281:
.LBB282:
.LBB283:
	.loc 3 158 0 discriminator 4
	leal	56(%esp), %ecx
	movl	%ecx, 40(%esp)
.LBE283:
.LBE282:
.LBE281:
.LBE280:
.LBE279:
.LBE278:
.LBE277:
.LBE276:
.LBE275:
.LBE274:
.LBE273:
.LBE272:
.LBE271:
.LBE270:
	.loc 1 158 0 discriminator 1
	xorl	%ebp, %ebp
.LVL69:
	addl	%eax, %edi
.LVL70:
	movl	%eax, %edx
.LBB385:
.LBB381:
.LBB374:
.LBB370:
.LBB366:
.LBB325:
.LBB320:
.LBB315:
.LBB310:
.LBB305:
.LBB299:
.LBB294:
.LBB290:
.LBB286:
	.loc 3 158 0 discriminator 4
	movl	%edi, %ecx
.LBE286:
.LBE290:
.LBE294:
.LBE299:
.LBE305:
.LBE310:
.LBE315:
.LBE320:
.LBE325:
.LBE366:
.LBE370:
.LBE374:
.LBE381:
.LBE385:
	.loc 1 158 0 discriminator 1
	xorl	%eax, %eax
.LBB386:
.LBB382:
.LBB375:
.LBB371:
.LBB367:
.LBB326:
.LBB321:
.LBB316:
.LBB311:
.LBB306:
.LBB300:
.LBB295:
.LBB291:
.LBB287:
	.loc 3 158 0 discriminator 4
	movl	%edx, %edi
	movl	%ecx, %edx
	jmp	.L65
.LVL71:
	.p2align 4,,7
	.p2align 3
.L78:
	movl	8(%esi), %ebp
	movl	4(%esi), %eax
.LVL72:
.L65:
.LBE287:
.LBE291:
.LBE295:
.LBE300:
.LBE306:
.LBE311:
.LBE316:
.LBE321:
.LBE326:
.LBE367:
.LBE371:
.LBE375:
	.loc 2 380 0
	cmpl	%eax, %ebp
	je	.L54
	movzbl	(%edi), %ecx
.LVL73:
.LBB376:
.LBB377:
.LBB378:
	.file 4 "D:/android-ndk-r12b/build//../sources/cxx-stl/stlport/stlport/stl/_construct.h"
	.loc 4 126 0
	movb	%cl, (%eax)
.LBE378:
.LBE377:
.LBE376:
	.loc 2 382 0
	addl	$1, 4(%esi)
.LVL74:
.L55:
	addl	$1, %edi
.LVL75:
.LBE382:
.LBE386:
	.loc 1 158 0 discriminator 1
	cmpl	%edx, %edi
	jne	.L78
.LVL76:
.L64:
.LBE390:
	.loc 1 161 0
	movl	24(%esp), %eax
	movl	%eax, (%esp)
	call	free@PLT
.LVL77:
.LBE261:
	.loc 1 163 0
	movl	60(%esp), %edx
	xorl	%gs:20, %edx
	movl	%esi, %eax
	jne	.L79
.LVL78:
	leal	76(%esp), %esp
	.cfi_remember_state
	.cfi_def_cfa_offset 20
	popl	%ebx
	.cfi_restore 3
	.cfi_def_cfa_offset 16
	popl	%esi
	.cfi_restore 6
	.cfi_def_cfa_offset 12
	popl	%edi
	.cfi_restore 7
	.cfi_def_cfa_offset 8
	popl	%ebp
	.cfi_restore 5
	.cfi_def_cfa_offset 4
	ret	$4
.LVL79:
	.p2align 4,,7
	.p2align 3
.L54:
	.cfi_restore_state
	movl	(%esi), %eax
	movl	%eax, 32(%esp)
.LVL80:
	movl	%eax, %ecx
.LBB393:
.LBB391:
.LBB387:
.LBB383:
.LBB379:
.LBB372:
.LBB368:
.LBB327:
.LBB328:
.LBB329:
.LBB330:
	.loc 2 192 0
	movl	%ebp, %eax
	subl	%ecx, %eax
.LVL81:
.LBE330:
.LBE329:
	.loc 2 173 0
	cmpl	$-1, %eax
	je	.L80
.LVL82:
	testl	%eax, %eax
	movl	$1, %ecx
	cmovne	%eax, %ecx
.LVL83:
	.loc 2 176 0 discriminator 2
	addl	%eax, %ecx
.LVL84:
	jnc	.L81
.LVL85:
.LBE328:
.LBE327:
.LBB335:
.LBB322:
.LBB317:
.LBB312:
.LBB307:
.LBB301:
.LBB296:
	.loc 3 347 0
	movl	$-1, 56(%esp)
.LVL86:
.LBE296:
.LBE301:
.LBE307:
.LBE312:
.LBE317:
.LBE322:
.LBE335:
.LBB336:
.LBB333:
	.loc 2 177 0
	movl	$-1, %ecx
.LVL87:
.L66:
.LBE333:
.LBE336:
.LBB337:
.LBB323:
.LBB318:
.LBB313:
.LBB308:
.LBB302:
.LBB297:
.LBB292:
.LBB288:
.LBB284:
.LBB285:
	.file 5 "D:/android-ndk-r12b/build//../sources/cxx-stl/stlport/stlport/stl/_new.h"
	.loc 5 134 0
	movl	%ecx, (%esp)
	movl	%edx, 28(%esp)
.LVL88:
	call	_Znwj@PLT
.LVL89:
	movl	28(%esp), %edx
.LVL90:
.L60:
	movl	(%esi), %ecx
.LBE285:
.LBE284:
.LBE288:
.LBE292:
	.loc 3 353 0
	movl	%eax, 28(%esp)
	movl	%ecx, 44(%esp)
	movl	%ecx, 32(%esp)
.LVL91:
	movl	56(%esp), %ecx
	addl	%eax, %ecx
	movl	%ecx, 36(%esp)
.LVL92:
.L58:
.LBE297:
.LBE302:
.LBE308:
.LBE313:
.LBE318:
.LBE323:
.LBE337:
.LBB338:
.LBB339:
	.file 6 "D:/android-ndk-r12b/build//../sources/cxx-stl/stlport/stlport/stl/_algobase.h"
	.loc 6 224 0
	movl	28(%esp), %eax
	subl	32(%esp), %ebp
.LVL93:
	jne	.L82
.L61:
.LVL94:
.LBE339:
.LBE338:
.LBB341:
.LBB342:
.LBB343:
.LBB344:
	.loc 6 460 0
	movzbl	(%edi), %ecx
.LBE344:
.LBE343:
	.loc 6 489 0
	leal	1(%eax), %ebp
.LVL95:
.LBB346:
.LBB345:
	.loc 6 460 0
	movb	%cl, (%eax)
.LVL96:
	movl	(%esi), %ecx
.LVL97:
.LBE345:
.LBE346:
.LBE342:
.LBE341:
.LBB347:
.LBB348:
	.loc 2 657 0
	movl	8(%esi), %eax
.LVL98:
	subl	%ecx, %eax
.LVL99:
.LBB349:
.LBB350:
	.loc 3 319 0
	testl	%ecx, %ecx
	je	.L62
.LVL100:
	movl	%edx, 32(%esp)
.LBB351:
.LBB352:
	.loc 3 161 0
	cmpl	$128, %eax
	ja	.L83
	.loc 3 161 0 is_stmt 0 discriminator 4
	movl	%eax, 4(%esp)
.LVL101:
	movl	%ecx, (%esp)
	call	_ZNSt12__node_alloc13_M_deallocateEPvj@PLT
.LVL102:
	movl	32(%esp), %edx
.L62:
.LVL103:
.LBE352:
.LBE351:
.LBE350:
.LBE349:
.LBE348:
.LBE347:
.LBB360:
.LBB361:
	.loc 2 666 0 is_stmt 1
	movl	28(%esp), %eax
	.loc 2 667 0
	movl	%ebp, 4(%esi)
	.loc 2 666 0
	movl	%eax, (%esi)
	.loc 2 668 0
	movl	36(%esp), %eax
	movl	%eax, 8(%esi)
	jmp	.L55
.LVL104:
	.p2align 4,,7
	.p2align 3
.L83:
.LBE361:
.LBE360:
.LBB362:
.LBB359:
.LBB358:
.LBB357:
.LBB356:
.LBB355:
.LBB353:
.LBB354:
	.loc 5 135 0
	movl	%ecx, (%esp)
.LVL105:
	call	_ZdlPv@PLT
.LVL106:
	movl	32(%esp), %edx
	jmp	.L62
.LVL107:
	.p2align 4,,7
	.p2align 3
.L82:
.LBE354:
.LBE353:
.LBE355:
.LBE356:
.LBE357:
.LBE358:
.LBE359:
.LBE362:
.LBB363:
.LBB340:
	.loc 6 224 0 discriminator 2
	movl	44(%esp), %eax
	movl	%ebp, 8(%esp)
	movl	%edx, 32(%esp)
	movl	%eax, 4(%esp)
	movl	28(%esp), %eax
	movl	%eax, (%esp)
	call	memmove@PLT
.LVL108:
	.loc 6 224 0 is_stmt 0 discriminator 1
	movl	32(%esp), %edx
	addl	%ebp, %eax
	jmp	.L61
.LVL109:
	.p2align 4,,7
	.p2align 3
.L81:
.LBE340:
.LBE363:
.LBB364:
.LBB324:
.LBB319:
.LBB314:
.LBB309:
.LBB303:
	.loc 3 346 0 is_stmt 1
	testl	%ecx, %ecx
	jne	.L84
	movl	32(%esp), %eax
.LVL110:
	movl	$0, 36(%esp)
.LBE303:
	.loc 3 356 0
	movl	$0, 28(%esp)
.LBB304:
	.loc 3 346 0
	movl	%eax, 44(%esp)
	jmp	.L58
.LVL111:
	.p2align 4,,7
	.p2align 3
.L84:
.LBB298:
	.loc 3 347 0
	movl	%ecx, 56(%esp)
.LVL112:
.LBB293:
.LBB289:
	.loc 3 158 0
	cmpl	$128, %ecx
	ja	.L66
	.loc 3 158 0 is_stmt 0 discriminator 4
	movl	40(%esp), %eax
.LVL113:
	movl	%edx, 28(%esp)
	movl	%eax, (%esp)
.LVL114:
	call	_ZNSt12__node_alloc11_M_allocateERj@PLT
.LVL115:
	movl	28(%esp), %edx
	jmp	.L60
.LVL116:
.L79:
.LBE289:
.LBE293:
.LBE298:
.LBE304:
.LBE309:
.LBE314:
.LBE319:
.LBE324:
.LBE364:
.LBE368:
.LBE372:
.LBE379:
.LBE383:
.LBE387:
.LBE391:
.LBE393:
	.loc 1 163 0 is_stmt 1
	call	__stack_chk_fail_local
.LVL117:
.L80:
.LBB394:
.LBB392:
.LBB388:
.LBB384:
.LBB380:
.LBB373:
.LBB369:
.LBB365:
.LBB334:
.LBB331:
.LBB332:
	.file 7 "D:/android-ndk-r12b/build//../sources/cxx-stl/stlport/stlport/stl/_vector.c"
	.loc 7 41 0
	leal	.LC16@GOTOFF(%ebx), %eax
.LVL118:
	movl	%eax, (%esp)
	call	_ZSt24__stl_throw_length_errorPKc@PLT
.LVL119:
.LBE332:
.LBE331:
.LBE334:
.LBE365:
.LBE369:
.LBE373:
.LBE380:
.LBE384:
.LBE388:
.LBE392:
.LBE394:
	.cfi_endproc
.LFE1468:
	.size	_Z9_ReadFilePKc, .-_Z9_ReadFilePKc
	.section	.text.unlikely._Z9_ReadFilePKc
.LCOLDE17:
	.section	.text._Z9_ReadFilePKc
.LHOTE17:
	.globl	_branchToAddressCmd
	.data
	.type	_branchToAddressCmd, @object
	.size	_branchToAddressCmd, 12
_branchToAddressCmd:
	.byte	0
	.byte	-64
	.byte	-97
	.byte	-27
	.byte	28
	.byte	-1
	.byte	47
	.byte	-31
	.byte	17
	.byte	34
	.byte	51
	.byte	68
	.section	.text.__x86.get_pc_thunk.bx,"axG",@progbits,__x86.get_pc_thunk.bx,comdat
	.globl	__x86.get_pc_thunk.bx
	.hidden	__x86.get_pc_thunk.bx
	.type	__x86.get_pc_thunk.bx, @function
__x86.get_pc_thunk.bx:
.LFB1736:
	.cfi_startproc
	movl	(%esp), %ebx
	ret
	.cfi_endproc
.LFE1736:
	.text
.Letext0:
	.section	.text.unlikely._Z29GetBranchToAddressCommandSizev
.Letext_cold0:
	.file 8 "D:/android-ndk-r12b/build//../sources/cxx-stl/stlport/stlport/stl/_cstddef.h"
	.file 9 "D:/android-ndk-r12b/build//../sources/cxx-stl/stlport/stlport/stl/_cstdlib.h"
	.file 10 "D:/android-ndk-r12b/build//../sources/cxx-stl/stlport/stlport/stl/_cmath.h"
	.file 11 "D:/android-ndk-r12b/build//../sources/cxx-stl/stlport/stlport/using/cstring"
	.file 12 "D:/android-ndk-r12b/build//../sources/cxx-stl/stlport/stlport/stl/type_manips.h"
	.file 13 "D:/android-ndk-r12b/build//../sources/cxx-stl/stlport/stlport/stl/_limits.h"
	.file 14 "D:/android-ndk-r12b/build//../sources/cxx-stl/stlport/stlport/stl/type_traits.h"
	.file 15 "D:/android-ndk-r12b/build//../sources/cxx-stl/stlport/stlport/stl/_iterator_base.h"
	.file 16 "D:/android-ndk-r12b/build//../sources/cxx-stl/stlport/stlport/../../gabi++/include/cstddef"
	.file 17 "D:/android-ndk-r12b/build//../sources/cxx-stl/stlport/stlport/stl/_cstdio.h"
	.file 18 "D:/android-ndk-r12b/build//../sources/cxx-stl/stlport/stlport/stl/_cwchar.h"
	.file 19 "D:/android-ndk-r12b/build//../sources/cxx-stl/stlport/stlport/stl/_threads.h"
	.file 20 "D:/android-ndk-r12b/build//../sources/cxx-stl/stlport/stlport/stl/_ctime.h"
	.file 21 "D:/android-ndk-r12b/build//../sources/cxx-stl/stlport/stlport/stl/_move_construct_fwk.h"
	.file 22 "D:/android-ndk-r12b/build//../sources/cxx-stl/stlport/stlport/stl/_iterator.h"
	.file 23 "D:/android-ndk-r12b/build//../sources/cxx-stl/stlport/stlport/stl/config/features.h"
	.file 24 "d:\\android-ndk-r12b\\toolchains\\x86-4.9\\prebuilt\\windows-x86_64\\lib\\gcc\\i686-linux-android\\4.9.x\\include\\stddef.h"
	.file 25 "d:\\android-ndk-r12b\\platforms\\android-9\\arch-x86\\usr\\include\\asm\\posix_types_32.h"
	.file 26 "d:\\android-ndk-r12b\\platforms\\android-9\\arch-x86\\usr\\include\\sys\\types.h"
	.file 27 "d:\\android-ndk-r12b\\toolchains\\x86-4.9\\prebuilt\\windows-x86_64\\lib\\gcc\\i686-linux-android\\4.9.x\\include\\stdarg.h"
	.file 28 "d:\\android-ndk-r12b\\platforms\\android-9\\arch-x86\\usr\\include\\stdio.h"
	.file 29 "d:\\android-ndk-r12b\\platforms\\android-9\\arch-x86\\usr\\include\\stdlib.h"
	.file 30 "D:/android-ndk-r12b/build//../sources/cxx-stl/stlport/stlport/stl/_range_errors.h"
	.file 31 "d:\\android-ndk-r12b\\platforms\\android-9\\arch-x86\\usr\\include\\string.h"
	.file 32 "d:\\android-ndk-r12b\\platforms\\android-9\\arch-x86\\usr\\include\\time.h"
	.file 33 "d:\\android-ndk-r12b\\platforms\\android-9\\arch-x86\\usr\\include\\wchar.h"
	.file 34 "d:\\android-ndk-r12b\\platforms\\android-9\\arch-x86\\usr\\include\\pthread.h"
	.file 35 "d:\\android-ndk-r12b\\platforms\\android-9\\arch-x86\\usr\\include\\malloc.h"
	.file 36 "d:\\android-ndk-r12b\\platforms\\android-9\\arch-x86\\usr\\include\\sys\\mman.h"
	.file 37 "D:/android-ndk-r12b/build//../sources/cxx-stl/stlport/stlport/../../gabi++/include/new"
	.file 38 "<built-in>"
	.file 39 "D:/android-ndk-r12b/build//../sources/cxx-stl/stlport/stlport/stl/_threads.c"
	.section	.note.GNU-stack,"",@progbits
