	.file	"PtraceUtil.cpp"
	.text
.Ltext0:
	.section	.text.unlikely._ZN10PtraceUtilD2Ev,"ax",@progbits
	.align 2
.LCOLDB0:
	.section	.text._ZN10PtraceUtilD2Ev,"ax",@progbits
.LHOTB0:
	.align 2
	.p2align 4,,15
	.section	.text.unlikely._ZN10PtraceUtilD2Ev
.Ltext_cold0:
	.section	.text._ZN10PtraceUtilD2Ev
	.globl	_ZN10PtraceUtilD2Ev
	.type	_ZN10PtraceUtilD2Ev, @function
_ZN10PtraceUtilD2Ev:
.LFB1599:
	.file 1 "jni/tracer/../util/PtraceUtil.cpp"
	.loc 1 42 0
	.cfi_startproc
.LVL0:
	pushl	%esi
	.cfi_def_cfa_offset 8
	.cfi_offset 6, -8
	pushl	%ebx
	.cfi_def_cfa_offset 12
	.cfi_offset 3, -12
	call	__x86.get_pc_thunk.bx
	addl	$_GLOBAL_OFFSET_TABLE_, %ebx
	leal	-20(%esp), %esp
	.cfi_def_cfa_offset 32
	.loc 1 42 0
	movl	32(%esp), %esi
.LBB368:
	movl	_ZTV10PtraceUtil@GOT(%ebx), %eax
	movl	20(%esi), %edx
	leal	8(%eax), %eax
	movl	%eax, (%esi)
.LVL1:
.LBB369:
.LBB370:
.LBB371:
	.file 2 "D:/android-ndk-r12b/build//../sources/cxx-stl/stlport/stlport/stl/_vector.h"
	.loc 2 87 0
	testl	%edx, %edx
	je	.L2
.LVL2:
	.loc 2 88 0
	movl	28(%esi), %eax
	subl	%edx, %eax
.LVL3:
.LBB372:
.LBB373:
.LBB374:
.LBB375:
	.file 3 "D:/android-ndk-r12b/build//../sources/cxx-stl/stlport/stlport/stl/_alloc.h"
	.loc 3 161 0
	cmpl	$128, %eax
	ja	.L9
	.loc 3 161 0 is_stmt 0 discriminator 4
	movl	%eax, 4(%esp)
.LVL4:
	movl	%edx, (%esp)
	call	_ZNSt12__node_alloc13_M_deallocateEPvj@PLT
.LVL5:
.L2:
.LBE375:
.LBE374:
.LBE373:
.LBE372:
.LBE371:
.LBE370:
.LBE369:
	.loc 1 42 0 is_stmt 1
	addl	$4, %esi
.LVL6:
	movl	%esi, (%esp)
	.loc 1 42 0 is_stmt 0 discriminator 1
	call	_ZN6LoggerD1Ev@PLT
.LVL7:
.LBE368:
	.loc 1 43 0 is_stmt 1
	leal	20(%esp), %esp
	.cfi_remember_state
	.cfi_def_cfa_offset 12
	popl	%ebx
	.cfi_restore 3
	.cfi_def_cfa_offset 8
	popl	%esi
	.cfi_restore 6
	.cfi_def_cfa_offset 4
	ret
.LVL8:
	.p2align 4,,7
	.p2align 3
.L9:
	.cfi_restore_state
.LBB385:
.LBB384:
.LBB383:
.LBB382:
.LBB381:
.LBB380:
.LBB379:
.LBB378:
.LBB376:
.LBB377:
	.file 4 "D:/android-ndk-r12b/build//../sources/cxx-stl/stlport/stlport/stl/_new.h"
	.loc 4 135 0
	movl	%edx, (%esp)
.LVL9:
	call	_ZdlPv@PLT
.LVL10:
	jmp	.L2
.LBE377:
.LBE376:
.LBE378:
.LBE379:
.LBE380:
.LBE381:
.LBE382:
.LBE383:
.LBE384:
.LBE385:
	.cfi_endproc
.LFE1599:
	.size	_ZN10PtraceUtilD2Ev, .-_ZN10PtraceUtilD2Ev
	.section	.text.unlikely._ZN10PtraceUtilD2Ev
.LCOLDE0:
	.section	.text._ZN10PtraceUtilD2Ev
.LHOTE0:
	.globl	_ZN10PtraceUtilD1Ev
	.set	_ZN10PtraceUtilD1Ev,_ZN10PtraceUtilD2Ev
	.section	.text.unlikely._ZN10PtraceUtilD0Ev,"ax",@progbits
	.align 2
.LCOLDB1:
	.section	.text._ZN10PtraceUtilD0Ev,"ax",@progbits
.LHOTB1:
	.align 2
	.p2align 4,,15
	.globl	_ZN10PtraceUtilD0Ev
	.type	_ZN10PtraceUtilD0Ev, @function
_ZN10PtraceUtilD0Ev:
.LFB1601:
	.loc 1 42 0
	.cfi_startproc
.LVL11:
	pushl	%esi
	.cfi_def_cfa_offset 8
	.cfi_offset 6, -8
	pushl	%ebx
	.cfi_def_cfa_offset 12
	.cfi_offset 3, -12
	call	__x86.get_pc_thunk.bx
	addl	$_GLOBAL_OFFSET_TABLE_, %ebx
	leal	-20(%esp), %esp
	.cfi_def_cfa_offset 32
	.loc 1 42 0
	movl	32(%esp), %esi
	.loc 1 43 0
	movl	%esi, (%esp)
	call	_ZN10PtraceUtilD1Ev@PLT
.LVL12:
	.loc 1 43 0 is_stmt 0 discriminator 2
	movl	%esi, (%esp)
	call	_ZdlPv@PLT
.LVL13:
	.loc 1 43 0
	leal	20(%esp), %esp
	.cfi_def_cfa_offset 12
	popl	%ebx
	.cfi_restore 3
	.cfi_def_cfa_offset 8
	popl	%esi
	.cfi_restore 6
	.cfi_def_cfa_offset 4
	ret
	.cfi_endproc
.LFE1601:
	.size	_ZN10PtraceUtilD0Ev, .-_ZN10PtraceUtilD0Ev
	.section	.text.unlikely._ZN10PtraceUtilD0Ev
.LCOLDE1:
	.section	.text._ZN10PtraceUtilD0Ev
.LHOTE1:
	.section	.text.unlikely._ZN10PtraceUtilC2Ev,"ax",@progbits
	.align 2
.LCOLDB2:
	.section	.text._ZN10PtraceUtilC2Ev,"ax",@progbits
.LHOTB2:
	.align 2
	.p2align 4,,15
	.globl	_ZN10PtraceUtilC2Ev
	.type	_ZN10PtraceUtilC2Ev, @function
_ZN10PtraceUtilC2Ev:
.LFB1596:
	.loc 1 38 0 is_stmt 1
	.cfi_startproc
.LVL14:
	pushl	%esi
	.cfi_def_cfa_offset 8
	.cfi_offset 6, -8
	pushl	%ebx
	.cfi_def_cfa_offset 12
	.cfi_offset 3, -12
	call	__x86.get_pc_thunk.bx
	addl	$_GLOBAL_OFFSET_TABLE_, %ebx
	leal	-20(%esp), %esp
	.cfi_def_cfa_offset 32
.LBB386:
	.loc 1 38 0
	movl	_ZTV10PtraceUtil@GOT(%ebx), %eax
.LBE386:
	movl	32(%esp), %esi
.LBB392:
	leal	8(%eax), %eax
	movl	%eax, (%esi)
	leal	4(%esi), %eax
	movl	%eax, (%esp)
	call	_ZN6LoggerC1Ev@PLT
.LVL15:
.LBB387:
.LBB388:
.LBB389:
	.loc 2 67 0
	movl	$0, 20(%esi)
	movl	$0, 24(%esi)
.LVL16:
.LBB390:
.LBB391:
	.loc 3 481 0
	movl	$0, 28(%esi)
.LVL17:
.LBE391:
.LBE390:
.LBE389:
.LBE388:
.LBE387:
.LBE392:
	.loc 1 39 0
	leal	20(%esp), %esp
	.cfi_def_cfa_offset 12
	popl	%ebx
	.cfi_restore 3
	.cfi_def_cfa_offset 8
	popl	%esi
	.cfi_restore 6
	.cfi_def_cfa_offset 4
.LVL18:
	ret
	.cfi_endproc
.LFE1596:
	.size	_ZN10PtraceUtilC2Ev, .-_ZN10PtraceUtilC2Ev
	.section	.text.unlikely._ZN10PtraceUtilC2Ev
.LCOLDE2:
	.section	.text._ZN10PtraceUtilC2Ev
.LHOTE2:
	.globl	_ZN10PtraceUtilC1Ev
	.set	_ZN10PtraceUtilC1Ev,_ZN10PtraceUtilC2Ev
	.section	.rodata.str1.1,"aMS",@progbits,1
.LC3:
	.string	"Attach: %s"
.LC4:
	.string	"PtraceUtil"
.LC5:
	.string	"Attach Success"
	.section	.text.unlikely._ZN10PtraceUtil6AttachEi,"ax",@progbits
	.align 2
.LCOLDB6:
	.section	.text._ZN10PtraceUtil6AttachEi,"ax",@progbits
.LHOTB6:
	.align 2
	.p2align 4,,15
	.globl	_ZN10PtraceUtil6AttachEi
	.type	_ZN10PtraceUtil6AttachEi, @function
_ZN10PtraceUtil6AttachEi:
.LFB1602:
	.loc 1 46 0
	.cfi_startproc
.LVL19:
	pushl	%esi
	.cfi_def_cfa_offset 8
	.cfi_offset 6, -8
	pushl	%ebx
	.cfi_def_cfa_offset 12
	.cfi_offset 3, -12
	call	__x86.get_pc_thunk.bx
	addl	$_GLOBAL_OFFSET_TABLE_, %ebx
	leal	-20(%esp), %esp
	.cfi_def_cfa_offset 32
	.loc 1 46 0
	movl	32(%esp), %esi
.LBB393:
	.loc 1 47 0
	movl	36(%esp), %eax
	movl	%eax, 16(%esi)
	.loc 1 48 0
	call	__errno@PLT
.LVL20:
	movl	$0, (%eax)
	.loc 1 49 0
	movl	$0, 12(%esp)
	movl	$0, 8(%esp)
	movl	16(%esi), %eax
	movl	$16, (%esp)
	movl	%eax, 4(%esp)
	call	ptrace@PLT
.LVL21:
	.loc 1 50 0
	cmpl	$-1, %eax
	je	.L18
	.loc 1 54 0
	movl	$3, (%esp)
	leal	.LC5@GOTOFF(%ebx), %eax
.LVL22:
	movl	%eax, 8(%esp)
	leal	.LC4@GOTOFF(%ebx), %eax
	movl	%eax, 4(%esp)
	call	__android_log_print@PLT
.LVL23:
	.loc 1 55 0
	xorl	%eax, %eax
.L16:
.LBE393:
	.loc 1 56 0
	leal	20(%esp), %esp
	.cfi_remember_state
	.cfi_def_cfa_offset 12
	popl	%ebx
	.cfi_restore 3
	.cfi_def_cfa_offset 8
	popl	%esi
	.cfi_restore 6
	.cfi_def_cfa_offset 4
	ret
.LVL24:
	.p2align 4,,7
	.p2align 3
.L18:
	.cfi_restore_state
.LBB394:
	.loc 1 51 0
	call	__errno@PLT
.LVL25:
	movl	(%eax), %eax
	.loc 1 51 0 is_stmt 0 discriminator 1
	movl	%eax, (%esp)
	call	strerror@PLT
.LVL26:
	.loc 1 51 0 discriminator 2
	movl	%eax, 12(%esp)
	leal	.LC3@GOTOFF(%ebx), %eax
	movl	%eax, 8(%esp)
	leal	.LC4@GOTOFF(%ebx), %eax
	movl	$6, (%esp)
	movl	%eax, 4(%esp)
	call	__android_log_print@PLT
.LVL27:
	.loc 1 52 0 is_stmt 1
	movl	$-1, %eax
	jmp	.L16
.LBE394:
	.cfi_endproc
.LFE1602:
	.size	_ZN10PtraceUtil6AttachEi, .-_ZN10PtraceUtil6AttachEi
	.section	.text.unlikely._ZN10PtraceUtil6AttachEi
.LCOLDE6:
	.section	.text._ZN10PtraceUtil6AttachEi
.LHOTE6:
	.section	.rodata.str1.1
.LC7:
	.string	"Detach: %s"
.LC8:
	.string	"Detach Success"
	.section	.text.unlikely._ZN10PtraceUtil6DetachEv,"ax",@progbits
	.align 2
.LCOLDB9:
	.section	.text._ZN10PtraceUtil6DetachEv,"ax",@progbits
.LHOTB9:
	.align 2
	.p2align 4,,15
	.globl	_ZN10PtraceUtil6DetachEv
	.type	_ZN10PtraceUtil6DetachEv, @function
_ZN10PtraceUtil6DetachEv:
.LFB1603:
	.loc 1 59 0
	.cfi_startproc
.LVL28:
	pushl	%ebx
	.cfi_def_cfa_offset 8
	.cfi_offset 3, -8
	call	__x86.get_pc_thunk.bx
	addl	$_GLOBAL_OFFSET_TABLE_, %ebx
	leal	-24(%esp), %esp
	.cfi_def_cfa_offset 32
.LBB395:
	.loc 1 60 0
	call	__errno@PLT
.LVL29:
	movl	$0, (%eax)
	.loc 1 61 0
	movl	32(%esp), %eax
	movl	$0, 12(%esp)
	movl	$0, 8(%esp)
	movl	16(%eax), %eax
	movl	$17, (%esp)
	movl	%eax, 4(%esp)
	call	ptrace@PLT
.LVL30:
	.loc 1 62 0
	cmpl	$-1, %eax
	je	.L23
	.loc 1 66 0
	movl	$3, (%esp)
	leal	.LC8@GOTOFF(%ebx), %eax
.LVL31:
	movl	%eax, 8(%esp)
	leal	.LC4@GOTOFF(%ebx), %eax
	movl	%eax, 4(%esp)
	call	__android_log_print@PLT
.LVL32:
	.loc 1 67 0
	xorl	%eax, %eax
.L21:
.LBE395:
	.loc 1 68 0
	leal	24(%esp), %esp
	.cfi_remember_state
	.cfi_def_cfa_offset 8
	popl	%ebx
	.cfi_restore 3
	.cfi_def_cfa_offset 4
	ret
.LVL33:
	.p2align 4,,7
	.p2align 3
.L23:
	.cfi_restore_state
.LBB396:
	.loc 1 63 0
	call	__errno@PLT
.LVL34:
	movl	(%eax), %eax
	.loc 1 63 0 is_stmt 0 discriminator 1
	movl	%eax, (%esp)
	call	strerror@PLT
.LVL35:
	.loc 1 63 0 discriminator 2
	movl	%eax, 12(%esp)
	leal	.LC7@GOTOFF(%ebx), %eax
	movl	%eax, 8(%esp)
	leal	.LC4@GOTOFF(%ebx), %eax
	movl	$6, (%esp)
	movl	%eax, 4(%esp)
	call	__android_log_print@PLT
.LVL36:
	.loc 1 64 0 is_stmt 1
	movl	$-1, %eax
	jmp	.L21
.LBE396:
	.cfi_endproc
.LFE1603:
	.size	_ZN10PtraceUtil6DetachEv, .-_ZN10PtraceUtil6DetachEv
	.section	.text.unlikely._ZN10PtraceUtil6DetachEv
.LCOLDE9:
	.section	.text._ZN10PtraceUtil6DetachEv
.LHOTE9:
	.section	.rodata.str1.1
.LC10:
	.string	"Continue: %s"
.LC11:
	.string	"Continue Success"
	.section	.text.unlikely._ZN10PtraceUtil8ContinueEv,"ax",@progbits
	.align 2
.LCOLDB12:
	.section	.text._ZN10PtraceUtil8ContinueEv,"ax",@progbits
.LHOTB12:
	.align 2
	.p2align 4,,15
	.globl	_ZN10PtraceUtil8ContinueEv
	.type	_ZN10PtraceUtil8ContinueEv, @function
_ZN10PtraceUtil8ContinueEv:
.LFB1604:
	.loc 1 71 0
	.cfi_startproc
.LVL37:
	pushl	%esi
	.cfi_def_cfa_offset 8
	.cfi_offset 6, -8
	pushl	%ebx
	.cfi_def_cfa_offset 12
	.cfi_offset 3, -12
	call	__x86.get_pc_thunk.bx
	addl	$_GLOBAL_OFFSET_TABLE_, %ebx
	leal	-20(%esp), %esp
	.cfi_def_cfa_offset 32
.LBB397:
	.loc 1 72 0
	movl	32(%esp), %eax
	movl	$0, 12(%esp)
	movl	$0, 8(%esp)
	movl	16(%eax), %eax
	movl	$7, (%esp)
	movl	%eax, 4(%esp)
	call	ptrace@PLT
.LVL38:
	.loc 1 73 0
	cmpl	$-1, %eax
	.loc 1 72 0
	movl	%eax, %esi
.LVL39:
	.loc 1 73 0
	je	.L28
	.loc 1 77 0
	movl	$3, (%esp)
	leal	.LC11@GOTOFF(%ebx), %eax
.LVL40:
	movl	%eax, 8(%esp)
	leal	.LC4@GOTOFF(%ebx), %eax
	movl	%eax, 4(%esp)
	call	__android_log_print@PLT
.LVL41:
	.loc 1 78 0
	movl	%esi, %eax
.L26:
.LBE397:
	.loc 1 79 0
	leal	20(%esp), %esp
	.cfi_remember_state
	.cfi_def_cfa_offset 12
	popl	%ebx
	.cfi_restore 3
	.cfi_def_cfa_offset 8
	popl	%esi
	.cfi_restore 6
	.cfi_def_cfa_offset 4
.LVL42:
	ret
.LVL43:
	.p2align 4,,7
	.p2align 3
.L28:
	.cfi_restore_state
.LBB398:
	.loc 1 74 0
	call	__errno@PLT
.LVL44:
	movl	(%eax), %eax
	.loc 1 74 0 is_stmt 0 discriminator 1
	movl	%eax, (%esp)
	call	strerror@PLT
.LVL45:
	.loc 1 74 0 discriminator 2
	movl	%eax, 12(%esp)
	leal	.LC10@GOTOFF(%ebx), %eax
	movl	%eax, 8(%esp)
	leal	.LC4@GOTOFF(%ebx), %eax
	movl	$6, (%esp)
	movl	%eax, 4(%esp)
	call	__android_log_print@PLT
.LVL46:
	.loc 1 75 0 is_stmt 1
	movl	$-1, %eax
	jmp	.L26
.LBE398:
	.cfi_endproc
.LFE1604:
	.size	_ZN10PtraceUtil8ContinueEv, .-_ZN10PtraceUtil8ContinueEv
	.section	.text.unlikely._ZN10PtraceUtil8ContinueEv
.LCOLDE12:
	.section	.text._ZN10PtraceUtil8ContinueEv
.LHOTE12:
	.section	.rodata.str1.1
.LC13:
	.string	"FindBackupMemory %08X found"
	.section	.text.unlikely._ZN10PtraceUtil16FindBackupMemoryEj,"ax",@progbits
	.align 2
.LCOLDB14:
	.section	.text._ZN10PtraceUtil16FindBackupMemoryEj,"ax",@progbits
.LHOTB14:
	.align 2
	.p2align 4,,15
	.globl	_ZN10PtraceUtil16FindBackupMemoryEj
	.type	_ZN10PtraceUtil16FindBackupMemoryEj, @function
_ZN10PtraceUtil16FindBackupMemoryEj:
.LFB1605:
	.loc 1 82 0
	.cfi_startproc
.LVL47:
	pushl	%ebp
	.cfi_def_cfa_offset 8
	.cfi_offset 5, -8
	pushl	%edi
	.cfi_def_cfa_offset 12
	.cfi_offset 7, -12
	pushl	%esi
	.cfi_def_cfa_offset 16
	.cfi_offset 6, -16
	pushl	%ebx
	.cfi_def_cfa_offset 20
	.cfi_offset 3, -20
	call	__x86.get_pc_thunk.bx
	addl	$_GLOBAL_OFFSET_TABLE_, %ebx
	leal	-44(%esp), %esp
	.cfi_def_cfa_offset 64
	movl	64(%esp), %eax
	.loc 1 82 0
	movl	68(%esp), %ebp
	movl	20(%eax), %edi
.LVL48:
.LBB399:
.LBB400:
.LBB401:
.LBB402:
	.loc 2 192 0
	movl	24(%eax), %eax
.LVL49:
	movl	%eax, 28(%esp)
	subl	%edi, %eax
	sarl	$3, %eax
	imull	$266354561, %eax, %eax
.LBE402:
.LBE401:
	.loc 1 83 0 discriminator 1
	testl	%eax, %eax
	je	.L34
.LVL50:
	.loc 1 84 0
	cmpl	%ebp, (%edi)
	je	.L35
	movl	$1032, %esi
	xorl	%edx, %edx
	jmp	.L32
.LVL51:
	.p2align 4,,7
	.p2align 3
.L33:
	leal	1032(%esi), %ecx
	cmpl	%ebp, -1032(%edi,%ecx)
	je	.L31
	movl	%ecx, %esi
.LVL52:
.L32:
	.loc 1 83 0 discriminator 2
	addl	$1, %edx
.LVL53:
	.loc 1 83 0 is_stmt 0 discriminator 1
	cmpl	%eax, %edx
	jne	.L33
.LVL54:
.L34:
.LBE400:
.LBE399:
	.loc 1 91 0 is_stmt 1
	leal	44(%esp), %esp
	.cfi_remember_state
	.cfi_def_cfa_offset 20
.LBB407:
	.loc 1 90 0
	xorl	%eax, %eax
.LBE407:
	.loc 1 91 0
	popl	%ebx
	.cfi_restore 3
	.cfi_def_cfa_offset 16
	popl	%esi
	.cfi_restore 6
	.cfi_def_cfa_offset 12
	popl	%edi
	.cfi_restore 7
	.cfi_def_cfa_offset 8
	popl	%ebp
	.cfi_restore 5
	.cfi_def_cfa_offset 4
	ret
.LVL55:
.L35:
	.cfi_restore_state
.LBB408:
.LBB405:
.LBB403:
.LBB404:
	.loc 2 202 0
	xorl	%esi, %esi
.LVL56:
	.p2align 4,,15
.L31:
.LBE404:
.LBE403:
	.loc 1 85 0
	movl	%ebp, 12(%esp)
	leal	.LC13@GOTOFF(%ebx), %eax
	movl	%eax, 8(%esp)
	leal	.LC4@GOTOFF(%ebx), %eax
	movl	$3, (%esp)
	movl	%eax, 4(%esp)
	call	__android_log_print@PLT
.LVL57:
	.loc 1 86 0
	movl	64(%esp), %edi
	movl	20(%edi), %eax
.LBE405:
.LBE408:
	.loc 1 91 0
	leal	44(%esp), %esp
	.cfi_def_cfa_offset 20
	popl	%ebx
	.cfi_restore 3
	.cfi_def_cfa_offset 16
.LBB409:
.LBB406:
	.loc 1 86 0
	addl	%esi, %eax
.LBE406:
.LBE409:
	.loc 1 91 0
	popl	%esi
	.cfi_restore 6
	.cfi_def_cfa_offset 12
	popl	%edi
	.cfi_restore 7
	.cfi_def_cfa_offset 8
	popl	%ebp
	.cfi_restore 5
	.cfi_def_cfa_offset 4
	ret
	.cfi_endproc
.LFE1605:
	.size	_ZN10PtraceUtil16FindBackupMemoryEj, .-_ZN10PtraceUtil16FindBackupMemoryEj
	.section	.text.unlikely._ZN10PtraceUtil16FindBackupMemoryEj
.LCOLDE14:
	.section	.text._ZN10PtraceUtil16FindBackupMemoryEj
.LHOTE14:
	.section	.text.unlikely._ZN10PtraceUtil13wordAlignSizeEi,"ax",@progbits
	.align 2
.LCOLDB15:
	.section	.text._ZN10PtraceUtil13wordAlignSizeEi,"ax",@progbits
.LHOTB15:
	.align 2
	.p2align 4,,15
	.globl	_ZN10PtraceUtil13wordAlignSizeEi
	.type	_ZN10PtraceUtil13wordAlignSizeEi, @function
_ZN10PtraceUtil13wordAlignSizeEi:
.LFB1609:
	.loc 1 152 0
	.cfi_startproc
.LVL58:
	.loc 1 152 0
	movl	8(%esp), %eax
	.loc 1 153 0
	movl	%eax, %edx
	andl	$3, %edx
	addl	%edx, %eax
	.loc 1 154 0
	ret
	.cfi_endproc
.LFE1609:
	.size	_ZN10PtraceUtil13wordAlignSizeEi, .-_ZN10PtraceUtil13wordAlignSizeEi
	.section	.text.unlikely._ZN10PtraceUtil13wordAlignSizeEi
.LCOLDE15:
	.section	.text._ZN10PtraceUtil13wordAlignSizeEi
.LHOTE15:
	.section	.rodata.str1.1
.LC16:
	.string	"PeekText: %s"
	.section	.text.unlikely._ZN10PtraceUtil8PeekTextEjPj,"ax",@progbits
	.align 2
.LCOLDB17:
	.section	.text._ZN10PtraceUtil8PeekTextEjPj,"ax",@progbits
.LHOTB17:
	.align 2
	.p2align 4,,15
	.globl	_ZN10PtraceUtil8PeekTextEjPj
	.type	_ZN10PtraceUtil8PeekTextEjPj, @function
_ZN10PtraceUtil8PeekTextEjPj:
.LFB1611:
	.loc 1 175 0
	.cfi_startproc
.LVL59:
	pushl	%esi
	.cfi_def_cfa_offset 8
	.cfi_offset 6, -8
	pushl	%ebx
	.cfi_def_cfa_offset 12
	.cfi_offset 3, -12
	call	__x86.get_pc_thunk.bx
	addl	$_GLOBAL_OFFSET_TABLE_, %ebx
	leal	-20(%esp), %esp
	.cfi_def_cfa_offset 32
.LBB414:
	.loc 1 176 0
	call	__errno@PLT
.LVL60:
	movl	$0, (%eax)
	.loc 1 177 0
	movl	36(%esp), %eax
	movl	$0, 12(%esp)
	movl	%eax, 8(%esp)
	movl	32(%esp), %eax
	movl	16(%eax), %eax
	movl	$1, (%esp)
	movl	%eax, 4(%esp)
	call	ptrace@PLT
.LVL61:
	.loc 1 178 0
	cmpl	$-1, %eax
	.loc 1 177 0
	movl	%eax, %esi
.LVL62:
	.loc 1 178 0
	je	.L46
.LVL63:
.L40:
	.loc 1 184 0
	movl	40(%esp), %eax
	movl	%esi, (%eax)
	.loc 1 185 0
	xorl	%eax, %eax
.L41:
.LBE414:
	.loc 1 186 0
	leal	20(%esp), %esp
	.cfi_remember_state
	.cfi_def_cfa_offset 12
	popl	%ebx
	.cfi_restore 3
	.cfi_def_cfa_offset 8
	popl	%esi
	.cfi_restore 6
	.cfi_def_cfa_offset 4
.LVL64:
	ret
.LVL65:
	.p2align 4,,7
	.p2align 3
.L46:
	.cfi_restore_state
.LBB415:
	.loc 1 179 0
	call	__errno@PLT
.LVL66:
	movl	(%eax), %eax
	testl	%eax, %eax
	je	.L40
.LVL67:
.LBE415:
.LBB416:
.LBB417:
	.loc 1 180 0
	call	__errno@PLT
.LVL68:
	movl	(%eax), %eax
	.loc 1 180 0 is_stmt 0 discriminator 1
	movl	%eax, (%esp)
	call	strerror@PLT
.LVL69:
	.loc 1 180 0 discriminator 2
	movl	%eax, 12(%esp)
	leal	.LC16@GOTOFF(%ebx), %eax
	movl	%eax, 8(%esp)
	leal	.LC4@GOTOFF(%ebx), %eax
	movl	$6, (%esp)
	movl	%eax, 4(%esp)
	call	__android_log_print@PLT
.LVL70:
	movl	$-1, %eax
	jmp	.L41
.LBE417:
.LBE416:
	.cfi_endproc
.LFE1611:
	.size	_ZN10PtraceUtil8PeekTextEjPj, .-_ZN10PtraceUtil8PeekTextEjPj
	.section	.text.unlikely._ZN10PtraceUtil8PeekTextEjPj
.LCOLDE17:
	.section	.text._ZN10PtraceUtil8PeekTextEjPj
.LHOTE17:
	.section	.rodata.str1.4,"aMS",@progbits,1
	.align 4
.LC18:
	.string	"ReadProcessMemory %d %08X fail"
	.section	.text.unlikely._ZN10PtraceUtil17ReadProcessMemoryEjPhi,"ax",@progbits
	.align 2
.LCOLDB19:
	.section	.text._ZN10PtraceUtil17ReadProcessMemoryEjPhi,"ax",@progbits
.LHOTB19:
	.align 2
	.p2align 4,,15
	.globl	_ZN10PtraceUtil17ReadProcessMemoryEjPhi
	.type	_ZN10PtraceUtil17ReadProcessMemoryEjPhi, @function
_ZN10PtraceUtil17ReadProcessMemoryEjPhi:
.LFB1608:
	.loc 1 138 0 is_stmt 1
	.cfi_startproc
.LVL71:
	pushl	%ebp
	.cfi_def_cfa_offset 8
	.cfi_offset 5, -8
.LBB426:
.LBB427:
	.loc 1 139 0 discriminator 1
	xorl	%ebp, %ebp
.LBE427:
.LBE426:
	.loc 1 138 0
	pushl	%edi
	.cfi_def_cfa_offset 12
	.cfi_offset 7, -12
	pushl	%esi
	.cfi_def_cfa_offset 16
	.cfi_offset 6, -16
	pushl	%ebx
	.cfi_def_cfa_offset 20
	.cfi_offset 3, -20
	call	__x86.get_pc_thunk.bx
	addl	$_GLOBAL_OFFSET_TABLE_, %ebx
	leal	-76(%esp), %esp
	.cfi_def_cfa_offset 96
	.loc 1 138 0
	movl	104(%esp), %eax
	leal	56(%esp), %edi
	movl	96(%esp), %esi
	movl	%eax, 44(%esp)
	movl	%gs:20, %eax
	movl	%eax, 60(%esp)
	xorl	%eax, %eax
.LVL72:
.LBB431:
.LBB430:
	.loc 1 139 0 discriminator 1
	movl	108(%esp), %eax
	testl	%eax, %eax
	jg	.L54
	jmp	.L51
.LVL73:
	.p2align 4,,7
	.p2align 3
.L50:
.LBB428:
	.loc 1 146 0
	movl	56(%esp), %eax
.LVL74:
	movl	44(%esp), %edx
	movl	%eax, (%edx,%ebp)
	addl	$4, %ebp
.LVL75:
.LBE428:
	.loc 1 139 0 discriminator 1
	cmpl	%ebp, 108(%esp)
	jle	.L51
.LVL76:
.L54:
	movl	100(%esp), %eax
.LBB429:
	.loc 1 141 0
	movl	%edi, 8(%esp)
	movl	%esi, (%esp)
	addl	%ebp, %eax
	movl	%eax, 4(%esp)
	call	_ZN10PtraceUtil8PeekTextEjPj@PLT
.LVL77:
	.loc 1 142 0
	cmpl	$-1, %eax
	jne	.L50
.LVL78:
.LBE429:
.LBE430:
.LBE431:
.LBB432:
.LBB433:
.LBB434:
	.loc 1 143 0
	movl	100(%esp), %eax
.LVL79:
	movl	%eax, 16(%esp)
	movl	16(%esi), %eax
	movl	$6, (%esp)
	movl	%eax, 12(%esp)
	leal	.LC18@GOTOFF(%ebx), %eax
	movl	%eax, 8(%esp)
	leal	.LC4@GOTOFF(%ebx), %eax
	movl	%eax, 4(%esp)
	call	__android_log_print@PLT
.LVL80:
	xorl	%eax, %eax
	jmp	.L49
.LVL81:
	.p2align 4,,7
	.p2align 3
.L51:
.LBE434:
.LBE433:
.LBE432:
.LBB435:
	.loc 1 148 0
	movl	$1, %eax
.L49:
.LBE435:
	.loc 1 149 0
	movl	60(%esp), %ecx
	xorl	%gs:20, %ecx
	jne	.L58
	leal	76(%esp), %esp
	.cfi_remember_state
	.cfi_def_cfa_offset 20
	popl	%ebx
	.cfi_restore 3
	.cfi_def_cfa_offset 16
	popl	%esi
	.cfi_restore 6
	.cfi_def_cfa_offset 12
	popl	%edi
	.cfi_restore 7
	.cfi_def_cfa_offset 8
	popl	%ebp
	.cfi_restore 5
	.cfi_def_cfa_offset 4
	ret
.L58:
	.cfi_restore_state
	call	__stack_chk_fail_local
.LVL82:
	.cfi_endproc
.LFE1608:
	.size	_ZN10PtraceUtil17ReadProcessMemoryEjPhi, .-_ZN10PtraceUtil17ReadProcessMemoryEjPhi
	.section	.text.unlikely._ZN10PtraceUtil17ReadProcessMemoryEjPhi
.LCOLDE19:
	.section	.text._ZN10PtraceUtil17ReadProcessMemoryEjPhi
.LHOTE19:
	.section	.rodata.str1.1
.LC20:
	.string	"PokeText: %s"
	.section	.text.unlikely._ZN10PtraceUtil8PokeTextEjj,"ax",@progbits
	.align 2
.LCOLDB21:
	.section	.text._ZN10PtraceUtil8PokeTextEjj,"ax",@progbits
.LHOTB21:
	.align 2
	.p2align 4,,15
	.globl	_ZN10PtraceUtil8PokeTextEjj
	.type	_ZN10PtraceUtil8PokeTextEjj, @function
_ZN10PtraceUtil8PokeTextEjj:
.LFB1612:
	.loc 1 189 0
	.cfi_startproc
.LVL83:
	pushl	%esi
	.cfi_def_cfa_offset 8
	.cfi_offset 6, -8
	pushl	%ebx
	.cfi_def_cfa_offset 12
	.cfi_offset 3, -12
	call	__x86.get_pc_thunk.bx
	addl	$_GLOBAL_OFFSET_TABLE_, %ebx
	leal	-20(%esp), %esp
	.cfi_def_cfa_offset 32
.LBB440:
	.loc 1 190 0
	call	__errno@PLT
.LVL84:
	movl	$0, (%eax)
	.loc 1 191 0
	movl	40(%esp), %eax
	movl	%eax, 12(%esp)
	movl	36(%esp), %eax
	movl	%eax, 8(%esp)
	movl	32(%esp), %eax
	movl	16(%eax), %eax
	movl	$4, (%esp)
	movl	%eax, 4(%esp)
	call	ptrace@PLT
.LVL85:
	.loc 1 192 0
	cmpl	$-1, %eax
	.loc 1 191 0
	movl	%eax, %esi
.LVL86:
	.loc 1 192 0
	je	.L62
.LVL87:
.L60:
.LBE440:
	.loc 1 197 0
	leal	20(%esp), %esp
	.cfi_remember_state
	.cfi_def_cfa_offset 12
	movl	%esi, %eax
	popl	%ebx
	.cfi_restore 3
	.cfi_def_cfa_offset 8
	popl	%esi
	.cfi_restore 6
	.cfi_def_cfa_offset 4
.LVL88:
	ret
.L62:
	.cfi_restore_state
.LVL89:
.LBB441:
.LBB442:
	.loc 1 193 0
	call	__errno@PLT
.LVL90:
	movl	(%eax), %eax
	.loc 1 193 0 is_stmt 0 discriminator 1
	movl	%eax, (%esp)
	call	strerror@PLT
.LVL91:
	.loc 1 193 0 discriminator 2
	movl	%eax, 12(%esp)
	leal	.LC20@GOTOFF(%ebx), %eax
	movl	%eax, 8(%esp)
	leal	.LC4@GOTOFF(%ebx), %eax
	movl	$6, (%esp)
	movl	%eax, 4(%esp)
	call	__android_log_print@PLT
.LVL92:
	jmp	.L60
.LBE442:
.LBE441:
	.cfi_endproc
.LFE1612:
	.size	_ZN10PtraceUtil8PokeTextEjj, .-_ZN10PtraceUtil8PokeTextEjj
	.section	.text.unlikely._ZN10PtraceUtil8PokeTextEjj
.LCOLDE21:
	.section	.text._ZN10PtraceUtil8PokeTextEjj
.LHOTE21:
	.section	.text.unlikely._ZN10PtraceUtil18WriteProcessMemoryEjPhi,"ax",@progbits
	.align 2
.LCOLDB22:
	.section	.text._ZN10PtraceUtil18WriteProcessMemoryEjPhi,"ax",@progbits
.LHOTB22:
	.align 2
	.p2align 4,,15
	.globl	_ZN10PtraceUtil18WriteProcessMemoryEjPhi
	.type	_ZN10PtraceUtil18WriteProcessMemoryEjPhi, @function
_ZN10PtraceUtil18WriteProcessMemoryEjPhi:
.LFB1610:
	.loc 1 156 0 is_stmt 1
	.cfi_startproc
.LVL93:
	pushl	%ebp
	.cfi_def_cfa_offset 8
	.cfi_offset 5, -8
	pushl	%edi
	.cfi_def_cfa_offset 12
	.cfi_offset 7, -12
	pushl	%esi
	.cfi_def_cfa_offset 16
	.cfi_offset 6, -16
	pushl	%ebx
	.cfi_def_cfa_offset 20
	.cfi_offset 3, -20
	call	__x86.get_pc_thunk.bx
	addl	$_GLOBAL_OFFSET_TABLE_, %ebx
	leal	-44(%esp), %esp
	.cfi_def_cfa_offset 64
	.loc 1 156 0
	movl	76(%esp), %edx
.LBB443:
	.loc 1 158 0
	movl	64(%esp), %eax
	movl	%edx, 4(%esp)
	movl	%eax, (%esp)
	movl	%edx, 28(%esp)
	call	_ZN10PtraceUtil13wordAlignSizeEi@PLT
.LVL94:
	.loc 1 160 0
	movl	%eax, (%esp)
	movl	$1, 4(%esp)
	.loc 1 158 0
	movl	%eax, 24(%esp)
.LVL95:
	.loc 1 160 0
	call	calloc@PLT
.LVL96:
	.loc 1 161 0
	movl	28(%esp), %edx
	.loc 1 160 0
	movl	%eax, %ebp
.LVL97:
	.loc 1 161 0
	movl	72(%esp), %esi
	movl	%eax, %edi
	cmpl	$4, %edx
	jb	.L64
	movl	%edx, %ecx
	shrl	$2, %ecx
	rep movsl
.L64:
	xorl	%ecx, %ecx
	testb	$2, %dl
	je	.L65
	movzwl	(%esi), %eax
.LVL98:
	movb	$2, %cl
	movw	%ax, (%edi)
.LVL99:
.L65:
	andl	$1, %edx
	je	.L66
	movzbl	(%esi,%ecx), %eax
	movb	%al, (%edi,%ecx)
.L66:
.LVL100:
.LBB444:
	.loc 1 163 0 discriminator 1
	movl	24(%esp), %eax
	xorl	%esi, %esi
	movl	64(%esp), %edi
	testl	%eax, %eax
	jne	.L76
	jmp	.L70
.LVL101:
	.p2align 4,,7
	.p2align 3
.L69:
	addl	$4, %esi
.LVL102:
	cmpl	%esi, 24(%esp)
	jbe	.L70
.LVL103:
.L76:
	.loc 1 164 0
	movl	0(%ebp,%esi), %eax
	movl	%edi, (%esp)
	movl	%eax, 8(%esp)
	movl	68(%esp), %eax
	addl	%esi, %eax
	movl	%eax, 4(%esp)
	call	_ZN10PtraceUtil8PokeTextEjj@PLT
.LVL104:
	.loc 1 165 0
	cmpl	$-1, %eax
	jne	.L69
	.loc 1 166 0
	movl	%ebp, (%esp)
	call	free@PLT
.LVL105:
.LBE444:
.LBE443:
	.loc 1 172 0
	leal	44(%esp), %esp
	.cfi_remember_state
	.cfi_def_cfa_offset 20
.LBB446:
.LBB445:
	.loc 1 167 0
	xorl	%eax, %eax
.LBE445:
.LBE446:
	.loc 1 172 0
	popl	%ebx
	.cfi_restore 3
	.cfi_def_cfa_offset 16
	popl	%esi
	.cfi_restore 6
	.cfi_def_cfa_offset 12
	popl	%edi
	.cfi_restore 7
	.cfi_def_cfa_offset 8
	popl	%ebp
	.cfi_restore 5
	.cfi_def_cfa_offset 4
.LVL106:
	ret
.LVL107:
	.p2align 4,,7
	.p2align 3
.L70:
	.cfi_restore_state
.LBB447:
	.loc 1 170 0
	movl	%ebp, (%esp)
	call	free@PLT
.LVL108:
.LBE447:
	.loc 1 172 0
	leal	44(%esp), %esp
	.cfi_def_cfa_offset 20
.LBB448:
	.loc 1 171 0
	movl	$1, %eax
.LBE448:
	.loc 1 172 0
	popl	%ebx
	.cfi_restore 3
	.cfi_def_cfa_offset 16
	popl	%esi
	.cfi_restore 6
	.cfi_def_cfa_offset 12
	popl	%edi
	.cfi_restore 7
	.cfi_def_cfa_offset 8
	popl	%ebp
	.cfi_restore 5
	.cfi_def_cfa_offset 4
.LVL109:
	ret
	.cfi_endproc
.LFE1610:
	.size	_ZN10PtraceUtil18WriteProcessMemoryEjPhi, .-_ZN10PtraceUtil18WriteProcessMemoryEjPhi
	.section	.text.unlikely._ZN10PtraceUtil18WriteProcessMemoryEjPhi
.LCOLDE22:
	.section	.text._ZN10PtraceUtil18WriteProcessMemoryEjPhi
.LHOTE22:
	.section	.rodata.str1.1
.LC23:
	.string	"RestoreMemory %08X"
.LC24:
	.string	"RestoreMemory done"
	.section	.rodata.str1.4
	.align 4
.LC25:
	.string	"RestoreMemory of %08X not found"
	.section	.text.unlikely._ZN10PtraceUtil13RestoreMemoryEj,"ax",@progbits
	.align 2
.LCOLDB26:
	.section	.text._ZN10PtraceUtil13RestoreMemoryEj,"ax",@progbits
.LHOTB26:
	.align 2
	.p2align 4,,15
	.globl	_ZN10PtraceUtil13RestoreMemoryEj
	.type	_ZN10PtraceUtil13RestoreMemoryEj, @function
_ZN10PtraceUtil13RestoreMemoryEj:
.LFB1607:
	.loc 1 122 0
	.cfi_startproc
.LVL110:
	pushl	%ebp
	.cfi_def_cfa_offset 8
	.cfi_offset 5, -8
	pushl	%edi
	.cfi_def_cfa_offset 12
	.cfi_offset 7, -12
	pushl	%esi
	.cfi_def_cfa_offset 16
	.cfi_offset 6, -16
	pushl	%ebx
	.cfi_def_cfa_offset 20
	.cfi_offset 3, -20
	call	__x86.get_pc_thunk.bx
	addl	$_GLOBAL_OFFSET_TABLE_, %ebx
	leal	-28(%esp), %esp
	.cfi_def_cfa_offset 48
.LBB449:
	.loc 1 123 0
	leal	.LC23@GOTOFF(%ebx), %eax
.LBE449:
	.loc 1 122 0
	movl	52(%esp), %esi
.LBB450:
	.loc 1 123 0
	leal	.LC4@GOTOFF(%ebx), %edi
.LBE450:
	.loc 1 122 0
	movl	48(%esp), %ebp
.LBB451:
	.loc 1 123 0
	movl	%eax, 8(%esp)
	movl	%esi, 12(%esp)
	movl	$3, (%esp)
	movl	%edi, 4(%esp)
	call	__android_log_print@PLT
.LVL111:
	.loc 1 126 0
	movl	%esi, 4(%esp)
	movl	%ebp, (%esp)
	call	_ZN10PtraceUtil16FindBackupMemoryEj@PLT
.LVL112:
	.loc 1 127 0
	testl	%eax, %eax
	je	.L83
	.loc 1 128 0
	movl	1028(%eax), %edx
	addl	$4, %eax
.LVL113:
	movl	%esi, 4(%esp)
	movl	%ebp, (%esp)
	movl	%edx, 12(%esp)
	movl	%eax, 8(%esp)
	call	_ZN10PtraceUtil18WriteProcessMemoryEjPhi@PLT
.LVL114:
	.loc 1 131 0
	movl	%edi, 4(%esp)
	leal	.LC24@GOTOFF(%ebx), %eax
	movl	$3, (%esp)
	movl	%eax, 8(%esp)
	call	__android_log_print@PLT
.LVL115:
.LBE451:
	.loc 1 136 0
	leal	28(%esp), %esp
	.cfi_remember_state
	.cfi_def_cfa_offset 20
.LBB452:
	.loc 1 132 0
	movl	$1, %eax
.LBE452:
	.loc 1 136 0
	popl	%ebx
	.cfi_restore 3
	.cfi_def_cfa_offset 16
	popl	%esi
	.cfi_restore 6
	.cfi_def_cfa_offset 12
	popl	%edi
	.cfi_restore 7
	.cfi_def_cfa_offset 8
	popl	%ebp
	.cfi_restore 5
	.cfi_def_cfa_offset 4
	ret
.LVL116:
	.p2align 4,,7
	.p2align 3
.L83:
	.cfi_restore_state
.LBB453:
	.loc 1 134 0
	movl	%esi, 12(%esp)
	leal	.LC25@GOTOFF(%ebx), %eax
.LVL117:
	movl	%edi, 4(%esp)
	movl	$6, (%esp)
	movl	%eax, 8(%esp)
	call	__android_log_print@PLT
.LVL118:
.LBE453:
	.loc 1 136 0
	leal	28(%esp), %esp
	.cfi_def_cfa_offset 20
.LBB454:
	.loc 1 135 0
	xorl	%eax, %eax
.LBE454:
	.loc 1 136 0
	popl	%ebx
	.cfi_restore 3
	.cfi_def_cfa_offset 16
	popl	%esi
	.cfi_restore 6
	.cfi_def_cfa_offset 12
	popl	%edi
	.cfi_restore 7
	.cfi_def_cfa_offset 8
	popl	%ebp
	.cfi_restore 5
	.cfi_def_cfa_offset 4
	ret
	.cfi_endproc
.LFE1607:
	.size	_ZN10PtraceUtil13RestoreMemoryEj, .-_ZN10PtraceUtil13RestoreMemoryEj
	.section	.text.unlikely._ZN10PtraceUtil13RestoreMemoryEj
.LCOLDE26:
	.section	.text._ZN10PtraceUtil13RestoreMemoryEj
.LHOTE26:
	.section	.text.unlikely._ZN10PtraceUtil7DumpHexEji,"ax",@progbits
	.align 2
.LCOLDB27:
	.section	.text._ZN10PtraceUtil7DumpHexEji,"ax",@progbits
.LHOTB27:
	.align 2
	.p2align 4,,15
	.globl	_ZN10PtraceUtil7DumpHexEji
	.type	_ZN10PtraceUtil7DumpHexEji, @function
_ZN10PtraceUtil7DumpHexEji:
.LFB1613:
	.loc 1 200 0
	.cfi_startproc
.LVL119:
	pushl	%ebp
	.cfi_def_cfa_offset 8
	.cfi_offset 5, -8
	pushl	%edi
	.cfi_def_cfa_offset 12
	.cfi_offset 7, -12
	pushl	%esi
	.cfi_def_cfa_offset 16
	.cfi_offset 6, -16
	pushl	%ebx
	.cfi_def_cfa_offset 20
	.cfi_offset 3, -20
	call	__x86.get_pc_thunk.bx
	addl	$_GLOBAL_OFFSET_TABLE_, %ebx
	leal	-28(%esp), %esp
	.cfi_def_cfa_offset 48
	.loc 1 200 0
	movl	56(%esp), %edi
	movl	48(%esp), %ebp
.LBB455:
	.loc 1 201 0
	movl	%edi, (%esp)
	call	malloc@PLT
.LVL120:
	.loc 1 202 0
	movl	%eax, 8(%esp)
	.loc 1 201 0
	movl	%eax, %esi
.LVL121:
	.loc 1 202 0
	movl	52(%esp), %eax
.LVL122:
	movl	%edi, 12(%esp)
	movl	%ebp, (%esp)
	movl	%eax, 4(%esp)
	call	_ZN10PtraceUtil17ReadProcessMemoryEjPhi@PLT
.LVL123:
	testb	%al, %al
	je	.L87
	.loc 1 203 0
	movl	%edi, 8(%esp)
	addl	$4, %ebp
	movl	%esi, 4(%esp)
	movl	%ebp, (%esp)
	call	_ZN6Logger6logHexEPhi@PLT
.LVL124:
.L87:
	.loc 1 205 0
	movl	%esi, (%esp)
	call	free@PLT
.LVL125:
.LBE455:
	.loc 1 206 0
	leal	28(%esp), %esp
	.cfi_def_cfa_offset 20
	popl	%ebx
	.cfi_restore 3
	.cfi_def_cfa_offset 16
	popl	%esi
	.cfi_restore 6
	.cfi_def_cfa_offset 12
.LVL126:
	popl	%edi
	.cfi_restore 7
	.cfi_def_cfa_offset 8
	popl	%ebp
	.cfi_restore 5
	.cfi_def_cfa_offset 4
	ret
	.cfi_endproc
.LFE1613:
	.size	_ZN10PtraceUtil7DumpHexEji, .-_ZN10PtraceUtil7DumpHexEji
	.section	.text.unlikely._ZN10PtraceUtil7DumpHexEji
.LCOLDE27:
	.section	.text._ZN10PtraceUtil7DumpHexEji
.LHOTE27:
	.section	.rodata.str1.1
.LC28:
	.string	"waitForStop %d"
	.section	.rodata.str1.4
	.align 4
.LC29:
	.string	"waitForStop pid=%d ret=%d status=%08X\n"
	.section	.rodata.str1.1
.LC30:
	.string	"WIFSTOPPED"
.LC31:
	.string	"WSTOPSIG"
.LC32:
	.string	"WTERMSIG"
.LC33:
	.string	"WIFSIGNALED"
.LC34:
	.string	"WIFEXITED"
	.section	.text.unlikely._ZN10PtraceUtil11waitForStopEv,"ax",@progbits
	.align 2
.LCOLDB35:
	.section	.text._ZN10PtraceUtil11waitForStopEv,"ax",@progbits
.LHOTB35:
	.align 2
	.p2align 4,,15
	.globl	_ZN10PtraceUtil11waitForStopEv
	.type	_ZN10PtraceUtil11waitForStopEv, @function
_ZN10PtraceUtil11waitForStopEv:
.LFB1614:
	.loc 1 209 0
	.cfi_startproc
.LVL127:
	pushl	%ebp
	.cfi_def_cfa_offset 8
	.cfi_offset 5, -8
	pushl	%edi
	.cfi_def_cfa_offset 12
	.cfi_offset 7, -12
	pushl	%esi
	.cfi_def_cfa_offset 16
	.cfi_offset 6, -16
	pushl	%ebx
	.cfi_def_cfa_offset 20
	.cfi_offset 3, -20
	call	__x86.get_pc_thunk.bx
	addl	$_GLOBAL_OFFSET_TABLE_, %ebx
	leal	-76(%esp), %esp
	.cfi_def_cfa_offset 96
.LBB456:
	.loc 1 210 0
	leal	.LC4@GOTOFF(%ebx), %edi
.LBE456:
	.loc 1 209 0
	movl	96(%esp), %esi
	leal	56(%esp), %ebp
	movl	%gs:20, %eax
	movl	%eax, 60(%esp)
	xorl	%eax, %eax
.LBB459:
	.loc 1 210 0
	movl	16(%esi), %eax
	movl	%edi, 4(%esp)
	movl	$3, (%esp)
	movl	%eax, 12(%esp)
	leal	.LC28@GOTOFF(%ebx), %eax
	movl	%eax, 8(%esp)
	call	__android_log_print@PLT
.LVL128:
	leal	.LC29@GOTOFF(%ebx), %eax
	movl	%eax, 40(%esp)
.LBB457:
	.loc 1 232 0
	leal	.LC33@GOTOFF(%ebx), %eax
	movl	%eax, 44(%esp)
	.p2align 5,,30
	.p2align 3
.L99:
	.loc 1 213 0
	movl	$1073741824, 8(%esp)
	movl	%ebp, 4(%esp)
	movl	16(%esi), %eax
	.loc 1 212 0
	movl	$0, 56(%esp)
	.loc 1 213 0
	movl	%eax, (%esp)
	call	waitpid@PLT
.LVL129:
	.loc 1 214 0
	movl	56(%esp), %edx
	movl	%eax, 16(%esp)
	movl	%edx, 20(%esp)
	movl	16(%esi), %eax
.LVL130:
	movl	%edi, 4(%esp)
	movl	$3, (%esp)
	movl	%eax, 12(%esp)
	movl	40(%esp), %eax
	movl	%eax, 8(%esp)
	call	__android_log_print@PLT
.LVL131:
	.loc 1 215 0
	movl	56(%esp), %eax
	movl	%eax, %edx
	andl	$127, %edx
	cmpl	$127, %edx
	je	.L102
	.loc 1 223 0
	movzbl	%ah, %ecx
	testl	%ecx, %ecx
	jne	.L103
	.loc 1 227 0
	testl	%edx, %edx
	jne	.L104
	.loc 1 231 0
	addl	$1, %eax
	andl	$127, %eax
	cmpl	$1, %eax
	jg	.L105
	.loc 1 240 0
	movl	%edi, 4(%esp)
	leal	.LC34@GOTOFF(%ebx), %eax
	movl	$3, (%esp)
	movl	%eax, 8(%esp)
	call	__android_log_print@PLT
.LVL132:
	.loc 1 241 0
	movl	$-1, %eax
	.p2align 4,,15
.L94:
.LBE457:
.LBE459:
	.loc 1 245 0
	movl	60(%esp), %ecx
	xorl	%gs:20, %ecx
	jne	.L106
	leal	76(%esp), %esp
	.cfi_remember_state
	.cfi_def_cfa_offset 20
	popl	%ebx
	.cfi_restore 3
	.cfi_def_cfa_offset 16
	popl	%esi
	.cfi_restore 6
	.cfi_def_cfa_offset 12
	popl	%edi
	.cfi_restore 7
	.cfi_def_cfa_offset 8
	popl	%ebp
	.cfi_restore 5
	.cfi_def_cfa_offset 4
	ret
	.p2align 4,,7
	.p2align 3
.L103:
	.cfi_restore_state
.LBB460:
.LBB458:
	.loc 1 224 0
	movl	%edi, 4(%esp)
	leal	.LC31@GOTOFF(%ebx), %eax
	movl	$3, (%esp)
	movl	%eax, 8(%esp)
	call	__android_log_print@PLT
.LVL133:
	.loc 1 225 0
	jmp	.L99
	.p2align 4,,7
	.p2align 3
.L105:
	.loc 1 232 0
	movl	44(%esp), %eax
	movl	%edi, 4(%esp)
	movl	$3, (%esp)
	movl	%eax, 8(%esp)
	call	__android_log_print@PLT
.LVL134:
	.loc 1 233 0
	jmp	.L99
	.p2align 4,,7
	.p2align 3
.L104:
	.loc 1 228 0
	movl	%edi, 4(%esp)
	leal	.LC32@GOTOFF(%ebx), %eax
	movl	$3, (%esp)
	movl	%eax, 8(%esp)
	call	__android_log_print@PLT
.LVL135:
	.loc 1 229 0
	jmp	.L99
	.p2align 4,,7
	.p2align 3
.L102:
	.loc 1 216 0
	movl	%edi, 4(%esp)
	leal	.LC30@GOTOFF(%ebx), %eax
	movl	$3, (%esp)
	movl	%eax, 8(%esp)
	call	__android_log_print@PLT
.LVL136:
.LBE458:
	.loc 1 244 0
	xorl	%eax, %eax
	jmp	.L94
.L106:
.LBE460:
	.loc 1 245 0
	call	__stack_chk_fail_local
.LVL137:
	.cfi_endproc
.LFE1614:
	.size	_ZN10PtraceUtil11waitForStopEv, .-_ZN10PtraceUtil11waitForStopEv
	.section	.text.unlikely._ZN10PtraceUtil11waitForStopEv
.LCOLDE35:
	.section	.text._ZN10PtraceUtil11waitForStopEv
.LHOTE35:
	.section	.rodata.str1.1
.LC36:
	.string	"vector"
	.section	.text.unlikely._ZNSt6vectorI12MemoryBackupSaIS0_EE22_M_insert_overflow_auxEPS0_RKS0_RKSt12__false_typejb,"axG",@progbits,_ZNSt6vectorI12MemoryBackupSaIS0_EE22_M_insert_overflow_auxEPS0_RKS0_RKSt12__false_typejb,comdat
	.align 2
.LCOLDB37:
	.section	.text._ZNSt6vectorI12MemoryBackupSaIS0_EE22_M_insert_overflow_auxEPS0_RKS0_RKSt12__false_typejb,"axG",@progbits,_ZNSt6vectorI12MemoryBackupSaIS0_EE22_M_insert_overflow_auxEPS0_RKS0_RKSt12__false_typejb,comdat
.LHOTB37:
	.align 2
	.p2align 4,,15
	.weak	_ZNSt6vectorI12MemoryBackupSaIS0_EE22_M_insert_overflow_auxEPS0_RKS0_RKSt12__false_typejb
	.type	_ZNSt6vectorI12MemoryBackupSaIS0_EE22_M_insert_overflow_auxEPS0_RKS0_RKSt12__false_typejb, @function
_ZNSt6vectorI12MemoryBackupSaIS0_EE22_M_insert_overflow_auxEPS0_RKS0_RKSt12__false_typejb:
.LFB1803:
	.file 5 "D:/android-ndk-r12b/build//../sources/cxx-stl/stlport/stlport/stl/_vector.c"
	.loc 5 81 0
	.cfi_startproc
.LVL138:
	pushl	%ebp
	.cfi_def_cfa_offset 8
	.cfi_offset 5, -8
.LBB536:
.LBB537:
.LBB538:
	.loc 2 173 0
	movl	$4161790, %edx
.LBE538:
.LBE537:
.LBE536:
	.loc 5 81 0
	pushl	%edi
	.cfi_def_cfa_offset 12
	.cfi_offset 7, -12
	pushl	%esi
	.cfi_def_cfa_offset 16
	.cfi_offset 6, -16
	pushl	%ebx
	.cfi_def_cfa_offset 20
	.cfi_offset 3, -20
	call	__x86.get_pc_thunk.bx
	addl	$_GLOBAL_OFFSET_TABLE_, %ebx
	leal	-44(%esp), %esp
	.cfi_def_cfa_offset 64
.LVL139:
	.loc 5 81 0
	movl	84(%esp), %eax
	movl	%eax, 20(%esp)
	movl	64(%esp), %eax
	movl	(%eax), %ecx
.LVL140:
.LBB616:
.LBB546:
.LBB543:
.LBB539:
.LBB540:
	.loc 2 192 0
	movl	4(%eax), %eax
	movl	%eax, 24(%esp)
	subl	%ecx, %eax
	sarl	$3, %eax
	imull	$266354561, %eax, %eax
.LVL141:
.LBE540:
.LBE539:
	.loc 2 173 0
	subl	%eax, %edx
	cmpl	%edx, 80(%esp)
	ja	.L148
.LVL142:
	cmpl	80(%esp), %eax
	movl	%eax, %edx
	movl	80(%esp), %esi
	cmovb	%esi, %edx
	.loc 2 175 0
	addl	%eax, %edx
.LVL143:
	.loc 2 176 0 discriminator 2
	cmpl	$4161790, %edx
	ja	.L125
	cmpl	%edx, %eax
	ja	.L125
.LVL144:
.LBE543:
.LBE546:
.LBB547:
.LBB548:
.LBB549:
.LBB550:
.LBB551:
.LBB552:
	.loc 3 346 0
	testl	%edx, %edx
	je	.L126
	movl	%edx, %eax
.LVL145:
	sall	$10, %eax
	leal	(%eax,%edx,8), %ecx
.LVL146:
	movl	$266354561, %edx
.LVL147:
	movl	%ecx, %eax
	mull	%edx
	shrl	$6, %edx
	movl	%edx, %eax
	sall	$10, %eax
	leal	(%eax,%edx,8), %esi
.LVL148:
.L109:
.LBB553:
.LBB554:
.LBB555:
.LBB556:
	.loc 4 134 0
	movl	%ecx, (%esp)
.LVL149:
	call	_Znwj@PLT
.LVL150:
	movl	%eax, 24(%esp)
	addl	%eax, %esi
	movl	64(%esp), %eax
	movl	%esi, 28(%esp)
	movl	(%eax), %ecx
	movl	%ecx, %ebp
.LVL151:
.L110:
.LBE556:
.LBE555:
.LBE554:
.LBE553:
.LBE552:
.LBE551:
.LBE550:
.LBE549:
.LBE548:
.LBE547:
.LBB562:
.LBB563:
.LBB564:
.LBB565:
.LBB566:
	.file 6 "D:/android-ndk-r12b/build//../sources/cxx-stl/stlport/stlport/stl/_uninitialized.h"
	.loc 6 86 0
	movl	68(%esp), %eax
	subl	%ecx, %eax
	movl	%eax, %esi
	sarl	$3, %esi
	imull	$266354561, %esi, %ecx
.LVL152:
	.loc 6 86 0 is_stmt 0 discriminator 1
	testl	%ecx, %ecx
	jle	.L127
	movl	24(%esp), %edi
	leal	(%edi,%eax), %edx
	movl	%edi, %eax
.LVL153:
	.p2align 5,,30
	.p2align 3
.L113:
.LBB567:
.LBB568:
.LBB569:
	.file 7 "D:/android-ndk-r12b/build//../sources/cxx-stl/stlport/stlport/stl/_construct.h"
	.loc 7 139 0 is_stmt 1
	testl	%eax, %eax
	je	.L112
	.loc 7 139 0 is_stmt 0 discriminator 1
	movl	%eax, %edi
	movl	%ebp, %esi
	movl	$258, %ecx
	rep movsl
.L112:
.LBE569:
.LBE568:
.LBE567:
	.loc 6 89 0 is_stmt 1
	addl	$1032, %eax
.LVL154:
	.loc 6 88 0
	addl	$1032, %ebp
.LVL155:
	.loc 6 86 0 discriminator 1
	cmpl	%edx, %eax
	jne	.L113
.LVL156:
.L111:
.LBE566:
.LBE565:
.LBE564:
.LBE563:
.LBE562:
	.loc 5 93 0
	cmpl	$1, 80(%esp)
	je	.L149
.LVL157:
.LBB573:
.LBB574:
	.loc 6 314 0
	movl	80(%esp), %eax
	movl	80(%esp), %esi
	sall	$10, %eax
	leal	(%eax,%esi,8), %eax
	leal	(%edx,%eax), %ebp
.LVL158:
.LBB575:
.LBB576:
.LBB577:
	.loc 6 249 0
	sarl	$3, %eax
	imull	$266354561, %eax, %eax
.LVL159:
	.loc 6 249 0 is_stmt 0 discriminator 1
	testl	%eax, %eax
	jle	.L116
.LBB578:
.LBB579:
.LBB580:
	.loc 7 139 0 is_stmt 1 discriminator 1
	movl	$258, %eax
.LVL160:
	.p2align 5,,30
	.p2align 3
.L118:
	.loc 7 139 0 is_stmt 0
	testl	%edx, %edx
	je	.L117
	.loc 7 139 0 discriminator 1
	movl	72(%esp), %esi
	movl	%edx, %edi
	movl	%eax, %ecx
	rep movsl
.L117:
.LBE580:
.LBE579:
.LBE578:
	.loc 6 249 0 is_stmt 1 discriminator 3
	addl	$1032, %edx
.LVL161:
	.loc 6 249 0 is_stmt 0 discriminator 1
	cmpl	%ebp, %edx
	jne	.L118
.LVL162:
.L116:
.LBE577:
.LBE576:
.LBE575:
.LBE574:
.LBE573:
	.loc 5 98 0 is_stmt 1
	cmpb	$0, 20(%esp)
	je	.L150
.LVL163:
.L119:
	movl	64(%esp), %eax
	movl	(%eax), %edx
.LVL164:
.LBB581:
.LBB582:
	.loc 2 662 0
	movl	8(%eax), %eax
	movl	%eax, 20(%esp)
	subl	%edx, %eax
.LVL165:
.LBB583:
.LBB584:
	.loc 3 319 0
	testl	%edx, %edx
	je	.L123
.LVL166:
.LBB585:
.LBB586:
	.loc 3 161 0
	cmpl	$128, %eax
	ja	.L151
	.loc 3 161 0 is_stmt 0 discriminator 4
	movl	%eax, 4(%esp)
.LVL167:
	movl	%edx, (%esp)
	call	_ZNSt12__node_alloc13_M_deallocateEPvj@PLT
.LVL168:
.L123:
.LBE586:
.LBE585:
.LBE584:
.LBE583:
.LBE582:
.LBE581:
.LBB594:
.LBB595:
	.loc 2 666 0 is_stmt 1
	movl	64(%esp), %eax
	movl	24(%esp), %esi
	.loc 2 668 0
	movl	28(%esp), %ecx
	.loc 2 667 0
	movl	%ebp, 4(%eax)
	.loc 2 666 0
	movl	%esi, (%eax)
	.loc 2 668 0
	movl	%ecx, 8(%eax)
.LBE595:
.LBE594:
.LBE616:
	.loc 5 105 0
	leal	44(%esp), %esp
	.cfi_remember_state
	.cfi_def_cfa_offset 20
	popl	%ebx
	.cfi_restore 3
	.cfi_def_cfa_offset 16
	popl	%esi
	.cfi_restore 6
	.cfi_def_cfa_offset 12
	popl	%edi
	.cfi_restore 7
	.cfi_def_cfa_offset 8
	popl	%ebp
	.cfi_restore 5
	.cfi_def_cfa_offset 4
.LVL169:
	ret
.LVL170:
	.p2align 4,,7
	.p2align 3
.L125:
	.cfi_restore_state
.LBB617:
.LBB596:
.LBB544:
	.loc 2 176 0 discriminator 2
	movl	$-16, %esi
.LVL171:
	movl	$-16, %ecx
	jmp	.L109
.LVL172:
	.p2align 4,,7
	.p2align 3
.L149:
.LBE544:
.LBE596:
.LBB597:
.LBB598:
.LBB599:
	.loc 7 119 0
	testl	%edx, %edx
	je	.L115
	.loc 7 119 0 is_stmt 0 discriminator 1
	movl	72(%esp), %esi
	movl	$258, %ecx
	movl	%edx, %edi
	rep movsl
.L115:
.LBE599:
.LBE598:
.LBE597:
	.loc 5 98 0 is_stmt 1
	cmpb	$0, 20(%esp)
	.loc 5 95 0
	leal	1032(%edx), %ebp
.LVL173:
	.loc 5 98 0
	jne	.L119
.LVL174:
.L150:
.LBB600:
.LBB601:
.LBB602:
.LBB603:
.LBB604:
	.loc 6 86 0
	movl	64(%esp), %eax
	movl	4(%eax), %eax
	movl	%eax, 20(%esp)
	movl	%eax, %edx
	subl	68(%esp), %edx
	movl	%edx, %eax
	sarl	$3, %eax
	imull	$266354561, %eax, %eax
.LVL175:
	.loc 6 86 0 is_stmt 0 discriminator 1
	testl	%eax, %eax
	jle	.L128
	addl	%ebp, %edx
.LBB605:
.LBB606:
.LBB607:
	.loc 7 139 0 is_stmt 1 discriminator 1
	movl	$258, %eax
.LVL176:
	movl	%edx, 20(%esp)
.LVL177:
	movl	68(%esp), %edx
.LVL178:
	.p2align 5,,30
	.p2align 3
.L122:
	.loc 7 139 0 is_stmt 0
	testl	%ebp, %ebp
	je	.L121
	.loc 7 139 0 discriminator 1
	movl	%ebp, %edi
	movl	%edx, %esi
	movl	%eax, %ecx
	rep movsl
.L121:
.LBE607:
.LBE606:
.LBE605:
	.loc 6 89 0 is_stmt 1
	addl	$1032, %ebp
.LVL179:
	.loc 6 88 0
	addl	$1032, %edx
.LVL180:
	.loc 6 86 0 discriminator 1
	cmpl	20(%esp), %ebp
	jne	.L122
	movl	20(%esp), %edx
.LVL181:
.LBE604:
.LBE603:
.LBE602:
.LBE601:
.LBE600:
	.loc 5 99 0
	movl	%edx, %ebp
.LVL182:
	jmp	.L119
.LVL183:
	.p2align 4,,7
	.p2align 3
.L151:
.LBB611:
.LBB593:
.LBB592:
.LBB591:
.LBB590:
.LBB589:
.LBB587:
.LBB588:
	.loc 4 135 0
	movl	%edx, (%esp)
.LVL184:
	call	_ZdlPv@PLT
.LVL185:
	jmp	.L123
.LVL186:
.L126:
.LBE588:
.LBE587:
.LBE589:
.LBE590:
.LBE591:
.LBE592:
.LBE593:
.LBE611:
.LBB612:
.LBB561:
.LBB560:
.LBB559:
.LBB558:
.LBB557:
	.loc 3 346 0
	movl	$0, 28(%esp)
	movl	%ecx, %ebp
.LBE557:
	.loc 3 356 0
	movl	$0, 24(%esp)
	jmp	.L110
.LVL187:
.L127:
.LBE558:
.LBE559:
.LBE560:
.LBE561:
.LBE612:
.LBB613:
.LBB572:
.LBB571:
.LBB570:
	.loc 6 84 0
	movl	24(%esp), %edx
	jmp	.L111
.LVL188:
.L128:
.LBE570:
.LBE571:
.LBE572:
.LBE613:
.LBB614:
.LBB610:
.LBB609:
.LBB608:
	movl	%ebp, %edx
.LVL189:
.LBE608:
.LBE609:
.LBE610:
.LBE614:
	.loc 5 99 0
	movl	%edx, %ebp
.LVL190:
	jmp	.L119
.LVL191:
.L148:
.LBB615:
.LBB545:
.LBB541:
.LBB542:
	.loc 5 41 0
	leal	.LC36@GOTOFF(%ebx), %eax
.LVL192:
	movl	%eax, (%esp)
.LVL193:
	call	_ZSt24__stl_throw_length_errorPKc@PLT
.LVL194:
.LBE542:
.LBE541:
.LBE545:
.LBE615:
.LBE617:
	.cfi_endproc
.LFE1803:
	.size	_ZNSt6vectorI12MemoryBackupSaIS0_EE22_M_insert_overflow_auxEPS0_RKS0_RKSt12__false_typejb, .-_ZNSt6vectorI12MemoryBackupSaIS0_EE22_M_insert_overflow_auxEPS0_RKS0_RKSt12__false_typejb
	.section	.text.unlikely._ZNSt6vectorI12MemoryBackupSaIS0_EE22_M_insert_overflow_auxEPS0_RKS0_RKSt12__false_typejb,"axG",@progbits,_ZNSt6vectorI12MemoryBackupSaIS0_EE22_M_insert_overflow_auxEPS0_RKS0_RKSt12__false_typejb,comdat
.LCOLDE37:
	.section	.text._ZNSt6vectorI12MemoryBackupSaIS0_EE22_M_insert_overflow_auxEPS0_RKS0_RKSt12__false_typejb,"axG",@progbits,_ZNSt6vectorI12MemoryBackupSaIS0_EE22_M_insert_overflow_auxEPS0_RKS0_RKSt12__false_typejb,comdat
.LHOTE37:
	.section	.rodata.str1.1
.LC38:
	.string	"BackupMemory %08X %d"
	.section	.rodata.str1.4
	.align 4
.LC39:
	.string	"BackupMemory size %d > maxsize(%d)"
	.section	.rodata.str1.1
.LC40:
	.string	"BackupMemory create new"
.LC41:
	.string	"BackupMemory reused"
.LC42:
	.string	"BackupMemory done"
	.section	.text.unlikely._ZN10PtraceUtil12BackupMemoryEji,"ax",@progbits
	.align 2
.LCOLDB43:
	.section	.text._ZN10PtraceUtil12BackupMemoryEji,"ax",@progbits
.LHOTB43:
	.align 2
	.p2align 4,,15
	.globl	_ZN10PtraceUtil12BackupMemoryEji
	.type	_ZN10PtraceUtil12BackupMemoryEji, @function
_ZN10PtraceUtil12BackupMemoryEji:
.LFB1606:
	.loc 1 94 0
	.cfi_startproc
.LVL195:
	pushl	%ebp
	.cfi_def_cfa_offset 8
	.cfi_offset 5, -8
	pushl	%edi
	.cfi_def_cfa_offset 12
	.cfi_offset 7, -12
	pushl	%esi
	.cfi_def_cfa_offset 16
	.cfi_offset 6, -16
	pushl	%ebx
	.cfi_def_cfa_offset 20
	.cfi_offset 3, -20
	call	__x86.get_pc_thunk.bx
	addl	$_GLOBAL_OFFSET_TABLE_, %ebx
	leal	-1100(%esp), %esp
	.cfi_def_cfa_offset 1120
.LBB632:
	.loc 1 95 0
	leal	.LC4@GOTOFF(%ebx), %ebp
.LBE632:
	.loc 1 94 0
	movl	1120(%esp), %eax
	movl	1128(%esp), %esi
	movl	1124(%esp), %edi
	movl	%eax, 40(%esp)
	movl	%gs:20, %eax
	movl	%eax, 1084(%esp)
	xorl	%eax, %eax
.LBB659:
	.loc 1 95 0
	movl	%esi, 16(%esp)
	leal	.LC38@GOTOFF(%ebx), %eax
	movl	%edi, 12(%esp)
	movl	%ebp, 4(%esp)
	movl	$3, (%esp)
	movl	%eax, 8(%esp)
	call	__android_log_print@PLT
.LVL196:
	.loc 1 96 0
	cmpl	$1024, %esi
	jle	.L153
	.loc 1 97 0
	movl	$1024, 16(%esp)
	leal	.LC39@GOTOFF(%ebx), %eax
	movl	%esi, 12(%esp)
	movl	%ebp, 4(%esp)
	movl	$6, (%esp)
	movl	%eax, 8(%esp)
	call	__android_log_print@PLT
.LVL197:
	.loc 1 98 0 discriminator 1
	xorl	%eax, %eax
.L152:
.LBE659:
	.loc 1 119 0
	movl	1084(%esp), %ecx
	xorl	%gs:20, %ecx
	jne	.L164
	leal	1100(%esp), %esp
	.cfi_remember_state
	.cfi_def_cfa_offset 20
	popl	%ebx
	.cfi_restore 3
	.cfi_def_cfa_offset 16
	popl	%esi
	.cfi_restore 6
	.cfi_def_cfa_offset 12
	popl	%edi
	.cfi_restore 7
	.cfi_def_cfa_offset 8
	popl	%ebp
	.cfi_restore 5
	.cfi_def_cfa_offset 4
	ret
	.p2align 4,,7
	.p2align 3
.L153:
	.cfi_restore_state
.LBB660:
	.loc 1 103 0
	movl	40(%esp), %eax
	movl	%edi, 4(%esp)
	movl	%eax, (%esp)
	call	_ZN10PtraceUtil16FindBackupMemoryEj@PLT
.LVL198:
.LBB633:
	.loc 1 104 0
	testl	%eax, %eax
	je	.L165
	movl	%eax, 44(%esp)
	.loc 1 114 0
	leal	.LC41@GOTOFF(%ebx), %eax
.LVL199:
	movl	%ebp, 4(%esp)
	movl	$6, (%esp)
	movl	%eax, 8(%esp)
	call	__android_log_print@PLT
.LVL200:
	.loc 1 115 0
	movl	44(%esp), %edx
	.loc 1 116 0
	movl	40(%esp), %eax
	.loc 1 115 0
	movl	%esi, 1028(%edx)
	.loc 1 116 0
	addl	$4, %edx
	movl	%esi, 12(%esp)
	movl	%edx, 8(%esp)
	movl	%edi, 4(%esp)
	movl	%eax, (%esp)
	call	_ZN10PtraceUtil17ReadProcessMemoryEjPhi@PLT
.LVL201:
.L158:
.LBE633:
	.loc 1 118 0
	movl	%ebp, 4(%esp)
	leal	.LC42@GOTOFF(%ebx), %eax
	movl	$3, (%esp)
	movl	%eax, 8(%esp)
	call	__android_log_print@PLT
.LVL202:
	jmp	.L152
.LVL203:
	.p2align 4,,7
	.p2align 3
.L165:
.LBB658:
.LBB634:
	.loc 1 105 0
	movl	%ebp, 4(%esp)
	leal	.LC40@GOTOFF(%ebx), %eax
.LVL204:
	movl	$6, (%esp)
	movl	%eax, 8(%esp)
	call	__android_log_print@PLT
.LVL205:
	.loc 1 108 0
	movl	%edi, 52(%esp)
	.loc 1 109 0
	leal	56(%esp), %eax
	movl	%edi, 4(%esp)
	movl	40(%esp), %edi
	movl	%esi, 12(%esp)
	movl	%eax, 8(%esp)
	movl	%edi, (%esp)
	.loc 1 107 0
	movl	%esi, 1080(%esp)
	.loc 1 109 0
	leal	52(%esp), %esi
	call	_ZN10PtraceUtil17ReadProcessMemoryEjPhi@PLT
.LVL206:
.LBB635:
.LBB636:
	.loc 2 380 0
	movl	24(%edi), %eax
	movl	%edi, %edx
	cmpl	28(%edi), %eax
	je	.L155
.LVL207:
.LBB637:
.LBB638:
.LBB639:
	.loc 7 119 0
	testl	%eax, %eax
	je	.L156
	.loc 7 119 0 is_stmt 0 discriminator 1
	movl	%eax, %edi
.LVL208:
	movl	$258, %ecx
	rep movsl
.LVL209:
	movl	24(%edx), %eax
.LVL210:
.L156:
.LBE639:
.LBE638:
.LBE637:
	.loc 2 382 0 is_stmt 1
	movl	40(%esp), %ecx
	addl	$1032, %eax
	movl	%eax, 24(%ecx)
.LVL211:
	jmp	.L158
.LVL212:
.L155:
.LBB640:
.LBB641:
.LBB642:
	.loc 2 162 0
	movl	%eax, 4(%esp)
	leal	51(%esp), %edx
.LVL213:
.LBE642:
.LBE641:
.LBE640:
.LBE636:
.LBE635:
	.loc 1 110 0
	movl	40(%esp), %eax
.LVL214:
.LBB655:
.LBB652:
.LBB649:
.LBB646:
.LBB643:
	.loc 2 162 0
	movl	$1, 20(%esp)
	movl	$1, 16(%esp)
	movl	%edx, 12(%esp)
.LBE643:
.LBE646:
.LBE649:
.LBE652:
.LBE655:
	.loc 1 110 0
	addl	$20, %eax
.LBB656:
.LBB653:
.LBB650:
.LBB647:
.LBB644:
	.loc 2 162 0
	movl	%esi, 8(%esp)
.LBE644:
.LBE647:
.LBE650:
.LBE653:
.LBE656:
	.loc 1 110 0
	movl	%eax, (%esp)
.LBB657:
.LBB654:
.LBB651:
.LBB648:
.LBB645:
	.loc 2 162 0
	call	_ZNSt6vectorI12MemoryBackupSaIS0_EE22_M_insert_overflow_auxEPS0_RKS0_RKSt12__false_typejb@PLT
.LVL215:
	jmp	.L158
.LVL216:
.L164:
.LBE645:
.LBE648:
.LBE651:
.LBE654:
.LBE657:
.LBE634:
.LBE658:
.LBE660:
	.loc 1 119 0
	call	__stack_chk_fail_local
.LVL217:
	.cfi_endproc
.LFE1606:
	.size	_ZN10PtraceUtil12BackupMemoryEji, .-_ZN10PtraceUtil12BackupMemoryEji
	.section	.text.unlikely._ZN10PtraceUtil12BackupMemoryEji
.LCOLDE43:
	.section	.text._ZN10PtraceUtil12BackupMemoryEji
.LHOTE43:
	.weak	_ZTS10PtraceUtil
	.section	.rodata._ZTS10PtraceUtil,"aG",@progbits,_ZTS10PtraceUtil,comdat
	.type	_ZTS10PtraceUtil, @object
	.size	_ZTS10PtraceUtil, 13
_ZTS10PtraceUtil:
	.string	"10PtraceUtil"
	.weak	_ZTI10PtraceUtil
	.section	.data.rel.ro._ZTI10PtraceUtil,"awG",@progbits,_ZTI10PtraceUtil,comdat
	.align 4
	.type	_ZTI10PtraceUtil, @object
	.size	_ZTI10PtraceUtil, 8
_ZTI10PtraceUtil:
	.long	_ZTVN10__cxxabiv117__class_type_infoE+8
	.long	_ZTS10PtraceUtil
	.weak	_ZTV10PtraceUtil
	.section	.data.rel.ro._ZTV10PtraceUtil,"awG",@progbits,_ZTV10PtraceUtil,comdat
	.align 8
	.type	_ZTV10PtraceUtil, @object
	.size	_ZTV10PtraceUtil, 16
_ZTV10PtraceUtil:
	.long	0
	.long	_ZTI10PtraceUtil
	.long	_ZN10PtraceUtilD1Ev
	.long	_ZN10PtraceUtilD0Ev
	.section	.text.__x86.get_pc_thunk.bx,"axG",@progbits,__x86.get_pc_thunk.bx,comdat
	.globl	__x86.get_pc_thunk.bx
	.hidden	__x86.get_pc_thunk.bx
	.type	__x86.get_pc_thunk.bx, @function
__x86.get_pc_thunk.bx:
.LFB1900:
	.cfi_startproc
	movl	(%esp), %ebx
	ret
	.cfi_endproc
.LFE1900:
	.text
.Letext0:
	.section	.text.unlikely._ZN10PtraceUtilD2Ev
.Letext_cold0:
	.file 8 "D:/android-ndk-r12b/build//../sources/cxx-stl/stlport/stlport/stl/_cstddef.h"
	.file 9 "D:/android-ndk-r12b/build//../sources/cxx-stl/stlport/stlport/stl/_cstdlib.h"
	.file 10 "D:/android-ndk-r12b/build//../sources/cxx-stl/stlport/stlport/stl/_cmath.h"
	.file 11 "D:/android-ndk-r12b/build//../sources/cxx-stl/stlport/stlport/using/cstring"
	.file 12 "D:/android-ndk-r12b/build//../sources/cxx-stl/stlport/stlport/stl/type_manips.h"
	.file 13 "D:/android-ndk-r12b/build//../sources/cxx-stl/stlport/stlport/stl/_limits.h"
	.file 14 "D:/android-ndk-r12b/build//../sources/cxx-stl/stlport/stlport/stl/_iostream_string.h"
	.file 15 "D:/android-ndk-r12b/build//../sources/cxx-stl/stlport/stlport/stl/_iterator_base.h"
	.file 16 "D:/android-ndk-r12b/build//../sources/cxx-stl/stlport/stlport/../../gabi++/include/cstddef"
	.file 17 "D:/android-ndk-r12b/build//../sources/cxx-stl/stlport/stlport/stl/_cstdio.h"
	.file 18 "D:/android-ndk-r12b/build//../sources/cxx-stl/stlport/stlport/stl/_cwchar.h"
	.file 19 "D:/android-ndk-r12b/build//../sources/cxx-stl/stlport/stlport/stl/type_traits.h"
	.file 20 "D:/android-ndk-r12b/build//../sources/cxx-stl/stlport/stlport/stl/_move_construct_fwk.h"
	.file 21 "D:/android-ndk-r12b/build//../sources/cxx-stl/stlport/stlport/stl/_threads.h"
	.file 22 "D:/android-ndk-r12b/build//../sources/cxx-stl/stlport/stlport/stl/_ctime.h"
	.file 23 "D:/android-ndk-r12b/build//../sources/cxx-stl/stlport/stlport/stl/_iterator.h"
	.file 24 "D:/android-ndk-r12b/build//../sources/cxx-stl/stlport/stlport/stl/_algobase.h"
	.file 25 "D:/android-ndk-r12b/build//../sources/cxx-stl/stlport/stlport/stl/config/features.h"
	.file 26 "d:\\android-ndk-r12b\\toolchains\\x86-4.9\\prebuilt\\windows-x86_64\\lib\\gcc\\i686-linux-android\\4.9.x\\include\\stddef.h"
	.file 27 "d:\\android-ndk-r12b\\platforms\\android-9\\arch-x86\\usr\\include\\asm\\posix_types_32.h"
	.file 28 "d:\\android-ndk-r12b\\platforms\\android-9\\arch-x86\\usr\\include\\sys\\types.h"
	.file 29 "d:\\android-ndk-r12b\\toolchains\\x86-4.9\\prebuilt\\windows-x86_64\\lib\\gcc\\i686-linux-android\\4.9.x\\include\\stdarg.h"
	.file 30 "d:\\android-ndk-r12b\\platforms\\android-9\\arch-x86\\usr\\include\\stdio.h"
	.file 31 "d:\\android-ndk-r12b\\platforms\\android-9\\arch-x86\\usr\\include\\stdlib.h"
	.file 32 "D:/android-ndk-r12b/build//../sources/cxx-stl/stlport/stlport/stl/_range_errors.h"
	.file 33 "d:\\android-ndk-r12b\\platforms\\android-9\\arch-x86\\usr\\include\\string.h"
	.file 34 "d:\\android-ndk-r12b\\platforms\\android-9\\arch-x86\\usr\\include\\time.h"
	.file 35 "d:\\android-ndk-r12b\\platforms\\android-9\\arch-x86\\usr\\include\\wchar.h"
	.file 36 "d:\\android-ndk-r12b\\platforms\\android-9\\arch-x86\\usr\\include\\pthread.h"
	.file 37 "d:\\android-ndk-r12b\\platforms\\android-9\\arch-x86\\usr\\include\\android\\log.h"
	.file 38 "jni/tracer/../util/Mutex.hpp"
	.file 39 "jni/tracer/../util/logger.h"
	.file 40 "jni/tracer/../util/PtraceUtil.hpp"
	.file 41 "D:/android-ndk-r12b/build//../sources/cxx-stl/stlport/stlport/../../gabi++/include/new"
	.file 42 "d:\\android-ndk-r12b\\platforms\\android-9\\arch-x86\\usr\\include\\ctype.h"
	.file 43 "d:\\android-ndk-r12b\\platforms\\android-9\\arch-x86\\usr\\include\\errno.h"
	.file 44 "d:\\android-ndk-r12b\\platforms\\android-9\\arch-x86\\usr\\include\\sys\\ptrace.h"
	.file 45 "d:\\android-ndk-r12b\\platforms\\android-9\\arch-x86\\usr\\include\\malloc.h"
	.file 46 "d:\\android-ndk-r12b\\platforms\\android-9\\arch-x86\\usr\\include\\sys\\wait.h"
	.file 47 "<built-in>"
	.file 48 "D:/android-ndk-r12b/build//../sources/cxx-stl/stlport/stlport/stl/_threads.c"
	.section	.note.GNU-stack,"",@progbits
