	.file	"util.cpp"
	.text
.Ltext0:
	.section	.rodata.str1.1,"aMS",@progbits,1
.LC0:
	.string	"rb"
.LC1:
	.string	"ReadFile %s size=%ld"
.LC2:
	.string	"utils"
.LC3:
	.string	"vector"
	.section	.text.unlikely._Z8ReadFilePKc,"ax",@progbits
.LCOLDB4:
	.section	.text._Z8ReadFilePKc,"ax",@progbits
.LHOTB4:
	.p2align 4,,15
	.section	.text.unlikely._Z8ReadFilePKc
.Ltext_cold0:
	.section	.text._Z8ReadFilePKc
	.globl	_Z8ReadFilePKc
	.type	_Z8ReadFilePKc, @function
_Z8ReadFilePKc:
.LFB1578:
	.file 1 "jni/scrcap/../util/util.cpp"
	.loc 1 157 0
	.cfi_startproc
.LVL0:
	pushl	%ebp
	.cfi_def_cfa_offset 8
	.cfi_offset 5, -8
	pushl	%edi
	.cfi_def_cfa_offset 12
	.cfi_offset 7, -12
	pushl	%esi
	.cfi_def_cfa_offset 16
	.cfi_offset 6, -16
	pushl	%ebx
	.cfi_def_cfa_offset 20
	.cfi_offset 3, -20
	call	__x86.get_pc_thunk.bx
	addl	$_GLOBAL_OFFSET_TABLE_, %ebx
	leal	-92(%esp), %esp
	.cfi_def_cfa_offset 112
	.loc 1 157 0
	movl	116(%esp), %edx
	movl	%gs:20, %eax
	movl	%eax, 76(%esp)
	xorl	%eax, %eax
.LBB1179:
	.loc 1 159 0
	movl	%edx, (%esp)
	leal	.LC0@GOTOFF(%ebx), %eax
	movl	%eax, 4(%esp)
.LBE1179:
	.loc 1 157 0
	movl	112(%esp), %esi
.LBB1311:
	.loc 1 159 0
	movl	%edx, 44(%esp)
	call	fopen@PLT
.LVL1:
	.loc 1 160 0
	movl	%eax, (%esp)
	.loc 1 159 0
	movl	%eax, %ebp
.LVL2:
	.loc 1 160 0
	movl	$2, 8(%esp)
	movl	$0, 4(%esp)
	call	fseek@PLT
.LVL3:
	.loc 1 161 0
	movl	%ebp, (%esp)
	call	ftell@PLT
.LVL4:
	.loc 1 162 0
	movl	$0, 8(%esp)
	.loc 1 161 0
	movl	%eax, %edi
.LVL5:
	.loc 1 162 0
	movl	$0, 4(%esp)
	movl	%ebp, (%esp)
	call	fseek@PLT
.LVL6:
	.loc 1 164 0
	movl	%edi, (%esp)
	call	malloc@PLT
.LVL7:
	.loc 1 165 0
	movl	%eax, (%esp)
	movl	%ebp, 12(%esp)
	movl	$1, 8(%esp)
	movl	%edi, 4(%esp)
	.loc 1 164 0
	movl	%eax, 40(%esp)
.LVL8:
	.loc 1 165 0
	call	fread@PLT
.LVL9:
	.loc 1 166 0
	movl	%ebp, (%esp)
	call	fclose@PLT
.LVL10:
	.loc 1 168 0
	movl	44(%esp), %edx
	leal	.LC1@GOTOFF(%ebx), %eax
	movl	%eax, 8(%esp)
	leal	.LC2@GOTOFF(%ebx), %eax
	movl	%edi, 16(%esp)
	movl	%edx, 12(%esp)
	movl	$3, (%esp)
	movl	%eax, 4(%esp)
	call	__android_log_print@PLT
.LVL11:
.LBB1180:
.LBB1181:
.LBB1182:
	.file 2 "D:/android-ndk-r12b/build//../sources/cxx-stl/stlport/stlport/stl/_vector.h"
	.loc 2 67 0
	movl	$0, (%esi)
.LBE1182:
.LBE1181:
.LBE1180:
.LBB1187:
	.loc 1 171 0 discriminator 1
	testl	%edi, %edi
.LBE1187:
.LBB1307:
.LBB1186:
.LBB1185:
	.loc 2 67 0
	movl	$0, 4(%esi)
.LVL12:
.LBB1183:
.LBB1184:
	.file 3 "D:/android-ndk-r12b/build//../sources/cxx-stl/stlport/stlport/stl/_alloc.h"
	.loc 3 481 0
	movl	$0, 8(%esi)
.LVL13:
.LBE1184:
.LBE1183:
.LBE1185:
.LBE1186:
.LBE1307:
.LBB1308:
	.loc 1 171 0 discriminator 1
	jle	.L13
	movl	40(%esp), %eax
.LBB1188:
.LBB1189:
.LBB1190:
.LBB1191:
.LBB1192:
.LBB1193:
.LBB1194:
.LBB1195:
.LBB1196:
.LBB1197:
.LBB1198:
.LBB1199:
.LBB1200:
.LBB1201:
	.loc 3 158 0 discriminator 4
	leal	72(%esp), %ecx
	movl	%ecx, 56(%esp)
.LBE1201:
.LBE1200:
.LBE1199:
.LBE1198:
.LBE1197:
.LBE1196:
.LBE1195:
.LBE1194:
.LBE1193:
.LBE1192:
.LBE1191:
.LBE1190:
.LBE1189:
.LBE1188:
	.loc 1 171 0 discriminator 1
	xorl	%ebp, %ebp
.LVL14:
	addl	%eax, %edi
.LVL15:
	movl	%eax, %edx
.LBB1303:
.LBB1299:
.LBB1292:
.LBB1288:
.LBB1284:
.LBB1243:
.LBB1238:
.LBB1233:
.LBB1228:
.LBB1223:
.LBB1217:
.LBB1212:
.LBB1208:
.LBB1204:
	.loc 3 158 0 discriminator 4
	movl	%edi, %ecx
.LBE1204:
.LBE1208:
.LBE1212:
.LBE1217:
.LBE1223:
.LBE1228:
.LBE1233:
.LBE1238:
.LBE1243:
.LBE1284:
.LBE1288:
.LBE1292:
.LBE1299:
.LBE1303:
	.loc 1 171 0 discriminator 1
	xorl	%eax, %eax
.LBB1304:
.LBB1300:
.LBB1293:
.LBB1289:
.LBB1285:
.LBB1244:
.LBB1239:
.LBB1234:
.LBB1229:
.LBB1224:
.LBB1218:
.LBB1213:
.LBB1209:
.LBB1205:
	.loc 3 158 0 discriminator 4
	movl	%edx, %edi
	movl	%ecx, %edx
	jmp	.L14
.LVL16:
	.p2align 4,,7
	.p2align 3
.L28:
	movl	8(%esi), %ebp
	movl	4(%esi), %eax
.LVL17:
.L14:
.LBE1205:
.LBE1209:
.LBE1213:
.LBE1218:
.LBE1224:
.LBE1229:
.LBE1234:
.LBE1239:
.LBE1244:
.LBE1285:
.LBE1289:
.LBE1293:
	.loc 2 380 0
	cmpl	%eax, %ebp
	je	.L3
	movzbl	(%edi), %ecx
.LVL18:
.LBB1294:
.LBB1295:
.LBB1296:
	.file 4 "D:/android-ndk-r12b/build//../sources/cxx-stl/stlport/stlport/stl/_construct.h"
	.loc 4 126 0
	movb	%cl, (%eax)
.LBE1296:
.LBE1295:
.LBE1294:
	.loc 2 382 0
	addl	$1, 4(%esi)
.LVL19:
.L4:
	addl	$1, %edi
.LVL20:
.LBE1300:
.LBE1304:
	.loc 1 171 0 discriminator 1
	cmpl	%edx, %edi
	jne	.L28
.LVL21:
.L13:
.LBE1308:
	.loc 1 174 0
	movl	40(%esp), %eax
	movl	%eax, (%esp)
	call	free@PLT
.LVL22:
.LBE1311:
	.loc 1 176 0
	movl	76(%esp), %edx
	xorl	%gs:20, %edx
	movl	%esi, %eax
	jne	.L29
.LVL23:
	leal	92(%esp), %esp
	.cfi_remember_state
	.cfi_def_cfa_offset 20
	popl	%ebx
	.cfi_restore 3
	.cfi_def_cfa_offset 16
	popl	%esi
	.cfi_restore 6
	.cfi_def_cfa_offset 12
	popl	%edi
	.cfi_restore 7
	.cfi_def_cfa_offset 8
	popl	%ebp
	.cfi_restore 5
	.cfi_def_cfa_offset 4
	ret	$4
.LVL24:
	.p2align 4,,7
	.p2align 3
.L3:
	.cfi_restore_state
	movl	(%esi), %eax
	movl	%eax, 48(%esp)
.LVL25:
	movl	%eax, %ecx
.LBB1312:
.LBB1309:
.LBB1305:
.LBB1301:
.LBB1297:
.LBB1290:
.LBB1286:
.LBB1245:
.LBB1246:
.LBB1247:
.LBB1248:
	.loc 2 192 0
	movl	%ebp, %eax
	subl	%ecx, %eax
.LVL26:
.LBE1248:
.LBE1247:
	.loc 2 173 0
	cmpl	$-1, %eax
	je	.L30
.LVL27:
	testl	%eax, %eax
	movl	$1, %ecx
	cmovne	%eax, %ecx
.LVL28:
	.loc 2 176 0 discriminator 2
	addl	%eax, %ecx
.LVL29:
	jnc	.L31
.LVL30:
.LBE1246:
.LBE1245:
.LBB1253:
.LBB1240:
.LBB1235:
.LBB1230:
.LBB1225:
.LBB1219:
.LBB1214:
	.loc 3 347 0
	movl	$-1, 72(%esp)
.LVL31:
.LBE1214:
.LBE1219:
.LBE1225:
.LBE1230:
.LBE1235:
.LBE1240:
.LBE1253:
.LBB1254:
.LBB1251:
	.loc 2 177 0
	movl	$-1, %ecx
.LVL32:
.L15:
.LBE1251:
.LBE1254:
.LBB1255:
.LBB1241:
.LBB1236:
.LBB1231:
.LBB1226:
.LBB1220:
.LBB1215:
.LBB1210:
.LBB1206:
.LBB1202:
.LBB1203:
	.file 5 "D:/android-ndk-r12b/build//../sources/cxx-stl/stlport/stlport/stl/_new.h"
	.loc 5 134 0
	movl	%ecx, (%esp)
	movl	%edx, 44(%esp)
.LVL33:
	call	_Znwj@PLT
.LVL34:
	movl	44(%esp), %edx
.LVL35:
.L9:
	movl	(%esi), %ecx
.LBE1203:
.LBE1202:
.LBE1206:
.LBE1210:
	.loc 3 353 0
	movl	%eax, 44(%esp)
	movl	%ecx, 60(%esp)
	movl	%ecx, 48(%esp)
.LVL36:
	movl	72(%esp), %ecx
	addl	%eax, %ecx
	movl	%ecx, 52(%esp)
.LVL37:
.L7:
.LBE1215:
.LBE1220:
.LBE1226:
.LBE1231:
.LBE1236:
.LBE1241:
.LBE1255:
.LBB1256:
.LBB1257:
	.file 6 "D:/android-ndk-r12b/build//../sources/cxx-stl/stlport/stlport/stl/_algobase.h"
	.loc 6 224 0
	movl	44(%esp), %eax
	subl	48(%esp), %ebp
.LVL38:
	jne	.L32
.L10:
.LVL39:
.LBE1257:
.LBE1256:
.LBB1259:
.LBB1260:
.LBB1261:
.LBB1262:
	.loc 6 460 0
	movzbl	(%edi), %ecx
.LBE1262:
.LBE1261:
	.loc 6 489 0
	leal	1(%eax), %ebp
.LVL40:
.LBB1264:
.LBB1263:
	.loc 6 460 0
	movb	%cl, (%eax)
.LVL41:
	movl	(%esi), %ecx
.LVL42:
.LBE1263:
.LBE1264:
.LBE1260:
.LBE1259:
.LBB1265:
.LBB1266:
	.loc 2 657 0
	movl	8(%esi), %eax
.LVL43:
	subl	%ecx, %eax
.LVL44:
.LBB1267:
.LBB1268:
	.loc 3 319 0
	testl	%ecx, %ecx
	je	.L11
.LVL45:
	movl	%edx, 48(%esp)
.LBB1269:
.LBB1270:
	.loc 3 161 0
	cmpl	$128, %eax
	ja	.L33
	.loc 3 161 0 is_stmt 0 discriminator 4
	movl	%eax, 4(%esp)
.LVL46:
	movl	%ecx, (%esp)
	call	_ZNSt12__node_alloc13_M_deallocateEPvj@PLT
.LVL47:
	movl	48(%esp), %edx
.L11:
.LVL48:
.LBE1270:
.LBE1269:
.LBE1268:
.LBE1267:
.LBE1266:
.LBE1265:
.LBB1278:
.LBB1279:
	.loc 2 666 0 is_stmt 1
	movl	44(%esp), %eax
	.loc 2 667 0
	movl	%ebp, 4(%esi)
	.loc 2 666 0
	movl	%eax, (%esi)
	.loc 2 668 0
	movl	52(%esp), %eax
	movl	%eax, 8(%esi)
	jmp	.L4
.LVL49:
	.p2align 4,,7
	.p2align 3
.L33:
.LBE1279:
.LBE1278:
.LBB1280:
.LBB1277:
.LBB1276:
.LBB1275:
.LBB1274:
.LBB1273:
.LBB1271:
.LBB1272:
	.loc 5 135 0
	movl	%ecx, (%esp)
.LVL50:
	call	_ZdlPv@PLT
.LVL51:
	movl	48(%esp), %edx
	jmp	.L11
.LVL52:
	.p2align 4,,7
	.p2align 3
.L32:
.LBE1272:
.LBE1271:
.LBE1273:
.LBE1274:
.LBE1275:
.LBE1276:
.LBE1277:
.LBE1280:
.LBB1281:
.LBB1258:
	.loc 6 224 0 discriminator 2
	movl	60(%esp), %eax
	movl	%ebp, 8(%esp)
	movl	%edx, 48(%esp)
	movl	%eax, 4(%esp)
	movl	44(%esp), %eax
	movl	%eax, (%esp)
	call	memmove@PLT
.LVL53:
	.loc 6 224 0 is_stmt 0 discriminator 1
	movl	48(%esp), %edx
	addl	%ebp, %eax
	jmp	.L10
.LVL54:
	.p2align 4,,7
	.p2align 3
.L31:
.LBE1258:
.LBE1281:
.LBB1282:
.LBB1242:
.LBB1237:
.LBB1232:
.LBB1227:
.LBB1221:
	.loc 3 346 0 is_stmt 1
	testl	%ecx, %ecx
	jne	.L34
	movl	48(%esp), %eax
.LVL55:
	movl	$0, 52(%esp)
.LBE1221:
	.loc 3 356 0
	movl	$0, 44(%esp)
.LBB1222:
	.loc 3 346 0
	movl	%eax, 60(%esp)
	jmp	.L7
.LVL56:
	.p2align 4,,7
	.p2align 3
.L34:
.LBB1216:
	.loc 3 347 0
	movl	%ecx, 72(%esp)
.LVL57:
.LBB1211:
.LBB1207:
	.loc 3 158 0
	cmpl	$128, %ecx
	ja	.L15
	.loc 3 158 0 is_stmt 0 discriminator 4
	movl	56(%esp), %eax
.LVL58:
	movl	%edx, 44(%esp)
	movl	%eax, (%esp)
.LVL59:
	call	_ZNSt12__node_alloc11_M_allocateERj@PLT
.LVL60:
	movl	44(%esp), %edx
	jmp	.L9
.LVL61:
.L29:
.LBE1207:
.LBE1211:
.LBE1216:
.LBE1222:
.LBE1227:
.LBE1232:
.LBE1237:
.LBE1242:
.LBE1282:
.LBE1286:
.LBE1290:
.LBE1297:
.LBE1301:
.LBE1305:
.LBE1309:
.LBE1312:
	.loc 1 176 0 is_stmt 1
	call	__stack_chk_fail_local
.LVL62:
.L30:
.LBB1313:
.LBB1310:
.LBB1306:
.LBB1302:
.LBB1298:
.LBB1291:
.LBB1287:
.LBB1283:
.LBB1252:
.LBB1249:
.LBB1250:
	.file 7 "D:/android-ndk-r12b/build//../sources/cxx-stl/stlport/stlport/stl/_vector.c"
	.loc 7 41 0
	leal	.LC3@GOTOFF(%ebx), %eax
.LVL63:
	movl	%eax, (%esp)
	call	_ZSt24__stl_throw_length_errorPKc@PLT
.LVL64:
.LBE1250:
.LBE1249:
.LBE1252:
.LBE1283:
.LBE1287:
.LBE1291:
.LBE1298:
.LBE1302:
.LBE1306:
.LBE1310:
.LBE1313:
	.cfi_endproc
.LFE1578:
	.size	_Z8ReadFilePKc, .-_Z8ReadFilePKc
	.section	.text.unlikely._Z8ReadFilePKc
.LCOLDE4:
	.section	.text._Z8ReadFilePKc
.LHOTE4:
	.section	.rodata.str1.1
.LC5:
	.string	"GetFuncAddress: [%s] [%s]"
	.section	.rodata.str1.4,"aMS",@progbits,1
	.align 4
.LC6:
	.string	"GetFuncAddress: func [%s] at %08X"
	.align 4
.LC7:
	.string	"GetFuncAddress: func [%s] not found"
	.align 4
.LC8:
	.string	"GetFuncAddress: lib [%s] not found"
	.section	.text.unlikely.GetFuncAddress,"ax",@progbits
.LCOLDB9:
	.section	.text.GetFuncAddress,"ax",@progbits
.LHOTB9:
	.p2align 4,,15
	.globl	GetFuncAddress
	.type	GetFuncAddress, @function
GetFuncAddress:
.LFB1581:
	.loc 1 225 0
	.cfi_startproc
.LVL65:
	pushl	%ebp
	.cfi_def_cfa_offset 8
	.cfi_offset 5, -8
	pushl	%edi
	.cfi_def_cfa_offset 12
	.cfi_offset 7, -12
	pushl	%esi
	.cfi_def_cfa_offset 16
	.cfi_offset 6, -16
	pushl	%ebx
	.cfi_def_cfa_offset 20
	.cfi_offset 3, -20
	call	__x86.get_pc_thunk.bx
	addl	$_GLOBAL_OFFSET_TABLE_, %ebx
	leal	-44(%esp), %esp
	.cfi_def_cfa_offset 64
.LBB1318:
	.loc 1 227 0
	leal	.LC2@GOTOFF(%ebx), %ebp
	movl	68(%esp), %eax
.LBE1318:
	.loc 1 225 0
	movl	64(%esp), %edi
.LVL66:
.LBB1319:
	.loc 1 227 0
	movl	%ebp, 4(%esp)
	movl	%eax, 16(%esp)
	leal	.LC5@GOTOFF(%ebx), %eax
	movl	%edi, 12(%esp)
	movl	$3, (%esp)
	movl	%eax, 8(%esp)
	call	__android_log_print@PLT
.LVL67:
	.loc 1 228 0
	movl	$0, 4(%esp)
	movl	%edi, (%esp)
	call	dlopen@PLT
.LVL68:
	.loc 1 229 0
	testl	%eax, %eax
	.loc 1 228 0
	movl	%eax, %esi
.LVL69:
	.loc 1 229 0
	je	.L36
	.loc 1 230 0
	movl	68(%esp), %eax
.LVL70:
	movl	%esi, (%esp)
	movl	%eax, 4(%esp)
	call	dlsym@PLT
.LVL71:
	.loc 1 231 0
	testl	%eax, %eax
	.loc 1 230 0
	movl	%eax, %edi
.LVL72:
	.loc 1 231 0
	jne	.L41
	.loc 1 234 0
	movl	68(%esp), %eax
.LVL73:
	movl	%ebp, 4(%esp)
	movl	$3, (%esp)
	movl	%eax, 12(%esp)
	leal	.LC7@GOTOFF(%ebx), %eax
	movl	%eax, 8(%esp)
	call	__android_log_print@PLT
.LVL74:
.L38:
	.loc 1 236 0
	movl	%esi, (%esp)
	call	dlclose@PLT
.LVL75:
.LBE1319:
	.loc 1 241 0
	leal	44(%esp), %esp
	.cfi_remember_state
	.cfi_def_cfa_offset 20
	movl	%edi, %eax
	popl	%ebx
	.cfi_restore 3
	.cfi_def_cfa_offset 16
	popl	%esi
	.cfi_restore 6
	.cfi_def_cfa_offset 12
.LVL76:
	popl	%edi
	.cfi_restore 7
	.cfi_def_cfa_offset 8
.LVL77:
	popl	%ebp
	.cfi_restore 5
	.cfi_def_cfa_offset 4
	ret
.LVL78:
	.p2align 4,,7
	.p2align 3
.L41:
	.cfi_restore_state
.LBB1320:
	.loc 1 232 0
	movl	%eax, 16(%esp)
	movl	68(%esp), %eax
.LVL79:
	movl	%ebp, 4(%esp)
	movl	$3, (%esp)
	movl	%eax, 12(%esp)
	leal	.LC6@GOTOFF(%ebx), %eax
	movl	%eax, 8(%esp)
	call	__android_log_print@PLT
.LVL80:
	jmp	.L38
.LVL81:
	.p2align 4,,7
	.p2align 3
.L36:
.LBE1320:
.LBB1321:
.LBB1322:
	.loc 1 238 0
	movl	%edi, 12(%esp)
	leal	.LC8@GOTOFF(%ebx), %eax
.LVL82:
	movl	%ebp, 4(%esp)
	xorl	%edi, %edi
.LVL83:
	movl	$3, (%esp)
	movl	%eax, 8(%esp)
	call	__android_log_print@PLT
.LVL84:
.LBE1322:
.LBE1321:
	.loc 1 241 0
	leal	44(%esp), %esp
	.cfi_def_cfa_offset 20
	movl	%edi, %eax
	popl	%ebx
	.cfi_restore 3
	.cfi_def_cfa_offset 16
	popl	%esi
	.cfi_restore 6
	.cfi_def_cfa_offset 12
.LVL85:
	popl	%edi
	.cfi_restore 7
	.cfi_def_cfa_offset 8
.LVL86:
	popl	%ebp
	.cfi_restore 5
	.cfi_def_cfa_offset 4
	ret
	.cfi_endproc
.LFE1581:
	.size	GetFuncAddress, .-GetFuncAddress
	.section	.text.unlikely.GetFuncAddress
.LCOLDE9:
	.section	.text.GetFuncAddress
.LHOTE9:
	.section	.rodata.str1.1
.LC10:
	.string	"ps | grep %s"
.LC11:
	.string	"r"
.LC12:
	.string	"FindProcessByName SKIP %s"
.LC13:
	.string	"FindProcessByName %s"
.LC14:
	.string	"%d"
	.section	.text.unlikely.FindProcessByName,"ax",@progbits
.LCOLDB15:
	.section	.text.FindProcessByName,"ax",@progbits
.LHOTB15:
	.p2align 4,,15
	.globl	FindProcessByName
	.type	FindProcessByName, @function
FindProcessByName:
.LFB1589:
	.loc 1 381 0
	.cfi_startproc
.LVL87:
	pushl	%ebp
	.cfi_def_cfa_offset 8
	.cfi_offset 5, -8
	pushl	%edi
	.cfi_def_cfa_offset 12
	.cfi_offset 7, -12
	pushl	%esi
	.cfi_def_cfa_offset 16
	.cfi_offset 6, -16
	pushl	%ebx
	.cfi_def_cfa_offset 20
	.cfi_offset 3, -20
	call	__x86.get_pc_thunk.bx
	addl	$_GLOBAL_OFFSET_TABLE_, %ebx
	leal	-2108(%esp), %esp
	.cfi_def_cfa_offset 2128
	.loc 1 381 0
	movl	%gs:20, %eax
	movl	%eax, 2092(%esp)
	xorl	%eax, %eax
.LBB1323:
	.loc 1 386 0
	movl	2128(%esp), %eax
	leal	44(%esp), %esi
	movl	%esi, (%esp)
.LBE1323:
	.loc 1 381 0
	movl	2132(%esp), %edi
.LBB1324:
	.loc 1 386 0
	movl	%eax, 8(%esp)
	leal	.LC10@GOTOFF(%ebx), %eax
	movl	%eax, 4(%esp)
	.loc 1 382 0
	movl	$0, 40(%esp)
	.loc 1 386 0
	call	sprintf@PLT
.LVL88:
	.loc 1 387 0
	movl	%esi, (%esp)
	leal	.LC11@GOTOFF(%ebx), %eax
	movl	%eax, 4(%esp)
	call	popen@PLT
.LVL89:
	testl	%eax, %eax
	movl	%eax, %ebp
.LVL90:
	je	.L52
	.loc 1 397 0
	leal	.LC13@GOTOFF(%ebx), %eax
.LVL91:
	leal	1068(%esp), %esi
	movl	%eax, 28(%esp)
	.p2align 5,,30
	.p2align 3
.L43:
	.loc 1 390 0
	movl	%ebp, 8(%esp)
	movl	$1024, 4(%esp)
	movl	%esi, (%esp)
	call	fgets@PLT
.LVL92:
	testl	%eax, %eax
	je	.L54
	.loc 1 391 0
	testl	%edi, %edi
	je	.L44
	.loc 1 392 0
	movl	%edi, 4(%esp)
	movl	%esi, (%esp)
	call	strstr@PLT
.LVL93:
	testl	%eax, %eax
	je	.L55
.L44:
	.loc 1 397 0
	movl	28(%esp), %eax
	movl	%esi, 4(%esp)
	movl	%eax, (%esp)
	call	printf@PLT
.LVL94:
	.loc 1 398 0
	movl	40(%esp), %eax
	testl	%eax, %eax
	jne	.L43
	.loc 1 399 0
	movl	%esi, (%esp)
	leal	40(%esp), %eax
	movl	%eax, 8(%esp)
	leal	.LC14@GOTOFF(%ebx), %eax
	movl	%eax, 4(%esp)
	call	sscanf@PLT
.LVL95:
	jmp	.L43
	.p2align 4,,7
	.p2align 3
.L54:
	.loc 1 403 0
	movl	%ebp, (%esp)
	call	pclose@PLT
.LVL96:
.LBE1324:
	.loc 1 405 0
	movl	2092(%esp), %edx
	xorl	%gs:20, %edx
	movl	40(%esp), %eax
	jne	.L56
	leal	2108(%esp), %esp
	.cfi_remember_state
	.cfi_def_cfa_offset 20
	popl	%ebx
	.cfi_restore 3
	.cfi_def_cfa_offset 16
	popl	%esi
	.cfi_restore 6
	.cfi_def_cfa_offset 12
	popl	%edi
	.cfi_restore 7
	.cfi_def_cfa_offset 8
	popl	%ebp
	.cfi_restore 5
	.cfi_def_cfa_offset 4
.LVL97:
	ret
.LVL98:
	.p2align 4,,7
	.p2align 3
.L55:
	.cfi_restore_state
.LBB1325:
	.loc 1 393 0
	movl	%esi, 4(%esp)
	leal	.LC12@GOTOFF(%ebx), %eax
	movl	%eax, (%esp)
	call	printf@PLT
.LVL99:
	.loc 1 394 0
	jmp	.L43
.LVL100:
.L52:
	.loc 1 388 0
	movl	$1, (%esp)
	call	exit@PLT
.LVL101:
.L56:
.LBE1325:
	.loc 1 405 0
	call	__stack_chk_fail_local
.LVL102:
	.cfi_endproc
.LFE1589:
	.size	FindProcessByName, .-FindProcessByName
	.section	.text.unlikely.FindProcessByName
.LCOLDE15:
	.section	.text.FindProcessByName
.LHOTE15:
	.section	.rodata.str1.1
.LC16:
	.string	"dlopen=%08X"
.LC17:
	.string	"dlsym=%08X"
.LC18:
	.string	"pid=%d"
.LC19:
	.string	"gettid=%d"
	.section	.text.unlikely.Test,"ax",@progbits
.LCOLDB20:
	.section	.text.Test,"ax",@progbits
.LHOTB20:
	.p2align 4,,15
	.globl	Test
	.type	Test, @function
Test:
.LFB1590:
	.loc 1 408 0
	.cfi_startproc
	pushl	%esi
	.cfi_def_cfa_offset 8
	.cfi_offset 6, -8
	pushl	%ebx
	.cfi_def_cfa_offset 12
	.cfi_offset 3, -12
	call	__x86.get_pc_thunk.bx
	addl	$_GLOBAL_OFFSET_TABLE_, %ebx
	leal	-20(%esp), %esp
	.cfi_def_cfa_offset 32
	.loc 1 410 0
	leal	.LC2@GOTOFF(%ebx), %esi
	movl	dlopen@GOT(%ebx), %eax
	movl	%esi, 4(%esp)
	movl	$3, (%esp)
	movl	%eax, 12(%esp)
	leal	.LC16@GOTOFF(%ebx), %eax
	movl	%eax, 8(%esp)
	call	__android_log_print@PLT
.LVL103:
	.loc 1 411 0
	movl	dlsym@GOT(%ebx), %eax
	movl	%esi, 4(%esp)
	movl	$3, (%esp)
	movl	%eax, 12(%esp)
	leal	.LC17@GOTOFF(%ebx), %eax
	movl	%eax, 8(%esp)
	call	__android_log_print@PLT
.LVL104:
	.loc 1 412 0
	call	getpid@PLT
.LVL105:
	.loc 1 412 0 is_stmt 0 discriminator 1
	movl	%eax, 12(%esp)
	leal	.LC18@GOTOFF(%ebx), %eax
	movl	%esi, 4(%esp)
	movl	$3, (%esp)
	movl	%eax, 8(%esp)
	call	__android_log_print@PLT
.LVL106:
	.loc 1 413 0 is_stmt 1
	call	gettid@PLT
.LVL107:
	.loc 1 413 0 is_stmt 0 discriminator 1
	movl	%eax, 12(%esp)
	leal	.LC19@GOTOFF(%ebx), %eax
	movl	%esi, 4(%esp)
	movl	$3, (%esp)
	movl	%eax, 8(%esp)
	call	__android_log_print@PLT
.LVL108:
	.loc 1 414 0 is_stmt 1
	leal	20(%esp), %esp
	.cfi_def_cfa_offset 12
	popl	%ebx
	.cfi_restore 3
	.cfi_def_cfa_offset 8
	popl	%esi
	.cfi_restore 6
	.cfi_def_cfa_offset 4
	ret
	.cfi_endproc
.LFE1590:
	.size	Test, .-Test
	.section	.text.unlikely.Test
.LCOLDE20:
	.section	.text.Test
.LHOTE20:
	.section	.rodata.str1.1
.LC21:
	.string	"basic_string"
	.section	.text.unlikely._ZNSsC2ERKSs,"axG",@progbits,_ZNSsC5ERKSs,comdat
	.align 2
.LCOLDB22:
	.section	.text._ZNSsC2ERKSs,"axG",@progbits,_ZNSsC5ERKSs,comdat
.LHOTB22:
	.align 2
	.p2align 4,,15
	.weak	_ZNSsC2ERKSs
	.type	_ZNSsC2ERKSs, @function
_ZNSsC2ERKSs:
.LFB1606:
	.file 8 "D:/android-ndk-r12b/build//../sources/cxx-stl/stlport/stlport/stl/_string.c"
	.loc 8 647 0
	.cfi_startproc
.LVL109:
	pushl	%ebp
	.cfi_def_cfa_offset 8
	.cfi_offset 5, -8
	pushl	%edi
	.cfi_def_cfa_offset 12
	.cfi_offset 7, -12
	pushl	%esi
	.cfi_def_cfa_offset 16
	.cfi_offset 6, -16
	pushl	%ebx
	.cfi_def_cfa_offset 20
	.cfi_offset 3, -20
	call	__x86.get_pc_thunk.bx
	addl	$_GLOBAL_OFFSET_TABLE_, %ebx
	leal	-60(%esp), %esp
	.cfi_def_cfa_offset 80
	.loc 8 647 0
	movl	80(%esp), %ebp
	movl	84(%esp), %eax
	movl	%gs:20, %edi
	movl	%edi, 44(%esp)
	xorl	%edi, %edi
.LVL110:
.LBB1357:
.LBB1358:
	.file 9 "D:/android-ndk-r12b/build//../sources/cxx-stl/stlport/stlport/stl/_string_base.h"
	.loc 9 112 0
	movl	%ebp, 16(%ebp)
.LVL111:
.LBB1359:
.LBB1360:
	.loc 3 481 0
	movl	%ebp, 20(%ebp)
.LVL112:
	movl	16(%eax), %edi
.LVL113:
	movl	20(%eax), %esi
.LVL114:
.LBE1360:
.LBE1359:
.LBE1358:
.LBE1357:
.LBB1361:
.LBB1362:
	.file 10 "D:/android-ndk-r12b/build//../sources/cxx-stl/stlport/stlport/stl/_string.h"
	.loc 10 378 0
	movl	%edi, %edx
	subl	%esi, %edx
.LVL115:
.LBB1363:
.LBB1364:
	.loc 8 608 0 discriminator 1
	movl	%edx, %eax
.LVL116:
	addl	$1, %eax
.LVL117:
	jne	.L60
.LVL118:
.LBB1365:
.LBB1366:
	.loc 8 600 0
	leal	.LC21@GOTOFF(%ebx), %eax
.LVL119:
	movl	%eax, (%esp)
	call	_ZSt24__stl_throw_length_errorPKc@PLT
.LVL120:
	.p2align 4,,7
	.p2align 3
.L60:
.LBE1366:
.LBE1365:
	.loc 8 610 0
	cmpl	$16, %eax
	ja	.L70
	movl	%ebp, 28(%esp)
.LVL121:
.L71:
.LBE1364:
.LBE1363:
.LBB1384:
.LBB1385:
.LBB1386:
	.file 11 "D:/android-ndk-r12b/build//../sources/cxx-stl/stlport/stlport/stl/_uninitialized.h"
	.loc 11 107 0
	movl	28(%esp), %ecx
	cmpl	%esi, %edi
	je	.L64
	.loc 11 106 0
	cmpl	$4, %edx
	movl	%edx, %eax
	movl	%ecx, %edi
.LVL122:
	jnb	.L91
	xorl	%ecx, %ecx
	testb	$2, %al
	jne	.L92
.LVL123:
.L68:
	testb	$1, %al
	jne	.L93
.L69:
	.loc 11 107 0 discriminator 1
	movl	28(%esp), %ecx
	addl	%edx, %ecx
.L64:
.LBE1386:
.LBE1385:
.LBE1384:
.LBE1362:
.LBE1361:
	.loc 8 649 0
	movl	44(%esp), %eax
	xorl	%gs:20, %eax
.LBB1401:
.LBB1399:
	.loc 10 380 0
	movl	%ecx, 16(%ebp)
.LVL124:
.LBB1391:
.LBB1392:
.LBB1393:
.LBB1394:
.LBB1395:
	.loc 4 101 0
	movb	$0, (%ecx)
.LBE1395:
.LBE1394:
.LBE1393:
.LBE1392:
.LBE1391:
.LBE1399:
.LBE1401:
	.loc 8 649 0
	jne	.L94
	leal	60(%esp), %esp
	.cfi_remember_state
	.cfi_def_cfa_offset 20
	popl	%ebx
	.cfi_restore 3
	.cfi_def_cfa_offset 16
	popl	%esi
	.cfi_restore 6
	.cfi_def_cfa_offset 12
	popl	%edi
	.cfi_restore 7
	.cfi_def_cfa_offset 8
	popl	%ebp
	.cfi_restore 5
	.cfi_def_cfa_offset 4
.LVL125:
	ret
.LVL126:
	.p2align 4,,7
	.p2align 3
.L93:
	.cfi_restore_state
.LBB1402:
.LBB1400:
.LBB1396:
.LBB1389:
.LBB1387:
	.loc 11 106 0
	movzbl	(%esi,%ecx), %eax
	movb	%al, (%edi,%ecx)
	jmp	.L69
	.p2align 4,,7
	.p2align 3
.L92:
	movzwl	(%esi), %ecx
	testb	$1, %al
	movw	%cx, (%edi)
	movl	$2, %ecx
	je	.L69
	jmp	.L93
.LVL127:
	.p2align 4,,7
	.p2align 3
.L91:
	andl	$1, %ecx
.LVL128:
	jne	.L95
.LVL129:
.L66:
	testl	$2, %edi
	.p2align 4,,2
	jne	.L96
.L67:
	movl	%eax, %ecx
	shrl	$2, %ecx
	rep movsl
	xorl	%ecx, %ecx
	testb	$2, %al
	je	.L68
	jmp	.L92
.LVL130:
	.p2align 4,,7
	.p2align 3
.L70:
.LBE1387:
.LBE1389:
.LBE1396:
.LBB1397:
.LBB1383:
.LBB1367:
.LBB1368:
.LBB1369:
.LBB1370:
.LBB1371:
	.loc 3 347 0
	movl	%eax, 40(%esp)
.LVL131:
.LBB1372:
.LBB1373:
	.loc 3 158 0
	cmpl	$128, %eax
	movl	%edx, 28(%esp)
	ja	.L97
	.loc 3 158 0 is_stmt 0 discriminator 4
	leal	40(%esp), %eax
.LVL132:
	movl	%eax, (%esp)
	call	_ZNSt12__node_alloc11_M_allocateERj@PLT
.LVL133:
	movl	28(%esp), %edx
.L63:
.LVL134:
.LBE1373:
.LBE1372:
.LBE1371:
.LBE1370:
.LBE1369:
.LBE1368:
.LBE1367:
	.loc 8 613 0 is_stmt 1
	movl	40(%esp), %ecx
	.loc 8 611 0
	movl	%eax, 20(%ebp)
	.loc 8 612 0
	movl	%eax, 16(%ebp)
	.loc 8 613 0
	movl	%eax, 28(%esp)
.LVL135:
	addl	%eax, %ecx
	movl	%ecx, 0(%ebp)
	jmp	.L71
.LVL136:
	.p2align 4,,7
	.p2align 3
.L97:
.LBB1382:
.LBB1381:
.LBB1380:
.LBB1379:
.LBB1378:
.LBB1377:
.LBB1376:
.LBB1374:
.LBB1375:
	.loc 5 134 0
	movl	%eax, (%esp)
	call	_Znwj@PLT
.LVL137:
	movl	28(%esp), %edx
	jmp	.L63
.LVL138:
	.p2align 4,,7
	.p2align 3
.L96:
.LBE1375:
.LBE1374:
.LBE1376:
.LBE1377:
.LBE1378:
.LBE1379:
.LBE1380:
.LBE1381:
.LBE1382:
.LBE1383:
.LBE1397:
.LBB1398:
.LBB1390:
.LBB1388:
	.loc 11 106 0
	movzwl	(%esi), %ecx
	leal	2(%edi), %edi
	subl	$2, %eax
	leal	2(%esi), %esi
	movw	%cx, -2(%edi)
	jmp	.L67
.LVL139:
	.p2align 4,,7
	.p2align 3
.L95:
	movzbl	(%esi), %ecx
	leal	1(%edi), %edi
.LVL140:
	leal	-1(%edx), %eax
	leal	1(%esi), %esi
.LVL141:
	movb	%cl, -1(%edi)
.LVL142:
	jmp	.L66
.LVL143:
.L94:
.LBE1388:
.LBE1390:
.LBE1398:
.LBE1400:
.LBE1402:
	.loc 8 649 0
	call	__stack_chk_fail_local
.LVL144:
	.cfi_endproc
.LFE1606:
	.size	_ZNSsC2ERKSs, .-_ZNSsC2ERKSs
	.section	.text.unlikely._ZNSsC2ERKSs,"axG",@progbits,_ZNSsC5ERKSs,comdat
.LCOLDE22:
	.section	.text._ZNSsC2ERKSs,"axG",@progbits,_ZNSsC5ERKSs,comdat
.LHOTE22:
	.weak	_ZNSsC1ERKSs
	.set	_ZNSsC1ERKSs,_ZNSsC2ERKSs
	.section	.text.unlikely._ZNSt6vectorISsSaISsEE22_M_insert_overflow_auxEPSsRKSsRKSt12__false_typejb,"axG",@progbits,_ZNSt6vectorISsSaISsEE22_M_insert_overflow_auxEPSsRKSsRKSt12__false_typejb,comdat
	.align 2
.LCOLDB23:
	.section	.text._ZNSt6vectorISsSaISsEE22_M_insert_overflow_auxEPSsRKSsRKSt12__false_typejb,"axG",@progbits,_ZNSt6vectorISsSaISsEE22_M_insert_overflow_auxEPSsRKSsRKSt12__false_typejb,comdat
.LHOTB23:
	.align 2
	.p2align 4,,15
	.weak	_ZNSt6vectorISsSaISsEE22_M_insert_overflow_auxEPSsRKSsRKSt12__false_typejb
	.type	_ZNSt6vectorISsSaISsEE22_M_insert_overflow_auxEPSsRKSsRKSt12__false_typejb, @function
_ZNSt6vectorISsSaISsEE22_M_insert_overflow_auxEPSsRKSsRKSt12__false_typejb:
.LFB1888:
	.loc 7 81 0
	.cfi_startproc
.LVL145:
	pushl	%ebp
	.cfi_def_cfa_offset 8
	.cfi_offset 5, -8
.LBB1512:
.LBB1513:
.LBB1514:
	.loc 2 173 0
	movl	$178956970, %ecx
.LBE1514:
.LBE1513:
.LBE1512:
	.loc 7 81 0
	pushl	%edi
	.cfi_def_cfa_offset 12
	.cfi_offset 7, -12
	pushl	%esi
	.cfi_def_cfa_offset 16
	.cfi_offset 6, -16
	pushl	%ebx
	.cfi_def_cfa_offset 20
	.cfi_offset 3, -20
	call	__x86.get_pc_thunk.bx
	addl	$_GLOBAL_OFFSET_TABLE_, %ebx
	leal	-76(%esp), %esp
	.cfi_def_cfa_offset 96
	.loc 7 81 0
	movl	104(%esp), %eax
	movl	96(%esp), %edi
	movl	100(%esp), %esi
	movl	%eax, 36(%esp)
	movl	116(%esp), %eax
.LBB1634:
.LBB1524:
.LBB1521:
.LBB1515:
.LBB1516:
	.loc 2 192 0
	movl	4(%edi), %edx
.LBE1516:
.LBE1515:
.LBE1521:
.LBE1524:
.LBE1634:
	.loc 7 81 0
	movl	%eax, 32(%esp)
	movl	%gs:20, %eax
	movl	%eax, 60(%esp)
	xorl	%eax, %eax
.LVL146:
	movl	(%edi), %eax
.LVL147:
.LBB1635:
.LBB1525:
.LBB1522:
.LBB1518:
.LBB1517:
	.loc 2 192 0
	subl	%eax, %edx
	sarl	$3, %edx
	imull	$-1431655765, %edx, %edx
.LVL148:
.LBE1517:
.LBE1518:
	.loc 2 173 0
	subl	%edx, %ecx
	cmpl	%ecx, 112(%esp)
	ja	.L148
.LVL149:
	cmpl	112(%esp), %edx
	movl	%edx, %ecx
	movl	112(%esp), %ebp
	cmovb	%ebp, %ecx
	.loc 2 175 0
	addl	%edx, %ecx
.LVL150:
	.loc 2 176 0 discriminator 2
	cmpl	$178956970, %ecx
	ja	.L100
	cmpl	%ecx, %edx
	ja	.L100
.LVL151:
.LBE1522:
.LBE1525:
.LBB1526:
.LBB1527:
.LBB1528:
.LBB1529:
.LBB1530:
.LBB1531:
	.loc 3 346 0
	testl	%ecx, %ecx
	je	.L124
	leal	(%ecx,%ecx,2), %eax
	sall	$3, %eax
.LVL152:
.LBB1532:
	.loc 3 347 0
	movl	%eax, 56(%esp)
.LVL153:
.LBB1533:
.LBB1534:
	.loc 3 158 0
	cmpl	$128, %eax
	ja	.L122
	.loc 3 158 0 is_stmt 0 discriminator 4
	leal	56(%esp), %eax
.LVL154:
	movl	%eax, (%esp)
	call	_ZNSt12__node_alloc11_M_allocateERj@PLT
.LVL155:
	movl	%eax, 24(%esp)
.LVL156:
.L103:
	movl	24(%esp), %ecx
.LBE1534:
.LBE1533:
	.loc 3 352 0 is_stmt 1
	movl	$-1431655765, %edx
	movl	%edx, %eax
	mull	56(%esp)
	shrl	$4, %edx
.LVL157:
	leal	(%edx,%edx,2), %eax
	leal	(%ecx,%eax,8), %eax
	movl	%eax, 28(%esp)
	movl	(%edi), %eax
	movl	%eax, %edx
.LVL158:
.L101:
.LBE1532:
.LBE1531:
.LBE1530:
.LBE1529:
.LBE1528:
.LBE1527:
.LBE1526:
.LBB1550:
.LBB1551:
	.loc 11 428 0
	movl	%esi, %ebp
	subl	%eax, %ebp
	movl	%ebp, %eax
	sarl	$3, %eax
	imull	$-1431655765, %eax, %eax
.LVL159:
	.loc 11 428 0 is_stmt 0 discriminator 1
	testl	%eax, %eax
	jle	.L125
	movl	24(%esp), %eax
.LVL160:
	addl	%eax, %ebp
.LVL161:
	.p2align 5,,30
	.p2align 3
.L108:
.LBB1552:
.LBB1553:
.LBB1554:
	.loc 4 160 0 is_stmt 1
	testl	%eax, %eax
	je	.L105
.LVL162:
.LBB1555:
.LBB1556:
.LBB1557:
.LBB1558:
.LBB1559:
	.loc 3 486 0
	movl	20(%edx), %ecx
	movl	%ecx, 20(%eax)
.LVL163:
.LBE1559:
.LBE1558:
.LBB1560:
.LBB1561:
.LBB1562:
.LBB1563:
	.loc 9 64 0
	movl	20(%edx), %ecx
.LBE1563:
.LBE1562:
	.loc 9 129 0
	cmpl	%ecx, %edx
	je	.L149
	.loc 9 135 0
	movl	%ecx, 20(%eax)
	.loc 9 136 0
	movl	16(%edx), %ecx
	movl	%ecx, 16(%eax)
	.loc 9 137 0
	movl	(%edx), %ecx
	movl	%ecx, (%eax)
	.loc 9 138 0
	movl	$0, 20(%edx)
.LVL164:
.L105:
.LBE1561:
.LBE1560:
.LBE1557:
.LBE1556:
.LBE1555:
.LBE1554:
.LBE1553:
.LBE1552:
	.loc 11 430 0
	addl	$24, %eax
.LVL165:
	addl	$24, %edx
.LVL166:
	.loc 11 428 0 discriminator 1
	cmpl	%ebp, %eax
	jne	.L108
.LVL167:
.L104:
.LBE1551:
.LBE1550:
	.loc 7 93 0
	cmpl	$1, 112(%esp)
	je	.L150
.LVL168:
.LBB1574:
.LBB1575:
	.loc 11 314 0
	movl	112(%esp), %eax
	leal	(%eax,%eax,2), %edx
.LVL169:
	sall	$3, %edx
	leal	0(%ebp,%edx), %eax
.LVL170:
.LBB1576:
.LBB1577:
.LBB1578:
	.loc 11 249 0
	sarl	$3, %edx
	imull	$-1431655765, %edx, %edx
.LVL171:
	.loc 11 249 0 is_stmt 0 discriminator 1
	testl	%edx, %edx
	jle	.L111
	movl	%edi, 40(%esp)
	movl	%eax, %edi
.LVL172:
	movl	%esi, 44(%esp)
	movl	%ebp, %esi
.LVL173:
	movl	36(%esp), %ebp
.LVL174:
	.p2align 5,,30
	.p2align 3
.L113:
.LBB1579:
.LBB1580:
.LBB1581:
	.loc 4 139 0 is_stmt 1
	testl	%esi, %esi
	je	.L112
	.loc 4 139 0 is_stmt 0 discriminator 3
	movl	%ebp, 4(%esp)
	movl	%esi, (%esp)
	call	_ZNSsC1ERKSs@PLT
.LVL175:
.L112:
.LBE1581:
.LBE1580:
.LBE1579:
	.loc 11 249 0 is_stmt 1 discriminator 3
	addl	$24, %esi
.LVL176:
	.loc 11 249 0 is_stmt 0 discriminator 1
	cmpl	%edi, %esi
	jne	.L113
	movl	44(%esp), %esi
.LVL177:
	movl	%edi, %eax
	movl	40(%esp), %edi
.LVL178:
.L111:
.LBE1578:
.LBE1577:
.LBE1576:
.LBE1575:
.LBE1574:
	.loc 7 98 0 is_stmt 1
	cmpb	$0, 32(%esp)
	je	.L151
.LVL179:
.L114:
	movl	(%edi), %ecx
.LVL180:
.LBB1582:
.LBB1583:
	.loc 2 662 0
	movl	8(%edi), %edx
	subl	%ecx, %edx
.LVL181:
.LBB1584:
.LBB1585:
	.loc 3 319 0
	testl	%ecx, %ecx
	je	.L120
.LVL182:
	movl	%eax, 32(%esp)
.LBB1586:
.LBB1587:
	.loc 3 161 0
	cmpl	$128, %edx
	ja	.L152
	.loc 3 161 0 is_stmt 0 discriminator 4
	movl	%edx, 4(%esp)
.LVL183:
	movl	%ecx, (%esp)
	call	_ZNSt12__node_alloc13_M_deallocateEPvj@PLT
.LVL184:
	movl	32(%esp), %eax
.LVL185:
.L120:
.LBE1587:
.LBE1586:
.LBE1585:
.LBE1584:
.LBE1583:
.LBE1582:
.LBB1595:
.LBB1596:
	.loc 2 667 0 is_stmt 1
	movl	%eax, 4(%edi)
	.loc 2 668 0
	movl	28(%esp), %eax
.LVL186:
	.loc 2 666 0
	movl	24(%esp), %esi
	.loc 2 668 0
	movl	%eax, 8(%edi)
.LBE1596:
.LBE1595:
.LBE1635:
	.loc 7 105 0
	movl	60(%esp), %eax
	xorl	%gs:20, %eax
.LBB1636:
.LBB1598:
.LBB1597:
	.loc 2 666 0
	movl	%esi, (%edi)
.LBE1597:
.LBE1598:
.LBE1636:
	.loc 7 105 0
	jne	.L153
	leal	76(%esp), %esp
	.cfi_remember_state
	.cfi_def_cfa_offset 20
	popl	%ebx
	.cfi_restore 3
	.cfi_def_cfa_offset 16
	popl	%esi
	.cfi_restore 6
	.cfi_def_cfa_offset 12
	popl	%edi
	.cfi_restore 7
	.cfi_def_cfa_offset 8
.LVL187:
	popl	%ebp
	.cfi_restore 5
	.cfi_def_cfa_offset 4
	ret
.LVL188:
	.p2align 4,,7
	.p2align 3
.L149:
	.cfi_restore_state
.LBB1637:
.LBB1599:
.LBB1572:
.LBB1571:
.LBB1570:
.LBB1569:
.LBB1568:
.LBB1567:
.LBB1566:
.LBB1565:
.LBB1564:
	.loc 9 130 0
	movl	(%edx), %ecx
	movl	%ecx, (%eax)
	movl	4(%edx), %ecx
	movl	%ecx, 4(%eax)
	movl	8(%edx), %ecx
	movl	%ecx, 8(%eax)
	movl	12(%edx), %ecx
	movl	%ecx, 12(%eax)
	.loc 9 131 0
	movl	%eax, %ecx
	subl	%edx, %ecx
	addl	16(%edx), %ecx
	.loc 9 132 0
	movl	%eax, 20(%eax)
	.loc 9 131 0
	movl	%ecx, 16(%eax)
	jmp	.L105
.LVL189:
	.p2align 4,,7
	.p2align 3
.L100:
.LBE1564:
.LBE1565:
.LBE1566:
.LBE1567:
.LBE1568:
.LBE1569:
.LBE1570:
.LBE1571:
.LBE1572:
.LBE1599:
.LBB1600:
.LBB1548:
.LBB1546:
.LBB1544:
.LBB1542:
.LBB1540:
.LBB1539:
	.loc 3 347 0
	movl	$-16, 56(%esp)
.LVL190:
	movl	$-16, %eax
.LVL191:
.L122:
.LBB1538:
.LBB1537:
.LBB1535:
.LBB1536:
	.loc 5 134 0
	movl	%eax, (%esp)
	call	_Znwj@PLT
.LVL192:
	movl	%eax, 24(%esp)
	jmp	.L103
.LVL193:
	.p2align 4,,7
	.p2align 3
.L150:
.LBE1536:
.LBE1535:
.LBE1537:
.LBE1538:
.LBE1539:
.LBE1540:
.LBE1542:
.LBE1544:
.LBE1546:
.LBE1548:
.LBE1600:
.LBB1601:
.LBB1602:
.LBB1603:
	.loc 4 119 0
	testl	%ebp, %ebp
	je	.L110
	.loc 4 119 0 is_stmt 0 discriminator 3
	movl	36(%esp), %eax
	movl	%ebp, (%esp)
	movl	%eax, 4(%esp)
	call	_ZNSsC1ERKSs@PLT
.LVL194:
.L110:
.LBE1603:
.LBE1602:
.LBE1601:
	.loc 7 98 0 is_stmt 1
	cmpb	$0, 32(%esp)
	.loc 7 95 0
	leal	24(%ebp), %eax
.LVL195:
	.loc 7 98 0
	jne	.L114
.LVL196:
.L151:
.LBB1604:
.LBB1605:
	.loc 11 428 0
	movl	4(%edi), %ecx
	subl	%esi, %ecx
	movl	%ecx, %edx
	sarl	$3, %edx
	imull	$-1431655765, %edx, %edx
.LVL197:
	.loc 11 428 0 is_stmt 0 discriminator 1
	testl	%edx, %edx
	jle	.L126
	addl	%eax, %ecx
.LVL198:
	.p2align 5,,30
	.p2align 3
.L119:
.LBB1606:
.LBB1607:
.LBB1608:
	.loc 4 160 0 is_stmt 1
	testl	%eax, %eax
	je	.L116
.LVL199:
.LBB1609:
.LBB1610:
.LBB1611:
.LBB1612:
.LBB1613:
	.loc 3 486 0
	movl	20(%esi), %edx
	movl	%edx, 20(%eax)
.LVL200:
.LBE1613:
.LBE1612:
.LBB1614:
.LBB1615:
.LBB1616:
.LBB1617:
	.loc 9 64 0
	movl	20(%esi), %edx
.LBE1617:
.LBE1616:
	.loc 9 129 0
	cmpl	%edx, %esi
	je	.L154
	.loc 9 135 0
	movl	%edx, 20(%eax)
	.loc 9 136 0
	movl	16(%esi), %edx
	movl	%edx, 16(%eax)
	.loc 9 137 0
	movl	(%esi), %edx
	movl	%edx, (%eax)
	.loc 9 138 0
	movl	$0, 20(%esi)
.LVL201:
.L116:
.LBE1615:
.LBE1614:
.LBE1611:
.LBE1610:
.LBE1609:
.LBE1608:
.LBE1607:
.LBE1606:
	.loc 11 430 0
	addl	$24, %eax
.LVL202:
	addl	$24, %esi
.LVL203:
	.loc 11 428 0 discriminator 1
	cmpl	%ecx, %eax
	jne	.L119
.LBE1605:
.LBE1604:
	.loc 7 99 0
	movl	%ecx, %eax
.LVL204:
	jmp	.L114
.LVL205:
	.p2align 4,,7
	.p2align 3
.L152:
.LBB1628:
.LBB1594:
.LBB1593:
.LBB1592:
.LBB1591:
.LBB1590:
.LBB1588:
.LBB1589:
	.loc 5 135 0
	movl	%ecx, (%esp)
.LVL206:
	call	_ZdlPv@PLT
.LVL207:
	movl	32(%esp), %eax
	jmp	.L120
.LVL208:
	.p2align 4,,7
	.p2align 3
.L154:
.LBE1589:
.LBE1588:
.LBE1590:
.LBE1591:
.LBE1592:
.LBE1593:
.LBE1594:
.LBE1628:
.LBB1629:
.LBB1626:
.LBB1625:
.LBB1624:
.LBB1623:
.LBB1622:
.LBB1621:
.LBB1620:
.LBB1619:
.LBB1618:
	.loc 9 130 0
	movl	(%esi), %edx
	movl	%edx, (%eax)
	movl	4(%esi), %edx
	movl	%edx, 4(%eax)
	movl	8(%esi), %edx
	movl	%edx, 8(%eax)
	movl	12(%esi), %edx
	movl	%edx, 12(%eax)
	.loc 9 131 0
	movl	%eax, %edx
	subl	%esi, %edx
	addl	16(%esi), %edx
	.loc 9 132 0
	movl	%eax, 20(%eax)
	.loc 9 131 0
	movl	%edx, 16(%eax)
	jmp	.L116
.LVL209:
.L124:
.LBE1618:
.LBE1619:
.LBE1620:
.LBE1621:
.LBE1622:
.LBE1623:
.LBE1624:
.LBE1625:
.LBE1626:
.LBE1629:
.LBB1630:
.LBB1549:
.LBB1547:
.LBB1545:
.LBB1543:
.LBB1541:
	.loc 3 346 0
	movl	$0, 28(%esp)
	movl	%eax, %edx
.LVL210:
.LBE1541:
	.loc 3 356 0
	movl	$0, 24(%esp)
	jmp	.L101
.LVL211:
.L125:
.LBE1543:
.LBE1545:
.LBE1547:
.LBE1549:
.LBE1630:
.LBB1631:
.LBB1573:
	.loc 11 428 0 discriminator 1
	movl	24(%esp), %ebp
	jmp	.L104
.LVL212:
.L126:
.LBE1573:
.LBE1631:
.LBB1632:
.LBB1627:
	movl	%eax, %ecx
.LVL213:
.LBE1627:
.LBE1632:
	.loc 7 99 0
	movl	%ecx, %eax
	jmp	.L114
.LVL214:
.L153:
.LBE1637:
	.loc 7 105 0
	call	__stack_chk_fail_local
.LVL215:
.L148:
.LBB1638:
.LBB1633:
.LBB1523:
.LBB1519:
.LBB1520:
	.loc 7 41 0
	leal	.LC3@GOTOFF(%ebx), %eax
	movl	%eax, (%esp)
	call	_ZSt24__stl_throw_length_errorPKc@PLT
.LVL216:
.LBE1520:
.LBE1519:
.LBE1523:
.LBE1633:
.LBE1638:
	.cfi_endproc
.LFE1888:
	.size	_ZNSt6vectorISsSaISsEE22_M_insert_overflow_auxEPSsRKSsRKSt12__false_typejb, .-_ZNSt6vectorISsSaISsEE22_M_insert_overflow_auxEPSsRKSsRKSt12__false_typejb
	.section	.text.unlikely._ZNSt6vectorISsSaISsEE22_M_insert_overflow_auxEPSsRKSsRKSt12__false_typejb,"axG",@progbits,_ZNSt6vectorISsSaISsEE22_M_insert_overflow_auxEPSsRKSsRKSt12__false_typejb,comdat
.LCOLDE23:
	.section	.text._ZNSt6vectorISsSaISsEE22_M_insert_overflow_auxEPSsRKSsRKSt12__false_typejb,"axG",@progbits,_ZNSt6vectorISsSaISsEE22_M_insert_overflow_auxEPSsRKSsRKSt12__false_typejb,comdat
.LHOTE23:
	.section	.rodata.str1.1
.LC24:
	.string	"/proc/%d/maps"
.LC25:
	.string	"rt"
.LC26:
	.string	"ReadMaps: cannot open %s"
	.section	.text.unlikely._Z8ReadMapsiRSt6vectorISsSaISsEE,"ax",@progbits
.LCOLDB27:
	.section	.text._Z8ReadMapsiRSt6vectorISsSaISsEE,"ax",@progbits
.LHOTB27:
	.p2align 4,,15
	.globl	_Z8ReadMapsiRSt6vectorISsSaISsEE
	.type	_Z8ReadMapsiRSt6vectorISsSaISsEE, @function
_Z8ReadMapsiRSt6vectorISsSaISsEE:
.LFB1579:
	.loc 1 179 0
	.cfi_startproc
.LVL217:
	pushl	%ebp
	.cfi_def_cfa_offset 8
	.cfi_offset 5, -8
.LBB1845:
	.loc 1 180 0
	movl	$256, %ecx
.LBE1845:
	.loc 1 179 0
	pushl	%edi
	.cfi_def_cfa_offset 12
	.cfi_offset 7, -12
	pushl	%esi
	.cfi_def_cfa_offset 16
	.cfi_offset 6, -16
	pushl	%ebx
	.cfi_def_cfa_offset 20
	.cfi_offset 3, -20
	call	__x86.get_pc_thunk.bx
	addl	$_GLOBAL_OFFSET_TABLE_, %ebx
	leal	-2172(%esp), %esp
	.cfi_def_cfa_offset 2192
	.loc 1 179 0
	movl	2196(%esp), %eax
.LBB2024:
	.loc 1 180 0
	leal	108(%esp), %esi
.LBE2024:
	.loc 1 179 0
	movl	2192(%esp), %edx
.LBB2025:
	.loc 1 180 0
	movl	%esi, %edi
.LBE2025:
	.loc 1 179 0
	movl	%eax, 40(%esp)
	movl	%gs:20, %eax
	movl	%eax, 2156(%esp)
	xorl	%eax, %eax
.LBB2026:
	.loc 1 180 0
	rep stosl
	.loc 1 181 0
	testl	%edx, %edx
	.loc 1 180 0
	leal	1132(%esp), %edi
	movl	%edi, 32(%esp)
	movw	$256, %cx
	rep stosl
	.loc 1 181 0
	je	.L249
.LVL218:
.L156:
	.loc 1 186 0
	movl	%edx, 8(%esp)
	leal	.LC24@GOTOFF(%ebx), %eax
	movl	%esi, (%esp)
	movl	%eax, 4(%esp)
	call	sprintf@PLT
.LVL219:
	.loc 1 187 0
	movl	%esi, (%esp)
	leal	.LC25@GOTOFF(%ebx), %eax
	movl	%eax, 4(%esp)
	call	fopen@PLT
.LVL220:
	movl	%eax, 44(%esp)
.LVL221:
	.loc 1 188 0
	testl	%eax, %eax
	je	.L250
.LVL222:
	movl	40(%esp), %eax
.LVL223:
	movl	4(%eax), %ebp
.LVL224:
	movl	(%eax), %edi
.LVL225:
.LBB1846:
.LBB1847:
.LBB1848:
	.loc 2 630 0
	cmpl	%edi, %ebp
	je	.L159
	movl	%edi, %esi
	jmp	.L163
.LVL226:
	.p2align 4,,7
	.p2align 3
.L240:
.LBB1849:
.LBB1850:
.LBB1851:
.LBB1852:
.LBB1853:
.LBB1854:
.LBB1855:
.LBB1856:
.LBB1857:
.LBB1858:
.LBB1859:
.LBB1860:
.LBB1861:
.LBB1862:
.LBB1863:
	.loc 3 161 0 discriminator 4
	movl	%edx, 4(%esp)
.LVL227:
	movl	%eax, (%esp)
	call	_ZNSt12__node_alloc13_M_deallocateEPvj@PLT
.LVL228:
.L162:
.LBE1863:
.LBE1862:
.LBE1861:
.LBE1860:
.LBE1859:
.LBE1858:
.LBE1857:
.LBE1856:
	.loc 4 191 0 discriminator 2
	addl	$24, %esi
.LVL229:
	.loc 4 191 0 is_stmt 0 discriminator 1
	cmpl	%esi, %ebp
	je	.L251
.LVL230:
.L163:
.LBB1884:
.LBB1882:
.LBB1880:
.LBB1878:
.LBB1876:
.LBB1872:
.LBB1873:
	.loc 9 64 0 is_stmt 1
	movl	20(%esi), %eax
.LBE1873:
.LBE1872:
	.loc 9 96 0 discriminator 1
	cmpl	%esi, %eax
	je	.L162
	testl	%eax, %eax
	je	.L162
.LVL231:
	.loc 9 97 0
	movl	(%esi), %edx
	subl	%eax, %edx
.LVL232:
.LBB1874:
.LBB1870:
.LBB1868:
	.loc 3 161 0
	cmpl	$128, %edx
	jbe	.L240
.LVL233:
.LBB1864:
.LBB1865:
	.loc 5 135 0
	movl	%eax, (%esp)
.LVL234:
.LBE1865:
.LBE1864:
.LBE1868:
.LBE1870:
.LBE1874:
.LBE1876:
.LBE1878:
.LBE1880:
.LBE1882:
.LBE1884:
	.loc 4 191 0 discriminator 2
	addl	$24, %esi
.LVL235:
.LBB1885:
.LBB1883:
.LBB1881:
.LBB1879:
.LBB1877:
.LBB1875:
.LBB1871:
.LBB1869:
.LBB1867:
.LBB1866:
	.loc 5 135 0
	call	_ZdlPv@PLT
.LVL236:
.LBE1866:
.LBE1867:
.LBE1869:
.LBE1871:
.LBE1875:
.LBE1877:
.LBE1879:
.LBE1881:
.LBE1883:
.LBE1885:
	.loc 4 191 0 discriminator 1
	cmpl	%esi, %ebp
	jne	.L163
.LVL237:
	.p2align 4,,15
.L251:
.LBE1855:
.LBE1854:
.LBE1853:
.LBE1852:
.LBE1851:
	.loc 2 608 0
	movl	40(%esp), %eax
	movl	%edi, 4(%eax)
.LVL238:
.L159:
.LBE1850:
.LBE1849:
.LBE1848:
.LBE1847:
.LBE1846:
.LBB1886:
.LBB1887:
.LBB1888:
.LBB1889:
	.loc 9 112 0
	leal	60(%esp), %eax
	movl	%eax, 36(%esp)
.LVL239:
	.p2align 5,,30
	.p2align 3
.L164:
.LBE1889:
.LBE1888:
.LBE1887:
.LBE1886:
	.loc 1 193 0
	movl	44(%esp), %eax
	movl	$1024, 4(%esp)
	movl	%eax, 8(%esp)
	movl	32(%esp), %eax
	movl	%eax, (%esp)
	call	fgets@PLT
.LVL240:
	testl	%eax, %eax
	je	.L252
.LBB2021:
	.loc 1 195 0
	movl	32(%esp), %edx
.L165:
	movl	(%edx), %ecx
	addl	$4, %edx
	leal	-16843009(%ecx), %eax
	notl	%ecx
	andl	%ecx, %eax
	andl	$-2139062144, %eax
	je	.L165
.LBB1946:
.LBB1895:
.LBB1892:
	.loc 9 112 0
	movl	36(%esp), %edi
.LBE1892:
.LBE1895:
.LBE1946:
	.loc 1 195 0
	movl	%eax, %ecx
	shrl	$16, %ecx
	testl	$32896, %eax
.LBB1947:
.LBB1896:
.LBB1893:
	.loc 9 112 0
	movl	%edi, 76(%esp)
.LBE1893:
.LBE1896:
.LBE1947:
	.loc 1 195 0
	cmove	%ecx, %eax
.LBB1948:
.LBB1897:
.LBB1894:
.LBB1890:
.LBB1891:
	.loc 3 481 0
	movl	%edi, 80(%esp)
.LBE1891:
.LBE1890:
.LBE1894:
.LBE1897:
.LBE1948:
	.loc 1 195 0
	leal	2(%edx), %ecx
	cmove	%ecx, %edx
	addb	%al, %al
	movl	32(%esp), %eax
	sbbl	$3, %edx
	subl	%eax, %edx
.LBB1949:
.LBB1898:
.LBB1899:
	.file 12 "D:/android-ndk-r12b/build//../sources/cxx-stl/stlport/stlport/stl/char_traits.h"
	.loc 12 229 0
	movl	%eax, %ebp
.LBE1899:
.LBE1898:
.LBE1949:
	.loc 1 195 0
	movb	$0, 1131(%esp,%edx)
.LVL241:
.L167:
.LBB1950:
.LBB1901:
.LBB1900:
	.loc 12 229 0
	movl	0(%ebp), %edx
	addl	$4, %ebp
	leal	-16843009(%edx), %eax
	notl	%edx
	andl	%edx, %eax
	andl	$-2139062144, %eax
	je	.L167
	movl	%eax, %edx
	shrl	$16, %edx
	testl	$32896, %eax
	cmove	%edx, %eax
	leal	2(%ebp), %edx
	cmove	%edx, %ebp
	addb	%al, %al
	sbbl	$3, %ebp
	subl	32(%esp), %ebp
.LVL242:
.LBE1900:
.LBE1901:
.LBB1902:
.LBB1903:
.LBB1904:
.LBB1905:
	.loc 8 608 0 discriminator 1
	movl	%ebp, %eax
	addl	$1, %eax
.LVL243:
	jne	.L169
.LVL244:
.LBB1906:
.LBB1907:
	.loc 8 600 0
	leal	.LC21@GOTOFF(%ebx), %eax
.LVL245:
	movl	%eax, (%esp)
	call	_ZSt24__stl_throw_length_errorPKc@PLT
.LVL246:
	.p2align 4,,7
	.p2align 3
.L169:
.LBE1907:
.LBE1906:
	.loc 8 610 0
	cmpl	$16, %eax
	ja	.L191
	movl	36(%esp), %eax
.LVL247:
.L192:
.LBE1905:
.LBE1904:
.LBB1925:
.LBB1926:
.LBB1927:
	.loc 11 107 0
	testl	%ebp, %ebp
	movl	%eax, %edx
	je	.L173
	.loc 11 106 0
	cmpl	$4, %ebp
	movl	%ebp, %edx
	movl	32(%esp), %esi
	movl	%eax, %edi
	jnb	.L253
.L174:
	xorl	%ecx, %ecx
	testb	$2, %dl
	je	.L177
	movzwl	(%esi), %ecx
	movw	%cx, (%edi)
	movl	$2, %ecx
.L177:
	andl	$1, %edx
	je	.L178
	movzbl	(%esi,%ecx), %edx
	movb	%dl, (%edi,%ecx)
.L178:
	.loc 11 107 0 discriminator 1
	leal	(%eax,%ebp), %edx
.L173:
.LBE1927:
.LBE1926:
.LBE1925:
.LBE1903:
.LBE1902:
.LBE1950:
.LBB1951:
.LBB1952:
	.loc 2 380 0
	movl	40(%esp), %edi
.LBE1952:
.LBE1951:
.LBB1995:
.LBB1943:
.LBB1940:
	.loc 10 380 0
	movl	%edx, 76(%esp)
.LVL248:
.LBB1932:
.LBB1933:
.LBB1934:
.LBB1935:
.LBB1936:
	.loc 4 101 0
	movb	$0, (%edx)
.LVL249:
.LBE1936:
.LBE1935:
.LBE1934:
.LBE1933:
.LBE1932:
.LBE1940:
.LBE1943:
.LBE1995:
.LBB1996:
.LBB1992:
	.loc 2 380 0
	movl	4(%edi), %esi
	cmpl	8(%edi), %esi
	je	.L179
.LVL250:
.LBB1953:
.LBB1954:
.LBB1955:
	.loc 4 119 0
	testl	%esi, %esi
	je	.L180
	.loc 4 119 0 is_stmt 0 discriminator 3
	movl	36(%esp), %eax
.LVL251:
	movl	%esi, (%esp)
	movl	%eax, 4(%esp)
	call	_ZNSsC1ERKSs@PLT
.LVL252:
	movl	4(%edi), %esi
.LVL253:
.L180:
.LBE1955:
.LBE1954:
.LBE1953:
	.loc 2 382 0 is_stmt 1
	movl	40(%esp), %eax
	addl	$24, %esi
	movl	%esi, 4(%eax)
.LVL254:
.L181:
.LBE1992:
.LBE1996:
.LBB1997:
.LBB1998:
.LBB1999:
.LBB2000:
.LBB2001:
.LBB2002:
.LBB2003:
	.loc 9 64 0
	movl	80(%esp), %eax
.LBE2003:
.LBE2002:
	.loc 9 96 0 discriminator 1
	cmpl	36(%esp), %eax
	je	.L164
	testl	%eax, %eax
	je	.L164
.LVL255:
	.loc 9 97 0
	movl	60(%esp), %edx
	subl	%eax, %edx
.LVL256:
.LBB2004:
.LBB2005:
.LBB2006:
	.loc 3 161 0
	cmpl	$128, %edx
	ja	.L254
	.loc 3 161 0 is_stmt 0 discriminator 4
	movl	%edx, 4(%esp)
	movl	%eax, (%esp)
	call	_ZNSt12__node_alloc13_M_deallocateEPvj@PLT
.LVL257:
	jmp	.L164
.LVL258:
	.p2align 4,,7
	.p2align 3
.L253:
.LBE2006:
.LBE2005:
.LBE2004:
.LBE2001:
.LBE2000:
.LBE1999:
.LBE1998:
.LBE1997:
.LBB2016:
.LBB1944:
.LBB1941:
.LBB1937:
.LBB1930:
.LBB1928:
	.loc 11 106 0 is_stmt 1
	testb	$1, %al
	jne	.L255
.LVL259:
.L175:
	testl	$2, %edi
	.p2align 4,,3
	jne	.L256
.L176:
	movl	%edx, %ecx
	shrl	$2, %ecx
	rep movsl
	jmp	.L174
.LVL260:
	.p2align 4,,7
	.p2align 3
.L191:
.LBE1928:
.LBE1930:
.LBE1937:
.LBB1938:
.LBB1924:
.LBB1908:
.LBB1909:
.LBB1910:
.LBB1911:
.LBB1912:
	.loc 3 347 0
	movl	%eax, 56(%esp)
.LVL261:
.LBB1913:
.LBB1914:
	.loc 3 158 0
	cmpl	$128, %eax
	jbe	.L171
.LVL262:
.LBB1915:
.LBB1916:
	.loc 5 134 0
	movl	%eax, (%esp)
	call	_Znwj@PLT
.LVL263:
.L172:
.LBE1916:
.LBE1915:
.LBE1914:
.LBE1913:
.LBE1912:
.LBE1911:
.LBE1910:
.LBE1909:
.LBE1908:
	.loc 8 613 0
	movl	56(%esp), %edx
	.loc 8 611 0
	movl	%eax, 80(%esp)
	.loc 8 612 0
	movl	%eax, 76(%esp)
	.loc 8 613 0
	addl	%eax, %edx
	movl	%edx, 60(%esp)
	jmp	.L192
.LVL264:
	.p2align 4,,7
	.p2align 3
.L171:
.LBB1923:
.LBB1922:
.LBB1921:
.LBB1920:
.LBB1919:
.LBB1918:
.LBB1917:
	.loc 3 158 0 discriminator 4
	leal	56(%esp), %eax
.LVL265:
	movl	%eax, (%esp)
	call	_ZNSt12__node_alloc11_M_allocateERj@PLT
.LVL266:
	jmp	.L172
.LVL267:
	.p2align 4,,7
	.p2align 3
.L254:
.LBE1917:
.LBE1918:
.LBE1919:
.LBE1920:
.LBE1921:
.LBE1922:
.LBE1923:
.LBE1924:
.LBE1938:
.LBE1941:
.LBE1944:
.LBE2016:
.LBB2017:
.LBB2015:
.LBB2014:
.LBB2013:
.LBB2012:
.LBB2011:
.LBB2010:
.LBB2009:
.LBB2007:
.LBB2008:
	.loc 5 135 0
	movl	%eax, (%esp)
	call	_ZdlPv@PLT
.LVL268:
	.p2align 4,,5
	jmp	.L164
.LVL269:
	.p2align 4,,7
	.p2align 3
.L252:
.LBE2008:
.LBE2007:
.LBE2009:
.LBE2010:
.LBE2011:
.LBE2012:
.LBE2013:
.LBE2014:
.LBE2015:
.LBE2017:
.LBE2021:
	.loc 1 201 0
	movl	44(%esp), %eax
	movl	%eax, (%esp)
	call	fclose@PLT
.LVL270:
.L155:
.LBE2026:
	.loc 1 203 0
	movl	2156(%esp), %eax
	xorl	%gs:20, %eax
	jne	.L257
	leal	2172(%esp), %esp
	.cfi_remember_state
	.cfi_def_cfa_offset 20
	popl	%ebx
	.cfi_restore 3
	.cfi_def_cfa_offset 16
	popl	%esi
	.cfi_restore 6
	.cfi_def_cfa_offset 12
	popl	%edi
	.cfi_restore 7
	.cfi_def_cfa_offset 8
	popl	%ebp
	.cfi_restore 5
	.cfi_def_cfa_offset 4
	ret
.LVL271:
	.p2align 4,,7
	.p2align 3
.L179:
	.cfi_restore_state
.LBB2027:
.LBB2022:
.LBB2018:
.LBB1993:
.LBB1956:
.LBB1957:
.LBB1958:
.LBB1959:
.LBB1960:
.LBB1961:
.LBB1962:
	.loc 2 416 0 discriminator 1
	movl	40(%esp), %edi
.LVL272:
	movl	36(%esp), %eax
.LVL273:
	cmpl	%eax, (%edi)
	ja	.L184
	cmpl	%eax, %esi
	jbe	.L184
.LVL274:
.LBE1962:
.LBE1961:
.LBE1960:
.LBB1963:
.LBB1964:
	.loc 2 150 0
	movl	36(%esp), %eax
	leal	84(%esp), %edi
	movl	%edi, (%esp)
	movl	%eax, 4(%esp)
	call	_ZNSsC1ERKSs@PLT
.LVL275:
	.loc 2 151 0
	movl	$1, 20(%esp)
	leal	56(%esp), %eax
	movl	%eax, 12(%esp)
	movl	40(%esp), %eax
	movl	$1, 16(%esp)
	movl	%edi, 8(%esp)
	movl	%esi, 4(%esp)
	movl	%eax, (%esp)
	call	_ZNSt6vectorISsSaISsEE22_M_insert_overflow_auxEPSsRKSsRKSt12__false_typejb@PLT
.LVL276:
.LBB1965:
.LBB1966:
.LBB1967:
.LBB1968:
.LBB1969:
.LBB1970:
.LBB1971:
	.loc 9 64 0
	movl	104(%esp), %eax
.LBE1971:
.LBE1970:
	.loc 9 96 0 discriminator 1
	cmpl	%edi, %eax
	je	.L181
	testl	%eax, %eax
	je	.L181
.LVL277:
	.loc 9 97 0
	movl	84(%esp), %edx
	subl	%eax, %edx
.LVL278:
.LBB1972:
.LBB1973:
.LBB1974:
	.loc 3 161 0
	cmpl	$128, %edx
	ja	.L258
	.loc 3 161 0 is_stmt 0 discriminator 4
	movl	%edx, 4(%esp)
	movl	%eax, (%esp)
	call	_ZNSt12__node_alloc13_M_deallocateEPvj@PLT
.LVL279:
	jmp	.L181
.LVL280:
	.p2align 4,,7
	.p2align 3
.L184:
.LBE1974:
.LBE1973:
.LBE1972:
.LBE1969:
.LBE1968:
.LBE1967:
.LBE1966:
.LBE1965:
.LBE1964:
.LBE1963:
.LBB1986:
	.loc 2 154 0 is_stmt 1
	movl	$1, 20(%esp)
	leal	56(%esp), %eax
	movl	%eax, 12(%esp)
	movl	36(%esp), %eax
	movl	$1, 16(%esp)
	movl	%esi, 4(%esp)
	movl	%eax, 8(%esp)
	movl	40(%esp), %eax
	movl	%eax, (%esp)
	call	_ZNSt6vectorISsSaISsEE22_M_insert_overflow_auxEPSsRKSsRKSt12__false_typejb@PLT
.LVL281:
	jmp	.L181
.LVL282:
	.p2align 4,,7
	.p2align 3
.L256:
.LBE1986:
.LBE1959:
.LBE1958:
.LBE1957:
.LBE1956:
.LBE1993:
.LBE2018:
.LBB2019:
.LBB1945:
.LBB1942:
.LBB1939:
.LBB1931:
.LBB1929:
	.loc 11 106 0
	movzwl	(%esi), %ecx
	leal	2(%edi), %edi
	subl	$2, %edx
	leal	2(%esi), %esi
	movw	%cx, -2(%edi)
	jmp	.L176
.LVL283:
	.p2align 4,,7
	.p2align 3
.L255:
	movzbl	(%esi), %edx
.LVL284:
	leal	1(%eax), %edi
	leal	1133(%esp), %esi
	movb	%dl, (%eax)
	leal	-1(%ebp), %edx
	jmp	.L175
.LVL285:
	.p2align 4,,7
	.p2align 3
.L249:
.LBE1929:
.LBE1931:
.LBE1939:
.LBE1942:
.LBE1945:
.LBE2019:
.LBE2022:
	.loc 1 182 0
	call	getpid@PLT
.LVL286:
	movl	%eax, %edx
.LVL287:
	jmp	.L156
.LVL288:
.L250:
	.loc 1 189 0
	movl	%esi, 12(%esp)
	leal	.LC26@GOTOFF(%ebx), %eax
.LVL289:
	movl	%eax, 8(%esp)
	leal	.LC2@GOTOFF(%ebx), %eax
	movl	$3, (%esp)
	movl	%eax, 4(%esp)
	call	__android_log_print@PLT
.LVL290:
	jmp	.L155
.LVL291:
.L258:
.LBB2023:
.LBB2020:
.LBB1994:
.LBB1991:
.LBB1990:
.LBB1989:
.LBB1988:
.LBB1987:
.LBB1985:
.LBB1984:
.LBB1983:
.LBB1982:
.LBB1981:
.LBB1980:
.LBB1979:
.LBB1978:
.LBB1977:
.LBB1975:
.LBB1976:
	.loc 5 135 0
	movl	%eax, (%esp)
	call	_ZdlPv@PLT
.LVL292:
	.p2align 4,,5
	jmp	.L181
.LVL293:
.L257:
.LBE1976:
.LBE1975:
.LBE1977:
.LBE1978:
.LBE1979:
.LBE1980:
.LBE1981:
.LBE1982:
.LBE1983:
.LBE1984:
.LBE1985:
.LBE1987:
.LBE1988:
.LBE1989:
.LBE1990:
.LBE1991:
.LBE1994:
.LBE2020:
.LBE2023:
.LBE2027:
	.loc 1 203 0
	.p2align 4,,5
	call	__stack_chk_fail_local
.LVL294:
	.cfi_endproc
.LFE1579:
	.size	_Z8ReadMapsiRSt6vectorISsSaISsEE, .-_Z8ReadMapsiRSt6vectorISsSaISsEE
	.section	.text.unlikely._Z8ReadMapsiRSt6vectorISsSaISsEE
.LCOLDE27:
	.section	.text._Z8ReadMapsiRSt6vectorISsSaISsEE
.LHOTE27:
	.section	.rodata.str1.1
.LC28:
	.string	"FindLibraryPath: found %s"
	.section	.text.unlikely.FindLibraryPath,"ax",@progbits
.LCOLDB29:
	.section	.text.FindLibraryPath,"ax",@progbits
.LHOTB29:
	.p2align 4,,15
	.globl	FindLibraryPath
	.type	FindLibraryPath, @function
FindLibraryPath:
.LFB1580:
	.loc 1 206 0
	.cfi_startproc
.LVL295:
	pushl	%ebp
	.cfi_def_cfa_offset 8
	.cfi_offset 5, -8
	pushl	%edi
	.cfi_def_cfa_offset 12
	.cfi_offset 7, -12
	pushl	%esi
	.cfi_def_cfa_offset 16
	.cfi_offset 6, -16
	pushl	%ebx
	.cfi_def_cfa_offset 20
	.cfi_offset 3, -20
	call	__x86.get_pc_thunk.bx
	addl	$_GLOBAL_OFFSET_TABLE_, %ebx
	leal	-76(%esp), %esp
	.cfi_def_cfa_offset 96
	.loc 1 206 0
	movl	96(%esp), %eax
.LBB2086:
	.loc 1 208 0
	movl	$0, (%esp)
.LBB2087:
.LBB2088:
.LBB2089:
	.loc 2 67 0
	movl	$0, 48(%esp)
.LBE2089:
.LBE2088:
.LBE2087:
.LBE2086:
	.loc 1 206 0
	movl	%eax, 28(%esp)
	movl	100(%esp), %eax
.LBB2149:
.LBB2094:
.LBB2093:
.LBB2092:
	.loc 2 67 0
	movl	$0, 52(%esp)
.LBB2090:
.LBB2091:
	.loc 3 481 0
	movl	$0, 56(%esp)
.LBE2091:
.LBE2090:
.LBE2092:
.LBE2093:
.LBE2094:
.LBE2149:
	.loc 1 206 0
	movl	%eax, 44(%esp)
	movl	%gs:20, %eax
	movl	%eax, 60(%esp)
	xorl	%eax, %eax
.LVL296:
.LBB2150:
	.loc 1 208 0
	leal	48(%esp), %eax
.LVL297:
	movl	%eax, 4(%esp)
	call	_Z8ReadMapsiRSt6vectorISsSaISsEE@PLT
.LVL298:
	movl	48(%esp), %eax
	movl	%eax, 36(%esp)
	movl	%eax, %ecx
	movl	52(%esp), %eax
	movl	%eax, 40(%esp)
.LVL299:
.LBB2095:
.LBB2096:
.LBB2097:
	.loc 2 192 0
	movl	%eax, %edi
	subl	%ecx, %edi
	movl	%ecx, %eax
	sarl	$3, %edi
	imull	$-1431655765, %edi, %ecx
	movl	%ecx, 32(%esp)
.LBE2097:
.LBE2096:
	.loc 1 210 0 discriminator 1
	testl	%ecx, %ecx
	je	.L275
	leal	20(%eax), %esi
	xorl	%ebp, %ebp
	jmp	.L264
.LVL300:
	.p2align 4,,7
	.p2align 3
.L261:
	.loc 1 210 0 is_stmt 0 discriminator 2
	addl	$1, %ebp
.LVL301:
	addl	$24, %esi
.LVL302:
	.loc 1 210 0 discriminator 1
	cmpl	32(%esp), %ebp
	je	.L275
.LVL303:
.L264:
	movl	(%esi), %edi
.LVL304:
.LBB2098:
	.loc 1 213 0 is_stmt 1 discriminator 2
	movl	28(%esp), %eax
	movl	%edi, (%esp)
	movl	%eax, 4(%esp)
	call	strstr@PLT
.LVL305:
	.loc 1 213 0 is_stmt 0
	testl	%eax, %eax
	je	.L261
	.loc 1 214 0 is_stmt 1 discriminator 2
	movl	%edi, 12(%esp)
	leal	.LC2@GOTOFF(%ebx), %esi
.LVL306:
	leal	.LC28@GOTOFF(%ebx), %edi
	movl	%eax, %ebp
.LVL307:
	movl	%esi, 4(%esp)
	movl	$3, (%esp)
	movl	%edi, 8(%esp)
	call	__android_log_print@PLT
.LVL308:
	.loc 1 215 0 discriminator 1
	cmpb	$32, 0(%ebp)
	je	.L262
	.p2align 5,,30
	.p2align 3
.L263:
	.loc 1 215 0 is_stmt 0 discriminator 2
	subl	$1, %ebp
.LVL309:
	.loc 1 215 0 discriminator 1
	cmpb	$32, 0(%ebp)
	jne	.L263
.L262:
	.loc 1 217 0 is_stmt 1
	movl	44(%esp), %eax
	.loc 1 216 0
	addl	$1, %ebp
.LVL310:
	.loc 1 217 0
	movl	%ebp, 4(%esp)
	movl	%eax, (%esp)
	call	strcpy@PLT
.LVL311:
	.loc 1 218 0
	movl	%edi, 8(%esp)
	movl	%esi, 4(%esp)
	movl	%ebp, 12(%esp)
	movl	$3, (%esp)
	call	__android_log_print@PLT
.LVL312:
	movl	48(%esp), %edi
	movl	52(%esp), %esi
	.loc 1 219 0
	jmp	.L260
.LVL313:
	.p2align 4,,7
	.p2align 3
.L275:
.LBE2098:
	.loc 1 210 0 discriminator 1
	movl	40(%esp), %esi
	movl	36(%esp), %edi
.L260:
.LVL314:
.LBE2095:
.LBB2099:
.LBB2100:
.LBB2101:
.LBB2102:
.LBB2103:
.LBB2104:
.LBB2105:
	.loc 4 191 0 discriminator 1
	cmpl	%esi, %edi
	jne	.L269
	jmp	.L265
.LVL315:
	.p2align 4,,7
	.p2align 3
.L285:
.LBB2106:
.LBB2107:
.LBB2108:
.LBB2109:
.LBB2110:
.LBB2111:
.LBB2112:
.LBB2113:
	.loc 3 161 0 discriminator 4
	movl	%edx, 4(%esp)
.LVL316:
	movl	%eax, (%esp)
	call	_ZNSt12__node_alloc13_M_deallocateEPvj@PLT
.LVL317:
.L268:
.LBE2113:
.LBE2112:
.LBE2111:
.LBE2110:
.LBE2109:
.LBE2108:
.LBE2107:
.LBE2106:
	.loc 4 191 0 discriminator 1
	cmpl	%edi, %esi
	je	.L288
.LVL318:
.L269:
.LBB2129:
.LBB2127:
.LBB2125:
.LBB2123:
.LBB2121:
.LBB2118:
.LBB2119:
	.loc 9 64 0
	movl	-4(%esi), %eax
.LBE2119:
.LBE2118:
.LBE2121:
.LBE2123:
.LBE2125:
.LBE2127:
.LBE2129:
.LBB2130:
.LBB2131:
	.file 13 "D:/android-ndk-r12b/build//../sources/cxx-stl/stlport/stlport/stl/_iterator.h"
	.loc 13 77 0
	subl	$24, %esi
.LVL319:
.LBE2131:
.LBE2130:
.LBB2132:
.LBB2128:
.LBB2126:
.LBB2124:
.LBB2122:
	.loc 9 96 0 discriminator 1
	cmpl	%esi, %eax
	je	.L268
	testl	%eax, %eax
	je	.L268
.LVL320:
	.loc 9 97 0
	movl	(%esi), %edx
	subl	%eax, %edx
.LVL321:
.LBB2120:
.LBB2117:
.LBB2116:
	.loc 3 161 0
	cmpl	$128, %edx
	jbe	.L285
.LVL322:
.LBB2114:
.LBB2115:
	.loc 5 135 0
	movl	%eax, (%esp)
.LVL323:
	call	_ZdlPv@PLT
.LVL324:
.LBE2115:
.LBE2114:
.LBE2116:
.LBE2117:
.LBE2120:
.LBE2122:
.LBE2124:
.LBE2126:
.LBE2128:
.LBE2132:
	.loc 4 191 0 discriminator 1
	cmpl	%edi, %esi
	jne	.L269
.LVL325:
	.p2align 4,,15
.L288:
	movl	48(%esp), %esi
.LVL326:
.L265:
.LBE2105:
.LBE2104:
.LBE2103:
.LBE2102:
.LBE2101:
.LBB2133:
.LBB2134:
	.loc 2 87 0
	testl	%esi, %esi
	je	.L259
.LVL327:
	.loc 2 88 0
	movl	56(%esp), %eax
	subl	%esi, %eax
.LVL328:
.LBB2135:
.LBB2136:
.LBB2137:
.LBB2138:
	.loc 3 161 0
	cmpl	$128, %eax
	ja	.L289
	.loc 3 161 0 is_stmt 0 discriminator 4
	movl	%eax, 4(%esp)
	movl	%esi, (%esp)
	call	_ZNSt12__node_alloc13_M_deallocateEPvj@PLT
.LVL329:
.L259:
.LBE2138:
.LBE2137:
.LBE2136:
.LBE2135:
.LBE2134:
.LBE2133:
.LBE2100:
.LBE2099:
.LBE2150:
	.loc 1 222 0 is_stmt 1
	movl	60(%esp), %eax
	xorl	%gs:20, %eax
	jne	.L290
	leal	76(%esp), %esp
	.cfi_remember_state
	.cfi_def_cfa_offset 20
	popl	%ebx
	.cfi_restore 3
	.cfi_def_cfa_offset 16
	popl	%esi
	.cfi_restore 6
	.cfi_def_cfa_offset 12
	popl	%edi
	.cfi_restore 7
	.cfi_def_cfa_offset 8
.LVL330:
	popl	%ebp
	.cfi_restore 5
	.cfi_def_cfa_offset 4
	ret
.LVL331:
	.p2align 4,,7
	.p2align 3
.L289:
	.cfi_restore_state
.LBB2151:
.LBB2148:
.LBB2147:
.LBB2146:
.LBB2145:
.LBB2144:
.LBB2143:
.LBB2142:
.LBB2141:
.LBB2139:
.LBB2140:
	.loc 5 135 0
	movl	%esi, (%esp)
	call	_ZdlPv@PLT
.LVL332:
	jmp	.L259
.LVL333:
.L290:
.LBE2140:
.LBE2139:
.LBE2141:
.LBE2142:
.LBE2143:
.LBE2144:
.LBE2145:
.LBE2146:
.LBE2147:
.LBE2148:
.LBE2151:
	.loc 1 222 0
	.p2align 4,,5
	call	__stack_chk_fail_local
.LVL334:
	.cfi_endproc
.LFE1580:
	.size	FindLibraryPath, .-FindLibraryPath
	.section	.text.unlikely.FindLibraryPath
.LCOLDE29:
	.section	.text.FindLibraryPath
.LHOTE29:
	.section	.rodata.str1.1
.LC30:
	.string	"libmono.so"
	.section	.rodata.str1.4
	.align 4
.LC31:
	.string	"MonoLoadAndInvokeAssembly: libmono.so not found\n"
	.align 4
.LC32:
	.string	"MonoLoadAndInvokeAssembly: found libmono.so [%s]\n"
	.section	.rodata.str1.1
.LC33:
	.string	"mono_domain_get"
.LC34:
	.string	"mono_domain_get %08X"
.LC35:
	.string	"domain %08X"
.LC36:
	.string	"mono_image_open_from_data"
	.section	.rodata.str1.4
	.align 4
.LC37:
	.string	"mono_image_open_from_data %08X"
	.section	.rodata.str1.1
.LC38:
	.string	"mono_domain_assembly_open"
	.section	.rodata.str1.4
	.align 4
.LC39:
	.string	"mono_domain_assembly_open %08X"
	.section	.rodata.str1.1
.LC40:
	.string	"mono_get_root_domain"
.LC41:
	.string	"mono_get_root_domain %08X"
.LC42:
	.string	"rootdomain %08X"
.LC43:
	.string	"mono_thread_attach"
.LC44:
	.string	"mono_thread_attach %08X"
.LC45:
	.string	"mono_assembly_load_from_full"
	.section	.rodata.str1.4
	.align 4
.LC46:
	.string	"mono_assembly_load_from_full %08X"
	.section	.rodata.str1.1
.LC47:
	.string	"mono_assembly_get_image"
.LC48:
	.string	"mono_assembly_get_image %08X"
.LC49:
	.string	"mono_class_from_name"
.LC50:
	.string	"mono_class_from_name %08X"
	.section	.rodata.str1.4
	.align 4
.LC51:
	.string	"mono_class_get_method_from_name"
	.align 4
.LC52:
	.string	"mono_class_get_method_from_name %08X"
	.section	.rodata.str1.1
.LC53:
	.string	"mono_runtime_invoke"
.LC54:
	.string	"mono_runtime_invoke %08X"
.LC55:
	.string	"buffer size=%d"
.LC56:
	.string	"%02X %02X %02X %02X %02X"
.LC57:
	.string	"raw_image %08X status=%08X"
.LC58:
	.string	"assembly %08X"
.LC59:
	.string	"image %08X"
.LC60:
	.string	"Namespace=%sd name=%s"
.LC61:
	.string	"monoclass %08X"
.LC62:
	.string	"method %08X"
.LC63:
	.string	"invoke done"
	.section	.text.unlikely.MonoLoadAndInvokeAssembly,"ax",@progbits
.LCOLDB64:
	.section	.text.MonoLoadAndInvokeAssembly,"ax",@progbits
.LHOTB64:
	.p2align 4,,15
	.globl	MonoLoadAndInvokeAssembly
	.type	MonoLoadAndInvokeAssembly, @function
MonoLoadAndInvokeAssembly:
.LFB1577:
	.loc 1 82 0
	.cfi_startproc
.LVL335:
	pushl	%ebp
	.cfi_def_cfa_offset 8
	.cfi_offset 5, -8
.LBB2171:
	.loc 1 83 0
	movl	$256, %ecx
.LBE2171:
	.loc 1 82 0
	pushl	%edi
	.cfi_def_cfa_offset 12
	.cfi_offset 7, -12
	pushl	%esi
	.cfi_def_cfa_offset 16
	.cfi_offset 6, -16
	pushl	%ebx
	.cfi_def_cfa_offset 20
	.cfi_offset 3, -20
	call	__x86.get_pc_thunk.bx
	addl	$_GLOBAL_OFFSET_TABLE_, %ebx
	leal	-1116(%esp), %esp
	.cfi_def_cfa_offset 1136
	.loc 1 82 0
	movl	1136(%esp), %eax
.LBB2196:
	.loc 1 83 0
	leal	76(%esp), %edi
.LBE2196:
	.loc 1 82 0
	movl	%eax, 36(%esp)
	movl	1140(%esp), %eax
	movl	%eax, 32(%esp)
	movl	1144(%esp), %eax
	movl	%eax, 40(%esp)
	movl	1148(%esp), %eax
	movl	%eax, 44(%esp)
	movl	%gs:20, %eax
	movl	%eax, 1100(%esp)
	xorl	%eax, %eax
.LBB2197:
	.loc 1 83 0
	rep stosl
	.loc 1 84 0
	leal	.LC30@GOTOFF(%ebx), %eax
	leal	76(%esp), %edi
	movl	$1024, 8(%esp)
	movl	%edi, 4(%esp)
	movl	%eax, (%esp)
	call	FindLibraryPath@PLT
.LVL336:
	.loc 1 85 0
	cmpb	$0, 76(%esp)
	je	.L301
	.loc 1 89 0
	leal	.LC2@GOTOFF(%ebx), %esi
	leal	.LC32@GOTOFF(%ebx), %eax
	movl	%edi, 12(%esp)
	movl	%eax, 8(%esp)
	movl	$3, (%esp)
	movl	%esi, 4(%esp)
	call	__android_log_print@PLT
.LVL337:
	.loc 1 90 0
	movl	%edi, (%esp)
	movl	$0, 4(%esp)
	call	dlopen@PLT
.LVL338:
	movl	%eax, %edi
.LVL339:
	.loc 1 91 0
	leal	.LC33@GOTOFF(%ebx), %eax
.LVL340:
	movl	%edi, (%esp)
	movl	%eax, 4(%esp)
	call	dlsym@PLT
.LVL341:
	movl	mono_domain_get@GOT(%ebx), %ebp
	movl	%eax, 0(%ebp)
	.loc 1 92 0
	movl	%eax, 12(%esp)
	leal	.LC34@GOTOFF(%ebx), %eax
	movl	%esi, 4(%esp)
	movl	$3, (%esp)
	movl	%eax, 8(%esp)
	call	__android_log_print@PLT
.LVL342:
	.loc 1 93 0
	call	*0(%ebp)
.LVL343:
	.loc 1 94 0
	movl	%esi, 4(%esp)
	movl	$3, (%esp)
	movl	%eax, 12(%esp)
	leal	.LC35@GOTOFF(%ebx), %eax
.LVL344:
	movl	%eax, 8(%esp)
	call	__android_log_print@PLT
.LVL345:
	.loc 1 96 0
	movl	%edi, (%esp)
	leal	.LC36@GOTOFF(%ebx), %eax
	movl	%eax, 4(%esp)
	call	dlsym@PLT
.LVL346:
	movl	mono_image_open_from_data@GOT(%ebx), %ecx
	movl	%eax, (%ecx)
	.loc 1 97 0
	movl	%eax, 12(%esp)
	leal	.LC37@GOTOFF(%ebx), %eax
	movl	%esi, 4(%esp)
	movl	$3, (%esp)
	movl	%eax, 8(%esp)
	call	__android_log_print@PLT
.LVL347:
	.loc 1 99 0
	movl	%edi, (%esp)
	leal	.LC38@GOTOFF(%ebx), %eax
	movl	%eax, 4(%esp)
	call	dlsym@PLT
.LVL348:
	movl	mono_domain_assembly_open@GOT(%ebx), %edx
	movl	%eax, (%edx)
	.loc 1 100 0
	movl	%eax, 12(%esp)
	leal	.LC39@GOTOFF(%ebx), %eax
	movl	%esi, 4(%esp)
	movl	$3, (%esp)
	movl	%eax, 8(%esp)
	call	__android_log_print@PLT
.LVL349:
	.loc 1 102 0
	movl	%edi, (%esp)
	leal	.LC40@GOTOFF(%ebx), %eax
	movl	%eax, 4(%esp)
	call	dlsym@PLT
.LVL350:
	movl	mono_get_root_domain@GOT(%ebx), %ebp
	movl	%eax, 0(%ebp)
	.loc 1 103 0
	movl	%eax, 12(%esp)
	leal	.LC41@GOTOFF(%ebx), %eax
	movl	%esi, 4(%esp)
	movl	$3, (%esp)
	movl	%eax, 8(%esp)
	call	__android_log_print@PLT
.LVL351:
	.loc 1 104 0
	call	*0(%ebp)
.LVL352:
	.loc 1 105 0
	movl	%esi, 4(%esp)
	movl	$3, (%esp)
	movl	%eax, 12(%esp)
	.loc 1 104 0
	movl	%eax, %ebp
.LVL353:
	.loc 1 105 0
	leal	.LC42@GOTOFF(%ebx), %eax
.LVL354:
	movl	%eax, 8(%esp)
	call	__android_log_print@PLT
.LVL355:
	.loc 1 107 0
	movl	%edi, (%esp)
	leal	.LC43@GOTOFF(%ebx), %eax
	movl	%eax, 4(%esp)
	call	dlsym@PLT
.LVL356:
	movl	mono_thread_attach@GOT(%ebx), %ecx
	movl	%eax, (%ecx)
	.loc 1 108 0
	movl	%eax, 12(%esp)
	leal	.LC44@GOTOFF(%ebx), %eax
	movl	%esi, 4(%esp)
	movl	$3, (%esp)
	movl	%eax, 8(%esp)
	call	__android_log_print@PLT
.LVL357:
	.loc 1 109 0
	movl	mono_thread_attach@GOT(%ebx), %eax
	movl	%ebp, (%esp)
	call	*(%eax)
.LVL358:
	.loc 1 111 0
	movl	%edi, (%esp)
	leal	.LC45@GOTOFF(%ebx), %eax
	movl	%eax, 4(%esp)
	call	dlsym@PLT
.LVL359:
	movl	mono_assembly_load_from_full@GOT(%ebx), %ecx
	movl	%eax, (%ecx)
	.loc 1 112 0
	movl	%eax, 12(%esp)
	leal	.LC46@GOTOFF(%ebx), %eax
	movl	%esi, 4(%esp)
	movl	$3, (%esp)
	movl	%eax, 8(%esp)
	call	__android_log_print@PLT
.LVL360:
	.loc 1 114 0
	movl	%edi, (%esp)
	leal	.LC47@GOTOFF(%ebx), %eax
	movl	%eax, 4(%esp)
	call	dlsym@PLT
.LVL361:
	movl	mono_assembly_get_image@GOT(%ebx), %ecx
	movl	%eax, (%ecx)
	.loc 1 115 0
	movl	%eax, 12(%esp)
	leal	.LC48@GOTOFF(%ebx), %eax
	movl	%esi, 4(%esp)
	movl	$3, (%esp)
	movl	%eax, 8(%esp)
	call	__android_log_print@PLT
.LVL362:
	.loc 1 117 0
	movl	%edi, (%esp)
	leal	.LC49@GOTOFF(%ebx), %eax
	movl	%eax, 4(%esp)
	call	dlsym@PLT
.LVL363:
	movl	mono_class_from_name@GOT(%ebx), %edx
	movl	%eax, (%edx)
	.loc 1 118 0
	movl	%eax, 12(%esp)
	leal	.LC50@GOTOFF(%ebx), %eax
	movl	%esi, 4(%esp)
	movl	$3, (%esp)
	movl	%eax, 8(%esp)
	call	__android_log_print@PLT
.LVL364:
	.loc 1 120 0
	movl	%edi, (%esp)
	leal	.LC51@GOTOFF(%ebx), %eax
	movl	%eax, 4(%esp)
	call	dlsym@PLT
.LVL365:
	movl	mono_class_get_method_from_name@GOT(%ebx), %ecx
	movl	%eax, (%ecx)
	.loc 1 121 0
	movl	%eax, 12(%esp)
	leal	.LC52@GOTOFF(%ebx), %eax
	movl	%esi, 4(%esp)
	movl	$3, (%esp)
	movl	%eax, 8(%esp)
	call	__android_log_print@PLT
.LVL366:
	.loc 1 123 0
	movl	%edi, (%esp)
	leal	.LC53@GOTOFF(%ebx), %eax
	movl	%eax, 4(%esp)
	call	dlsym@PLT
.LVL367:
	movl	mono_runtime_invoke@GOT(%ebx), %edx
	movl	%eax, (%edx)
	.loc 1 124 0
	movl	%eax, 12(%esp)
	leal	.LC54@GOTOFF(%ebx), %eax
	movl	%esi, 4(%esp)
	movl	$3, (%esp)
	movl	%eax, 8(%esp)
	call	__android_log_print@PLT
.LVL368:
	.loc 1 129 0
	movl	36(%esp), %ecx
	leal	64(%esp), %eax
	movl	%eax, (%esp)
	movl	%ecx, 4(%esp)
	call	_Z8ReadFilePKc@PLT
	.cfi_def_cfa_offset 1132
.LVL369:
	subl	$4, %esp
	.cfi_def_cfa_offset 1136
.LVL370:
.LBB2172:
.LBB2173:
	.loc 2 192 0
	movl	68(%esp), %eax
.LBE2173:
.LBE2172:
	.loc 1 134 0 discriminator 2
	leal	60(%esp), %ebp
.LVL371:
	.loc 1 130 0 discriminator 1
	movl	%esi, 4(%esp)
	movl	$3, (%esp)
.LBB2175:
.LBB2174:
	.loc 2 192 0
	subl	64(%esp), %eax
.LBE2174:
.LBE2175:
	.loc 1 130 0 discriminator 1
	movl	%eax, 12(%esp)
	leal	.LC55@GOTOFF(%ebx), %eax
	movl	%eax, 8(%esp)
	call	__android_log_print@PLT
.LVL372:
	movl	64(%esp), %eax
.LVL373:
	.loc 1 131 0
	movzbl	4(%eax), %edx
	movl	%edx, 28(%esp)
	movzbl	3(%eax), %edx
	movl	%edx, 24(%esp)
	movzbl	2(%eax), %edx
	movl	%edx, 20(%esp)
	movzbl	1(%eax), %edx
	movl	%edx, 16(%esp)
	movzbl	(%eax), %eax
	.loc 1 131 0 is_stmt 0 discriminator 5
	movl	%esi, 4(%esp)
	movl	$3, (%esp)
	.loc 1 131 0
	movl	%eax, 12(%esp)
	.loc 1 131 0 discriminator 5
	leal	.LC56@GOTOFF(%ebx), %eax
	movl	%eax, 8(%esp)
	call	__android_log_print@PLT
.LVL374:
	movl	64(%esp), %ecx
.LVL375:
.LBB2176:
.LBB2177:
	.loc 2 192 0 is_stmt 1
	movl	68(%esp), %eax
.LBE2177:
.LBE2176:
	.loc 1 134 0 discriminator 2
	movl	%ebp, 12(%esp)
	.loc 1 133 0
	movl	$0, 60(%esp)
	.loc 1 134 0 discriminator 2
	movl	%ecx, (%esp)
.LBB2179:
.LBB2178:
	.loc 2 192 0
	subl	%ecx, %eax
.LBE2178:
.LBE2179:
	.loc 1 134 0 discriminator 2
	movl	%eax, 4(%esp)
	movl	mono_image_open_from_data@GOT(%ebx), %eax
	movl	$1, 8(%esp)
	call	*(%eax)
.LVL376:
	.loc 1 135 0
	movl	%esi, 4(%esp)
	movl	$3, (%esp)
	.loc 1 134 0 discriminator 2
	movl	%eax, %edi
.LVL377:
	.loc 1 135 0
	movl	60(%esp), %eax
.LVL378:
	movl	%edi, 12(%esp)
	movl	%eax, 16(%esp)
	leal	.LC57@GOTOFF(%ebx), %eax
	movl	%eax, 8(%esp)
	call	__android_log_print@PLT
.LVL379:
	.loc 1 137 0
	movl	mono_assembly_load_from_full@GOT(%ebx), %eax
	movl	%ebp, 8(%esp)
	movl	%edi, (%esp)
	movl	$0, 12(%esp)
	movl	$0, 4(%esp)
	call	*(%eax)
.LVL380:
	.loc 1 138 0
	movl	%esi, 4(%esp)
	movl	$3, (%esp)
	movl	%eax, 12(%esp)
	.loc 1 137 0
	movl	%eax, %edi
.LVL381:
	.loc 1 138 0
	leal	.LC58@GOTOFF(%ebx), %eax
.LVL382:
	movl	%eax, 8(%esp)
	call	__android_log_print@PLT
.LVL383:
	.loc 1 140 0
	movl	mono_assembly_get_image@GOT(%ebx), %eax
	movl	%edi, (%esp)
	call	*(%eax)
.LVL384:
	.loc 1 141 0
	movl	%esi, 4(%esp)
	movl	$3, (%esp)
	movl	%eax, 12(%esp)
	.loc 1 140 0
	movl	%eax, %edi
.LVL385:
	.loc 1 141 0
	leal	.LC59@GOTOFF(%ebx), %eax
.LVL386:
	movl	%eax, 8(%esp)
	call	__android_log_print@PLT
.LVL387:
	.loc 1 143 0
	movl	32(%esp), %eax
	movl	40(%esp), %ebp
	movl	%esi, 4(%esp)
	movl	%eax, 12(%esp)
	leal	.LC60@GOTOFF(%ebx), %eax
	movl	%ebp, 16(%esp)
	movl	$3, (%esp)
	movl	%eax, 8(%esp)
	call	__android_log_print@PLT
.LVL388:
	.loc 1 144 0
	movl	32(%esp), %eax
	movl	%ebp, 8(%esp)
	movl	%edi, (%esp)
	movl	%eax, 4(%esp)
	movl	mono_class_from_name@GOT(%ebx), %eax
	call	*(%eax)
.LVL389:
	.loc 1 145 0
	movl	%esi, 4(%esp)
	movl	$3, (%esp)
	movl	%eax, 12(%esp)
	.loc 1 144 0
	movl	%eax, %edi
.LVL390:
	.loc 1 145 0
	leal	.LC61@GOTOFF(%ebx), %eax
.LVL391:
	movl	%eax, 8(%esp)
	call	__android_log_print@PLT
.LVL392:
	.loc 1 147 0
	movl	44(%esp), %eax
	movl	$0, 8(%esp)
	movl	%edi, (%esp)
	movl	%eax, 4(%esp)
	movl	mono_class_get_method_from_name@GOT(%ebx), %eax
	call	*(%eax)
.LVL393:
	.loc 1 148 0
	movl	%esi, 4(%esp)
	movl	$3, (%esp)
	movl	%eax, 12(%esp)
	.loc 1 147 0
	movl	%eax, %ebp
.LVL394:
	.loc 1 148 0
	leal	.LC62@GOTOFF(%ebx), %eax
.LVL395:
	movl	%eax, 8(%esp)
	call	__android_log_print@PLT
.LVL396:
	.loc 1 150 0
	movl	mono_runtime_invoke@GOT(%ebx), %eax
	movl	$0, 12(%esp)
	movl	$0, 8(%esp)
	movl	$0, 4(%esp)
	movl	%ebp, (%esp)
	call	*(%eax)
.LVL397:
	.loc 1 151 0
	movl	%esi, 4(%esp)
	leal	.LC63@GOTOFF(%ebx), %eax
	movl	$3, (%esp)
	movl	%eax, 8(%esp)
	call	__android_log_print@PLT
.LVL398:
	movl	64(%esp), %eax
.LVL399:
.LBB2180:
.LBB2181:
.LBB2182:
.LBB2183:
	.loc 2 87 0
	testl	%eax, %eax
	je	.L291
	.loc 2 88 0
	movl	72(%esp), %edx
	subl	%eax, %edx
.LVL400:
.LBB2184:
.LBB2185:
.LBB2186:
	.loc 3 161 0
	cmpl	$128, %edx
	ja	.L302
	.loc 3 161 0 is_stmt 0 discriminator 4
	movl	%edx, 4(%esp)
	movl	%eax, (%esp)
	call	_ZNSt12__node_alloc13_M_deallocateEPvj@PLT
.LVL401:
.L291:
.LBE2186:
.LBE2185:
.LBE2184:
.LBE2183:
.LBE2182:
.LBE2181:
.LBE2180:
.LBE2197:
	.loc 1 152 0 is_stmt 1
	movl	1100(%esp), %eax
	xorl	%gs:20, %eax
	jne	.L303
	leal	1116(%esp), %esp
	.cfi_remember_state
	.cfi_def_cfa_offset 20
	popl	%ebx
	.cfi_restore 3
	.cfi_def_cfa_offset 16
	popl	%esi
	.cfi_restore 6
	.cfi_def_cfa_offset 12
	popl	%edi
	.cfi_restore 7
	.cfi_def_cfa_offset 8
	popl	%ebp
	.cfi_restore 5
	.cfi_def_cfa_offset 4
	ret
	.p2align 4,,7
	.p2align 3
.L301:
	.cfi_restore_state
.LBB2198:
	.loc 1 86 0
	movl	$3, (%esp)
	leal	.LC31@GOTOFF(%ebx), %eax
	movl	%eax, 8(%esp)
	leal	.LC2@GOTOFF(%ebx), %eax
	movl	%eax, 4(%esp)
	call	__android_log_print@PLT
.LVL402:
	jmp	.L291
.LVL403:
	.p2align 4,,7
	.p2align 3
.L302:
.LBB2195:
.LBB2194:
.LBB2193:
.LBB2192:
.LBB2191:
.LBB2190:
.LBB2189:
.LBB2187:
.LBB2188:
	.loc 5 135 0
	movl	%eax, (%esp)
	call	_ZdlPv@PLT
.LVL404:
	.p2align 4,,5
	jmp	.L291
.LVL405:
.L303:
.LBE2188:
.LBE2187:
.LBE2189:
.LBE2190:
.LBE2191:
.LBE2192:
.LBE2193:
.LBE2194:
.LBE2195:
.LBE2198:
	.loc 1 152 0
	.p2align 4,,5
	call	__stack_chk_fail_local
.LVL406:
	.cfi_endproc
.LFE1577:
	.size	MonoLoadAndInvokeAssembly, .-MonoLoadAndInvokeAssembly
	.section	.text.unlikely.MonoLoadAndInvokeAssembly
.LCOLDE64:
	.section	.text.MonoLoadAndInvokeAssembly
.LHOTE64:
	.section	.rodata.str1.1
.LC65:
	.string	"FindBaseLibrary: %s %d"
	.section	.text.unlikely.FindBaseLibrary,"ax",@progbits
.LCOLDB66:
	.section	.text.FindBaseLibrary,"ax",@progbits
.LHOTB66:
	.p2align 4,,15
	.globl	FindBaseLibrary
	.type	FindBaseLibrary, @function
FindBaseLibrary:
.LFB1583:
	.loc 1 254 0
	.cfi_startproc
.LVL407:
	pushl	%ebp
	.cfi_def_cfa_offset 8
	.cfi_offset 5, -8
	pushl	%edi
	.cfi_def_cfa_offset 12
	.cfi_offset 7, -12
	pushl	%esi
	.cfi_def_cfa_offset 16
	.cfi_offset 6, -16
	pushl	%ebx
	.cfi_def_cfa_offset 20
	.cfi_offset 3, -20
	call	__x86.get_pc_thunk.bx
	addl	$_GLOBAL_OFFSET_TABLE_, %ebx
	leal	-76(%esp), %esp
	.cfi_def_cfa_offset 96
	.loc 1 254 0
	movl	96(%esp), %eax
	movl	100(%esp), %esi
.LBB2256:
	.loc 1 255 0
	movl	$3, (%esp)
.LBE2256:
	.loc 1 254 0
	movl	%eax, 32(%esp)
.LBB2316:
	.loc 1 255 0
	movl	%eax, 12(%esp)
	leal	.LC65@GOTOFF(%ebx), %eax
	movl	%eax, 8(%esp)
	leal	.LC2@GOTOFF(%ebx), %eax
	movl	%esi, 16(%esp)
	movl	%eax, 4(%esp)
.LBE2316:
	.loc 1 254 0
	movl	%gs:20, %ecx
	movl	%ecx, 60(%esp)
	xorl	%ecx, %ecx
.LBB2317:
	.loc 1 255 0
	call	__android_log_print@PLT
.LVL408:
	.loc 1 258 0
	movl	%esi, (%esp)
	leal	48(%esp), %eax
.LVL409:
	movl	%eax, 4(%esp)
.LBB2257:
.LBB2258:
.LBB2259:
	.loc 2 67 0
	movl	$0, 48(%esp)
	movl	$0, 52(%esp)
.LVL410:
.LBB2260:
.LBB2261:
	.loc 3 481 0
	movl	$0, 56(%esp)
.LVL411:
.LBE2261:
.LBE2260:
.LBE2259:
.LBE2258:
.LBE2257:
	.loc 1 258 0
	call	_Z8ReadMapsiRSt6vectorISsSaISsEE@PLT
.LVL412:
	movl	48(%esp), %eax
	movl	%eax, 40(%esp)
	movl	%eax, %ecx
	movl	52(%esp), %eax
	movl	%eax, 44(%esp)
.LVL413:
.LBB2262:
.LBB2263:
.LBB2264:
	.loc 2 192 0
	movl	%eax, %edi
	subl	%ecx, %edi
	movl	%ecx, %eax
	sarl	$3, %edi
	imull	$-1431655765, %edi, %ecx
	movl	%ecx, 36(%esp)
.LBE2264:
.LBE2263:
	.loc 1 259 0 discriminator 1
	testl	%ecx, %ecx
	je	.L318
	leal	20(%eax), %esi
	xorl	%ebp, %ebp
	jmp	.L307
.LVL414:
	.p2align 4,,7
	.p2align 3
.L306:
	.loc 1 259 0 is_stmt 0 discriminator 2
	addl	$1, %ebp
.LVL415:
	addl	$24, %esi
.LVL416:
	.loc 1 259 0 discriminator 1
	cmpl	36(%esp), %ebp
	je	.L318
.LVL417:
.L307:
	movl	(%esi), %edi
.LVL418:
	.loc 1 261 0 is_stmt 1 discriminator 2
	movl	32(%esp), %eax
	movl	%edi, (%esp)
	movl	%eax, 4(%esp)
	call	strstr@PLT
.LVL419:
	.loc 1 261 0 is_stmt 0
	testl	%eax, %eax
	je	.L306
.LVL420:
	.loc 1 262 0 is_stmt 1 discriminator 2
	movl	%edi, (%esp)
	movl	$16, 8(%esp)
	movl	$0, 4(%esp)
	call	strtoul@PLT
.LVL421:
	movl	48(%esp), %ebp
.LVL422:
	movl	%eax, %edi
.LVL423:
	movl	52(%esp), %esi
.LVL424:
	.loc 1 263 0
	jmp	.L305
.LVL425:
	.p2align 4,,7
	.p2align 3
.L318:
	.loc 1 259 0 discriminator 1
	movl	44(%esp), %esi
.LBE2262:
	.loc 1 256 0
	xorl	%edi, %edi
.LBB2265:
	.loc 1 259 0 discriminator 1
	movl	40(%esp), %ebp
.LVL426:
.L305:
.LBE2265:
.LBB2266:
.LBB2267:
.LBB2268:
.LBB2269:
.LBB2270:
.LBB2271:
.LBB2272:
	.loc 4 191 0 discriminator 1
	cmpl	%ebp, %esi
	jne	.L312
	jmp	.L308
.LVL427:
	.p2align 4,,7
	.p2align 3
.L328:
.LBB2273:
.LBB2274:
.LBB2275:
.LBB2276:
.LBB2277:
.LBB2278:
.LBB2279:
.LBB2280:
	.loc 3 161 0 discriminator 4
	movl	%edx, 4(%esp)
.LVL428:
	movl	%eax, (%esp)
	call	_ZNSt12__node_alloc13_M_deallocateEPvj@PLT
.LVL429:
.L311:
.LBE2280:
.LBE2279:
.LBE2278:
.LBE2277:
.LBE2276:
.LBE2275:
.LBE2274:
.LBE2273:
	.loc 4 191 0 discriminator 1
	cmpl	%ebp, %esi
	je	.L332
.LVL430:
.L312:
.LBB2296:
.LBB2294:
.LBB2292:
.LBB2290:
.LBB2288:
.LBB2285:
.LBB2286:
	.loc 9 64 0
	movl	-4(%esi), %eax
.LBE2286:
.LBE2285:
.LBE2288:
.LBE2290:
.LBE2292:
.LBE2294:
.LBE2296:
.LBB2297:
.LBB2298:
	.loc 13 77 0
	subl	$24, %esi
.LVL431:
.LBE2298:
.LBE2297:
.LBB2299:
.LBB2295:
.LBB2293:
.LBB2291:
.LBB2289:
	.loc 9 96 0 discriminator 1
	cmpl	%esi, %eax
	je	.L311
	testl	%eax, %eax
	je	.L311
.LVL432:
	.loc 9 97 0
	movl	(%esi), %edx
	subl	%eax, %edx
.LVL433:
.LBB2287:
.LBB2284:
.LBB2283:
	.loc 3 161 0
	cmpl	$128, %edx
	jbe	.L328
.LVL434:
.LBB2281:
.LBB2282:
	.loc 5 135 0
	movl	%eax, (%esp)
.LVL435:
	call	_ZdlPv@PLT
.LVL436:
.LBE2282:
.LBE2281:
.LBE2283:
.LBE2284:
.LBE2287:
.LBE2289:
.LBE2291:
.LBE2293:
.LBE2295:
.LBE2299:
	.loc 4 191 0 discriminator 1
	cmpl	%ebp, %esi
	jne	.L312
.LVL437:
	.p2align 4,,15
.L332:
	movl	48(%esp), %ebp
.LVL438:
.L308:
.LBE2272:
.LBE2271:
.LBE2270:
.LBE2269:
.LBE2268:
.LBB2300:
.LBB2301:
	.loc 2 87 0
	testl	%ebp, %ebp
	je	.L313
.LVL439:
	.loc 2 88 0
	movl	56(%esp), %eax
	subl	%ebp, %eax
.LVL440:
.LBB2302:
.LBB2303:
.LBB2304:
.LBB2305:
	.loc 3 161 0
	cmpl	$128, %eax
	ja	.L333
	.loc 3 161 0 is_stmt 0 discriminator 4
	movl	%eax, 4(%esp)
	movl	%ebp, (%esp)
	call	_ZNSt12__node_alloc13_M_deallocateEPvj@PLT
.LVL441:
.L313:
.LBE2305:
.LBE2304:
.LBE2303:
.LBE2302:
.LBE2301:
.LBE2300:
.LBE2267:
.LBE2266:
.LBE2317:
	.loc 1 267 0 is_stmt 1
	movl	60(%esp), %ecx
	xorl	%gs:20, %ecx
	movl	%edi, %eax
	jne	.L334
.LVL442:
	leal	76(%esp), %esp
	.cfi_remember_state
	.cfi_def_cfa_offset 20
	popl	%ebx
	.cfi_restore 3
	.cfi_def_cfa_offset 16
	popl	%esi
	.cfi_restore 6
	.cfi_def_cfa_offset 12
	popl	%edi
	.cfi_restore 7
	.cfi_def_cfa_offset 8
	popl	%ebp
	.cfi_restore 5
	.cfi_def_cfa_offset 4
	ret
.LVL443:
	.p2align 4,,7
	.p2align 3
.L333:
	.cfi_restore_state
.LBB2318:
.LBB2315:
.LBB2314:
.LBB2313:
.LBB2312:
.LBB2311:
.LBB2310:
.LBB2309:
.LBB2308:
.LBB2306:
.LBB2307:
	.loc 5 135 0
	movl	%ebp, (%esp)
	call	_ZdlPv@PLT
.LVL444:
	jmp	.L313
.LVL445:
.L334:
.LBE2307:
.LBE2306:
.LBE2308:
.LBE2309:
.LBE2310:
.LBE2311:
.LBE2312:
.LBE2313:
.LBE2314:
.LBE2315:
.LBE2318:
	.loc 1 267 0
	.p2align 4,,5
	call	__stack_chk_fail_local
.LVL446:
	.cfi_endproc
.LFE1583:
	.size	FindBaseLibrary, .-FindBaseLibrary
	.section	.text.unlikely.FindBaseLibrary
.LCOLDE66:
	.section	.text.FindBaseLibrary
.LHOTE66:
	.section	.rodata.str1.1
.LC67:
	.string	"%X%X"
.LC68:
	.string	"%s"
	.section	.text.unlikely.FindBaseLibraryFromAddress,"ax",@progbits
.LCOLDB69:
	.section	.text.FindBaseLibraryFromAddress,"ax",@progbits
.LHOTB69:
	.p2align 4,,15
	.globl	FindBaseLibraryFromAddress
	.type	FindBaseLibraryFromAddress, @function
FindBaseLibraryFromAddress:
.LFB1584:
	.loc 1 270 0
	.cfi_startproc
.LVL447:
	pushl	%ebp
	.cfi_def_cfa_offset 8
	.cfi_offset 5, -8
	pushl	%edi
	.cfi_def_cfa_offset 12
	.cfi_offset 7, -12
	pushl	%esi
	.cfi_def_cfa_offset 16
	.cfi_offset 6, -16
	pushl	%ebx
	.cfi_def_cfa_offset 20
	.cfi_offset 3, -20
	call	__x86.get_pc_thunk.bx
	addl	$_GLOBAL_OFFSET_TABLE_, %ebx
	leal	-92(%esp), %esp
	.cfi_def_cfa_offset 112
	.loc 1 270 0
	movl	%gs:20, %eax
	movl	%eax, 76(%esp)
	xorl	%eax, %eax
.LVL448:
	movl	112(%esp), %ebp
.LBB2415:
	.loc 1 273 0
	leal	40(%esp), %eax
.LVL449:
	movl	%eax, 4(%esp)
	movl	116(%esp), %eax
.LVL450:
.LBB2416:
.LBB2417:
.LBB2418:
	.loc 2 67 0
	movl	$0, 40(%esp)
	movl	$0, 44(%esp)
.LVL451:
.LBE2418:
.LBE2417:
.LBE2416:
	.loc 1 273 0
	movl	%eax, (%esp)
.LBB2423:
.LBB2422:
.LBB2421:
.LBB2419:
.LBB2420:
	.loc 3 481 0
	movl	$0, 48(%esp)
.LVL452:
.LBE2420:
.LBE2419:
.LBE2421:
.LBE2422:
.LBE2423:
	.loc 1 273 0
	call	_Z8ReadMapsiRSt6vectorISsSaISsEE@PLT
.LVL453:
	movl	44(%esp), %esi
	movl	40(%esp), %edx
.LVL454:
.LBB2424:
.LBB2425:
.LBB2426:
	.loc 2 192 0
	movl	%esi, %eax
	subl	%edx, %eax
	sarl	$3, %eax
	imull	$-1431655765, %eax, %eax
.LBE2426:
.LBE2425:
	.loc 1 274 0 discriminator 1
	testl	%eax, %eax
	je	.L362
	leal	36(%esp), %eax
	xorl	%esi, %esi
	movl	%eax, 28(%esp)
	leal	32(%esp), %eax
	movl	%eax, 24(%esp)
	leal	.LC67@GOTOFF(%ebx), %eax
	movl	%eax, 20(%esp)
	leal	52(%esp), %edi
.LVL455:
	.p2align 5,,30
	.p2align 3
.L345:
.LBB2428:
	.loc 1 275 0 discriminator 1
	movl	%edi, (%esp)
	leal	(%esi,%esi,2), %eax
.LBB2429:
.LBB2430:
	.loc 2 202 0
	leal	(%edx,%eax,8), %eax
.LBE2430:
.LBE2429:
	.loc 1 275 0 discriminator 1
	movl	%eax, 4(%esp)
	call	_ZNSsC1ERKSs@PLT
.LVL456:
	movl	68(%esp), %edx
.LVL457:
	movl	72(%esp), %eax
.LVL458:
.LBB2431:
.LBB2432:
	.loc 6 704 0 discriminator 1
	cmpl	%eax, %edx
	jne	.L339
	jmp	.L337
	.p2align 4,,7
	.p2align 3
.L338:
	.loc 6 704 0 is_stmt 0
	addl	$1, %eax
.LVL459:
	.loc 6 704 0 discriminator 1
	cmpl	%edx, %eax
	je	.L388
.L339:
	.loc 6 705 0 is_stmt 1
	cmpb	$45, (%eax)
	.p2align 4,,3
	jne	.L338
	.loc 6 706 0
	movb	$32, (%eax)
	.loc 6 704 0
	addl	$1, %eax
.LVL460:
	.loc 6 704 0 is_stmt 0 discriminator 1
	cmpl	%edx, %eax
	jne	.L339
.L388:
	movl	72(%esp), %edx
.LVL461:
.L337:
.LBE2432:
.LBE2431:
	.loc 1 279 0 is_stmt 1 discriminator 1
	movl	28(%esp), %eax
.LVL462:
	movl	%edx, (%esp)
	movl	%eax, 12(%esp)
	movl	24(%esp), %eax
	movl	%eax, 8(%esp)
	movl	20(%esp), %eax
	movl	%eax, 4(%esp)
	call	sscanf@PLT
.LVL463:
	.loc 1 282 0 discriminator 1
	movl	72(%esp), %eax
	.loc 1 281 0
	cmpl	%ebp, 32(%esp)
	ja	.L340
	.loc 1 281 0 is_stmt 0 discriminator 1
	cmpl	36(%esp), %ebp
	jb	.L389
.L340:
.LVL464:
.LBB2433:
.LBB2434:
.LBB2435:
.LBB2436:
.LBB2437:
	.loc 9 96 0 is_stmt 1 discriminator 1
	cmpl	%edi, %eax
	je	.L344
	testl	%eax, %eax
	.p2align 4,,3
	je	.L344
.LVL465:
	.loc 9 97 0
	movl	52(%esp), %edx
	subl	%eax, %edx
.LVL466:
.LBB2438:
.LBB2439:
.LBB2440:
	.loc 3 161 0
	cmpl	$128, %edx
	ja	.L390
	.loc 3 161 0 is_stmt 0 discriminator 4
	movl	%edx, 4(%esp)
	movl	%eax, (%esp)
	call	_ZNSt12__node_alloc13_M_deallocateEPvj@PLT
.LVL467:
.L344:
	movl	44(%esp), %eax
.LBE2440:
.LBE2439:
.LBE2438:
.LBE2437:
.LBE2436:
.LBE2435:
.LBE2434:
.LBE2433:
.LBE2428:
	.loc 1 274 0 is_stmt 1 discriminator 2
	addl	$1, %esi
.LVL468:
	movl	40(%esp), %edx
.LBB2468:
.LBB2427:
	.loc 2 192 0
	movl	%eax, %ecx
	subl	%edx, %ecx
	sarl	$3, %ecx
	imull	$-1431655765, %ecx, %ecx
.LBE2427:
.LBE2468:
	.loc 1 274 0 discriminator 1
	cmpl	%ecx, %esi
	jb	.L345
	movl	%eax, %esi
.LVL469:
	movl	%edx, %edi
.LVL470:
.LBE2424:
	.loc 1 271 0
	xorl	%ebp, %ebp
.LVL471:
.L336:
.LBB2471:
.LBB2472:
.LBB2473:
.LBB2474:
.LBB2475:
.LBB2476:
.LBB2477:
	.loc 4 191 0 discriminator 1
	cmpl	%esi, %edi
	jne	.L350
	jmp	.L346
.LVL472:
	.p2align 4,,7
	.p2align 3
.L381:
.LBB2478:
.LBB2479:
.LBB2480:
.LBB2481:
.LBB2482:
.LBB2483:
.LBB2484:
.LBB2485:
	.loc 3 161 0 discriminator 4
	movl	%edx, 4(%esp)
.LVL473:
	movl	%eax, (%esp)
	call	_ZNSt12__node_alloc13_M_deallocateEPvj@PLT
.LVL474:
.L349:
.LBE2485:
.LBE2484:
.LBE2483:
.LBE2482:
.LBE2481:
.LBE2480:
.LBE2479:
.LBE2478:
	.loc 4 191 0 discriminator 1
	cmpl	%edi, %esi
	je	.L391
.LVL475:
.L350:
.LBB2501:
.LBB2499:
.LBB2497:
.LBB2495:
.LBB2493:
.LBB2490:
.LBB2491:
	.loc 9 64 0
	movl	-4(%esi), %eax
.LBE2491:
.LBE2490:
.LBE2493:
.LBE2495:
.LBE2497:
.LBE2499:
.LBE2501:
.LBB2502:
.LBB2503:
	.loc 13 77 0
	subl	$24, %esi
.LVL476:
.LBE2503:
.LBE2502:
.LBB2504:
.LBB2500:
.LBB2498:
.LBB2496:
.LBB2494:
	.loc 9 96 0 discriminator 1
	cmpl	%esi, %eax
	je	.L349
	testl	%eax, %eax
	je	.L349
.LVL477:
	.loc 9 97 0
	movl	(%esi), %edx
	subl	%eax, %edx
.LVL478:
.LBB2492:
.LBB2489:
.LBB2488:
	.loc 3 161 0
	cmpl	$128, %edx
	jbe	.L381
.LVL479:
.LBB2486:
.LBB2487:
	.loc 5 135 0
	movl	%eax, (%esp)
.LVL480:
	call	_ZdlPv@PLT
.LVL481:
.LBE2487:
.LBE2486:
.LBE2488:
.LBE2489:
.LBE2492:
.LBE2494:
.LBE2496:
.LBE2498:
.LBE2500:
.LBE2504:
	.loc 4 191 0 discriminator 1
	cmpl	%edi, %esi
	jne	.L350
.LVL482:
.L391:
	movl	40(%esp), %esi
.LVL483:
.L346:
.LBE2477:
.LBE2476:
.LBE2475:
.LBE2474:
.LBE2473:
.LBB2505:
.LBB2506:
	.loc 2 87 0
	testl	%esi, %esi
	je	.L351
.LVL484:
	.loc 2 88 0
	movl	48(%esp), %eax
	subl	%esi, %eax
.LVL485:
.LBB2507:
.LBB2508:
.LBB2509:
.LBB2510:
	.loc 3 161 0
	cmpl	$128, %eax
	ja	.L392
	.loc 3 161 0 is_stmt 0 discriminator 4
	movl	%eax, 4(%esp)
	movl	%esi, (%esp)
	call	_ZNSt12__node_alloc13_M_deallocateEPvj@PLT
.LVL486:
.L351:
.LBE2510:
.LBE2509:
.LBE2508:
.LBE2507:
.LBE2506:
.LBE2505:
.LBE2472:
.LBE2471:
.LBE2415:
	.loc 1 288 0 is_stmt 1
	movl	76(%esp), %edi
	xorl	%gs:20, %edi
.LVL487:
	movl	%ebp, %eax
	jne	.L393
.LVL488:
	leal	92(%esp), %esp
	.cfi_remember_state
	.cfi_def_cfa_offset 20
	popl	%ebx
	.cfi_restore 3
	.cfi_def_cfa_offset 16
	popl	%esi
	.cfi_restore 6
	.cfi_def_cfa_offset 12
	popl	%edi
	.cfi_restore 7
	.cfi_def_cfa_offset 8
	popl	%ebp
	.cfi_restore 5
	.cfi_def_cfa_offset 4
	ret
.LVL489:
.L390:
	.cfi_restore_state
.LBB2523:
.LBB2520:
.LBB2469:
.LBB2450:
.LBB2449:
.LBB2448:
.LBB2447:
.LBB2446:
.LBB2445:
.LBB2444:
.LBB2443:
.LBB2441:
.LBB2442:
	.loc 5 135 0
	movl	%eax, (%esp)
	call	_ZdlPv@PLT
.LVL490:
	jmp	.L344
.LVL491:
.L392:
.LBE2442:
.LBE2441:
.LBE2443:
.LBE2444:
.LBE2445:
.LBE2446:
.LBE2447:
.LBE2448:
.LBE2449:
.LBE2450:
.LBE2469:
.LBE2520:
.LBB2521:
.LBB2519:
.LBB2518:
.LBB2517:
.LBB2516:
.LBB2515:
.LBB2514:
.LBB2513:
.LBB2511:
.LBB2512:
	movl	%esi, (%esp)
	call	_ZdlPv@PLT
.LVL492:
	.p2align 4,,5
	jmp	.L351
.LVL493:
.L389:
.LBE2512:
.LBE2511:
.LBE2513:
.LBE2514:
.LBE2515:
.LBE2516:
.LBE2517:
.LBE2518:
.LBE2519:
.LBE2521:
.LBB2522:
.LBB2470:
	.loc 1 282 0 discriminator 1
	movl	%eax, 12(%esp)
	leal	.LC68@GOTOFF(%ebx), %eax
	movl	%eax, 8(%esp)
	leal	.LC2@GOTOFF(%ebx), %eax
	movl	$3, (%esp)
	movl	%eax, 4(%esp)
	call	__android_log_print@PLT
.LVL494:
.LBB2451:
.LBB2452:
.LBB2453:
.LBB2454:
.LBB2455:
.LBB2456:
.LBB2457:
	.loc 9 64 0
	movl	72(%esp), %eax
.LBE2457:
.LBE2456:
.LBE2455:
.LBE2454:
.LBE2453:
.LBE2452:
.LBE2451:
	.loc 1 283 0
	movl	32(%esp), %ebp
.LVL495:
.LBB2467:
.LBB2466:
.LBB2465:
.LBB2464:
.LBB2463:
	.loc 9 96 0 discriminator 1
	cmpl	%edi, %eax
	je	.L343
	testl	%eax, %eax
	je	.L343
.LVL496:
	.loc 9 97 0
	movl	52(%esp), %edx
	subl	%eax, %edx
.LVL497:
.LBB2458:
.LBB2459:
.LBB2460:
	.loc 3 161 0
	cmpl	$128, %edx
	ja	.L394
	.loc 3 161 0 is_stmt 0 discriminator 4
	movl	%edx, 4(%esp)
	movl	%eax, (%esp)
	call	_ZNSt12__node_alloc13_M_deallocateEPvj@PLT
.LVL498:
.L343:
	movl	40(%esp), %edi
.LVL499:
	movl	44(%esp), %esi
.LVL500:
	jmp	.L336
.LVL501:
.L394:
.LBB2461:
.LBB2462:
	.loc 5 135 0 is_stmt 1
	movl	%eax, (%esp)
	call	_ZdlPv@PLT
.LVL502:
	jmp	.L343
.LVL503:
.L362:
.LBE2462:
.LBE2461:
.LBE2460:
.LBE2459:
.LBE2458:
.LBE2463:
.LBE2464:
.LBE2465:
.LBE2466:
.LBE2467:
.LBE2470:
	.loc 1 274 0 discriminator 1
	movl	%edx, %edi
.LBE2522:
	.loc 1 271 0
	xorl	%ebp, %ebp
	jmp	.L336
.LVL504:
.L393:
.LBE2523:
	.loc 1 288 0
	.p2align 4,,7
	call	__stack_chk_fail_local
.LVL505:
	.cfi_endproc
.LFE1584:
	.size	FindBaseLibraryFromAddress, .-FindBaseLibraryFromAddress
	.section	.text.unlikely.FindBaseLibraryFromAddress
.LCOLDE69:
	.section	.text.FindBaseLibraryFromAddress
.LHOTE69:
	.section	.rodata.str1.1
.LC70:
	.string	"GetFuncOffset: lib [%s] [%s]"
	.section	.rodata.str1.4
	.align 4
.LC71:
	.string	"GetFuncOffset: base=%08X func=%08X"
	.section	.text.unlikely.GetFuncOffset,"ax",@progbits
.LCOLDB72:
	.section	.text.GetFuncOffset,"ax",@progbits
.LHOTB72:
	.p2align 4,,15
	.globl	GetFuncOffset
	.type	GetFuncOffset, @function
GetFuncOffset:
.LFB1582:
	.loc 1 244 0
	.cfi_startproc
.LVL506:
	pushl	%ebp
	.cfi_def_cfa_offset 8
	.cfi_offset 5, -8
	pushl	%edi
	.cfi_def_cfa_offset 12
	.cfi_offset 7, -12
	pushl	%esi
	.cfi_def_cfa_offset 16
	.cfi_offset 6, -16
	pushl	%ebx
	.cfi_def_cfa_offset 20
	.cfi_offset 3, -20
	call	__x86.get_pc_thunk.bx
	addl	$_GLOBAL_OFFSET_TABLE_, %ebx
	leal	-44(%esp), %esp
	.cfi_def_cfa_offset 64
.LBB2524:
	.loc 1 245 0
	leal	.LC2@GOTOFF(%ebx), %ebp
.LBE2524:
	.loc 1 244 0
	movl	64(%esp), %esi
.LBB2525:
	.loc 1 245 0
	leal	.LC70@GOTOFF(%ebx), %eax
.LBE2525:
	.loc 1 244 0
	movl	68(%esp), %edi
.LBB2526:
	.loc 1 245 0
	movl	%ebp, 4(%esp)
	movl	%esi, 12(%esp)
	movl	%eax, 8(%esp)
	movl	$3, (%esp)
	movl	%edi, 16(%esp)
	call	__android_log_print@PLT
.LVL507:
	.loc 1 246 0
	movl	%edi, 4(%esp)
	movl	%esi, (%esp)
	call	GetFuncAddress@PLT
.LVL508:
	.loc 1 247 0
	movl	%eax, (%esp)
	.loc 1 246 0
	movl	%eax, %esi
.LVL509:
	.loc 1 247 0
	movl	$0, 4(%esp)
	call	FindBaseLibraryFromAddress@PLT
.LVL510:
	.loc 1 248 0
	movl	%eax, 12(%esp)
	.loc 1 247 0
	movl	%eax, %edi
.LVL511:
	.loc 1 248 0
	movl	%esi, 16(%esp)
	leal	.LC71@GOTOFF(%ebx), %eax
.LVL512:
	movl	%ebp, 4(%esp)
	movl	$3, (%esp)
	movl	%eax, 8(%esp)
	call	__android_log_print@PLT
.LVL513:
.LBE2526:
	.loc 1 250 0
	leal	44(%esp), %esp
	.cfi_def_cfa_offset 20
.LBB2527:
	.loc 1 249 0
	movl	%esi, %eax
.LBE2527:
	.loc 1 250 0
	popl	%ebx
	.cfi_restore 3
	.cfi_def_cfa_offset 16
.LBB2528:
	.loc 1 249 0
	subl	%edi, %eax
.LBE2528:
	.loc 1 250 0
	popl	%esi
	.cfi_restore 6
	.cfi_def_cfa_offset 12
.LVL514:
	popl	%edi
	.cfi_restore 7
	.cfi_def_cfa_offset 8
.LVL515:
	popl	%ebp
	.cfi_restore 5
	.cfi_def_cfa_offset 4
	ret
	.cfi_endproc
.LFE1582:
	.size	GetFuncOffset, .-GetFuncOffset
	.section	.text.unlikely.GetFuncOffset
.LCOLDE72:
	.section	.text.GetFuncOffset
.LHOTE72:
	.section	.text.unlikely.GetBaseLibraryNameFromAddress,"ax",@progbits
.LCOLDB73:
	.section	.text.GetBaseLibraryNameFromAddress,"ax",@progbits
.LHOTB73:
	.p2align 4,,15
	.globl	GetBaseLibraryNameFromAddress
	.type	GetBaseLibraryNameFromAddress, @function
GetBaseLibraryNameFromAddress:
.LFB1587:
	.loc 1 338 0
	.cfi_startproc
.LVL516:
	pushl	%ebp
	.cfi_def_cfa_offset 8
	.cfi_offset 5, -8
	pushl	%edi
	.cfi_def_cfa_offset 12
	.cfi_offset 7, -12
	pushl	%esi
	.cfi_def_cfa_offset 16
	.cfi_offset 6, -16
	pushl	%ebx
	.cfi_def_cfa_offset 20
	.cfi_offset 3, -20
	call	__x86.get_pc_thunk.bx
	addl	$_GLOBAL_OFFSET_TABLE_, %ebx
	leal	-92(%esp), %esp
	.cfi_def_cfa_offset 112
	.loc 1 338 0
	movl	%gs:20, %eax
	movl	%eax, 76(%esp)
	xorl	%eax, %eax
.LVL517:
	movl	112(%esp), %ebp
.LBB2624:
	.loc 1 342 0
	leal	40(%esp), %eax
.LVL518:
	movl	%eax, 4(%esp)
	movl	116(%esp), %eax
.LVL519:
.LBB2625:
.LBB2626:
.LBB2627:
	.loc 2 67 0
	movl	$0, 40(%esp)
	movl	$0, 44(%esp)
.LVL520:
.LBE2627:
.LBE2626:
.LBE2625:
	.loc 1 342 0
	movl	%eax, (%esp)
.LBB2632:
.LBB2631:
.LBB2630:
.LBB2628:
.LBB2629:
	.loc 3 481 0
	movl	$0, 48(%esp)
.LVL521:
.LBE2629:
.LBE2628:
.LBE2630:
.LBE2631:
.LBE2632:
	.loc 1 342 0
	call	_Z8ReadMapsiRSt6vectorISsSaISsEE@PLT
.LVL522:
	movl	44(%esp), %esi
	movl	40(%esp), %edx
.LVL523:
.LBB2633:
.LBB2634:
.LBB2635:
	.loc 2 192 0
	movl	%esi, %eax
	subl	%edx, %eax
	sarl	$3, %eax
	imull	$-1431655765, %eax, %eax
.LBE2635:
.LBE2634:
	.loc 1 343 0 discriminator 1
	testl	%eax, %eax
	je	.L423
	leal	36(%esp), %eax
	xorl	%esi, %esi
	movl	%eax, 24(%esp)
	leal	32(%esp), %eax
	movl	%eax, 20(%esp)
	leal	.LC67@GOTOFF(%ebx), %eax
	movl	%eax, 28(%esp)
	leal	52(%esp), %edi
.LVL524:
	.p2align 5,,30
	.p2align 3
.L406:
.LBB2637:
	.loc 1 344 0 discriminator 1
	movl	%edi, (%esp)
	leal	(%esi,%esi,2), %eax
.LBB2638:
.LBB2639:
	.loc 2 202 0
	leal	(%edx,%eax,8), %eax
.LBE2639:
.LBE2638:
	.loc 1 344 0 discriminator 1
	movl	%eax, 4(%esp)
	call	_ZNSsC1ERKSs@PLT
.LVL525:
	movl	68(%esp), %edx
.LVL526:
	movl	72(%esp), %eax
.LVL527:
.LBB2640:
.LBB2641:
	.loc 6 704 0 discriminator 1
	cmpl	%eax, %edx
	jne	.L401
	jmp	.L399
	.p2align 4,,7
	.p2align 3
.L400:
	.loc 6 704 0 is_stmt 0
	addl	$1, %eax
.LVL528:
	.loc 6 704 0 discriminator 1
	cmpl	%edx, %eax
	je	.L446
.L401:
	.loc 6 705 0 is_stmt 1
	cmpb	$45, (%eax)
	.p2align 4,,3
	jne	.L400
	.loc 6 706 0
	movb	$32, (%eax)
	.loc 6 704 0
	addl	$1, %eax
.LVL529:
	.loc 6 704 0 is_stmt 0 discriminator 1
	cmpl	%edx, %eax
	jne	.L401
.L446:
	movl	72(%esp), %edx
.LVL530:
.L399:
.LBE2641:
.LBE2640:
	.loc 1 348 0 is_stmt 1 discriminator 1
	movl	24(%esp), %eax
.LVL531:
	movl	%edx, (%esp)
	movl	%eax, 12(%esp)
	movl	20(%esp), %eax
	movl	%eax, 8(%esp)
	movl	28(%esp), %eax
	movl	%eax, 4(%esp)
	call	sscanf@PLT
.LVL532:
	.loc 1 351 0 discriminator 1
	movl	72(%esp), %eax
	.loc 1 350 0
	cmpl	%ebp, 32(%esp)
	ja	.L402
	.loc 1 350 0 is_stmt 0 discriminator 1
	cmpl	36(%esp), %ebp
	jb	.L447
.L402:
.LVL533:
.LBB2642:
.LBB2643:
.LBB2644:
.LBB2645:
.LBB2646:
	.loc 9 96 0 is_stmt 1 discriminator 1
	cmpl	%edi, %eax
	je	.L405
	testl	%eax, %eax
	.p2align 4,,3
	je	.L405
.LVL534:
	.loc 9 97 0
	movl	52(%esp), %edx
	subl	%eax, %edx
.LVL535:
.LBB2647:
.LBB2648:
.LBB2649:
	.loc 3 161 0
	cmpl	$128, %edx
	ja	.L448
	.loc 3 161 0 is_stmt 0 discriminator 4
	movl	%edx, 4(%esp)
	movl	%eax, (%esp)
	call	_ZNSt12__node_alloc13_M_deallocateEPvj@PLT
.LVL536:
.L405:
	movl	44(%esp), %eax
.LBE2649:
.LBE2648:
.LBE2647:
.LBE2646:
.LBE2645:
.LBE2644:
.LBE2643:
.LBE2642:
.LBE2637:
	.loc 1 343 0 is_stmt 1 discriminator 2
	addl	$1, %esi
.LVL537:
	movl	40(%esp), %edx
.LBB2670:
.LBB2636:
	.loc 2 192 0
	movl	%eax, %ecx
	subl	%edx, %ecx
	sarl	$3, %ecx
	imull	$-1431655765, %ecx, %ecx
.LBE2636:
.LBE2670:
	.loc 1 343 0 discriminator 1
	cmpl	%ecx, %esi
	jb	.L406
	movl	%eax, %esi
.LVL538:
	movl	%edx, %edi
.LVL539:
	leal	_ZZ29GetBaseLibraryNameFromAddressE4name@GOTOFF(%ebx), %ebp
.LVL540:
.L398:
.LBE2633:
.LBB2673:
.LBB2674:
.LBB2675:
.LBB2676:
.LBB2677:
.LBB2678:
.LBB2679:
	.loc 4 191 0 discriminator 1
	cmpl	%esi, %edi
	jne	.L411
	jmp	.L407
.LVL541:
	.p2align 4,,7
	.p2align 3
.L439:
.LBB2680:
.LBB2681:
.LBB2682:
.LBB2683:
.LBB2684:
.LBB2685:
.LBB2686:
.LBB2687:
	.loc 3 161 0 discriminator 4
	movl	%edx, 4(%esp)
.LVL542:
	movl	%eax, (%esp)
	call	_ZNSt12__node_alloc13_M_deallocateEPvj@PLT
.LVL543:
.L410:
.LBE2687:
.LBE2686:
.LBE2685:
.LBE2684:
.LBE2683:
.LBE2682:
.LBE2681:
.LBE2680:
	.loc 4 191 0 discriminator 1
	cmpl	%edi, %esi
	je	.L449
.LVL544:
.L411:
.LBB2703:
.LBB2701:
.LBB2699:
.LBB2697:
.LBB2695:
.LBB2692:
.LBB2693:
	.loc 9 64 0
	movl	-4(%esi), %eax
.LBE2693:
.LBE2692:
.LBE2695:
.LBE2697:
.LBE2699:
.LBE2701:
.LBE2703:
.LBB2704:
.LBB2705:
	.loc 13 77 0
	subl	$24, %esi
.LVL545:
.LBE2705:
.LBE2704:
.LBB2706:
.LBB2702:
.LBB2700:
.LBB2698:
.LBB2696:
	.loc 9 96 0 discriminator 1
	cmpl	%esi, %eax
	je	.L410
	testl	%eax, %eax
	je	.L410
.LVL546:
	.loc 9 97 0
	movl	(%esi), %edx
	subl	%eax, %edx
.LVL547:
.LBB2694:
.LBB2691:
.LBB2690:
	.loc 3 161 0
	cmpl	$128, %edx
	jbe	.L439
.LVL548:
.LBB2688:
.LBB2689:
	.loc 5 135 0
	movl	%eax, (%esp)
.LVL549:
	call	_ZdlPv@PLT
.LVL550:
.LBE2689:
.LBE2688:
.LBE2690:
.LBE2691:
.LBE2694:
.LBE2696:
.LBE2698:
.LBE2700:
.LBE2702:
.LBE2706:
	.loc 4 191 0 discriminator 1
	cmpl	%edi, %esi
	jne	.L411
.LVL551:
.L449:
	movl	40(%esp), %esi
.LVL552:
.L407:
.LBE2679:
.LBE2678:
.LBE2677:
.LBE2676:
.LBE2675:
.LBB2707:
.LBB2708:
	.loc 2 87 0
	testl	%esi, %esi
	je	.L412
.LVL553:
	.loc 2 88 0
	movl	48(%esp), %eax
	subl	%esi, %eax
.LVL554:
.LBB2709:
.LBB2710:
.LBB2711:
.LBB2712:
	.loc 3 161 0
	cmpl	$128, %eax
	ja	.L450
	.loc 3 161 0 is_stmt 0 discriminator 4
	movl	%eax, 4(%esp)
	movl	%esi, (%esp)
	call	_ZNSt12__node_alloc13_M_deallocateEPvj@PLT
.LVL555:
.L412:
.LBE2712:
.LBE2711:
.LBE2710:
.LBE2709:
.LBE2708:
.LBE2707:
.LBE2674:
.LBE2673:
.LBE2624:
	.loc 1 357 0 is_stmt 1
	movl	76(%esp), %edi
	xorl	%gs:20, %edi
.LVL556:
	movl	%ebp, %eax
	jne	.L451
	leal	92(%esp), %esp
	.cfi_remember_state
	.cfi_def_cfa_offset 20
	popl	%ebx
	.cfi_restore 3
	.cfi_def_cfa_offset 16
	popl	%esi
	.cfi_restore 6
	.cfi_def_cfa_offset 12
	popl	%edi
	.cfi_restore 7
	.cfi_def_cfa_offset 8
	popl	%ebp
	.cfi_restore 5
	.cfi_def_cfa_offset 4
	ret
.LVL557:
.L448:
	.cfi_restore_state
.LBB2725:
.LBB2722:
.LBB2671:
.LBB2659:
.LBB2658:
.LBB2657:
.LBB2656:
.LBB2655:
.LBB2654:
.LBB2653:
.LBB2652:
.LBB2650:
.LBB2651:
	.loc 5 135 0
	movl	%eax, (%esp)
	call	_ZdlPv@PLT
.LVL558:
	jmp	.L405
.LVL559:
.L450:
.LBE2651:
.LBE2650:
.LBE2652:
.LBE2653:
.LBE2654:
.LBE2655:
.LBE2656:
.LBE2657:
.LBE2658:
.LBE2659:
.LBE2671:
.LBE2722:
.LBB2723:
.LBB2721:
.LBB2720:
.LBB2719:
.LBB2718:
.LBB2717:
.LBB2716:
.LBB2715:
.LBB2713:
.LBB2714:
	movl	%esi, (%esp)
	call	_ZdlPv@PLT
.LVL560:
	.p2align 4,,5
	jmp	.L412
.LVL561:
.L447:
.LBE2714:
.LBE2713:
.LBE2715:
.LBE2716:
.LBE2717:
.LBE2718:
.LBE2719:
.LBE2720:
.LBE2721:
.LBE2723:
.LBB2724:
.LBB2672:
	.loc 1 351 0 discriminator 1
	movl	%eax, 12(%esp)
	leal	.LC68@GOTOFF(%ebx), %eax
	movl	%eax, 8(%esp)
	leal	.LC2@GOTOFF(%ebx), %eax
	movl	$3, (%esp)
	.loc 1 352 0 discriminator 1
	leal	_ZZ29GetBaseLibraryNameFromAddressE4name@GOTOFF(%ebx), %ebp
	.loc 1 351 0 discriminator 1
	movl	%eax, 4(%esp)
	call	__android_log_print@PLT
.LVL562:
	movl	72(%esp), %esi
.LVL563:
	.loc 1 352 0 discriminator 1
	movl	%ebp, (%esp)
	movl	%esi, 4(%esp)
	call	strcpy@PLT
.LVL564:
.LBB2660:
.LBB2661:
.LBB2662:
.LBB2663:
.LBB2664:
	.loc 9 96 0
	cmpl	%edi, %esi
	je	.L404
	.loc 9 97 0
	movl	52(%esp), %eax
	subl	%esi, %eax
.LVL565:
.LBB2665:
.LBB2666:
.LBB2667:
	.loc 3 161 0
	cmpl	$128, %eax
	ja	.L452
	.loc 3 161 0 is_stmt 0 discriminator 4
	movl	%eax, 4(%esp)
	movl	%esi, (%esp)
	call	_ZNSt12__node_alloc13_M_deallocateEPvj@PLT
.LVL566:
.L404:
	movl	40(%esp), %edi
.LVL567:
	movl	44(%esp), %esi
	jmp	.L398
.LVL568:
.L452:
.LBB2668:
.LBB2669:
	.loc 5 135 0 is_stmt 1
	movl	%esi, (%esp)
	call	_ZdlPv@PLT
.LVL569:
	jmp	.L404
.LVL570:
.L423:
.LBE2669:
.LBE2668:
.LBE2667:
.LBE2666:
.LBE2665:
.LBE2664:
.LBE2663:
.LBE2662:
.LBE2661:
.LBE2660:
.LBE2672:
	.loc 1 343 0 discriminator 1
	movl	%edx, %edi
	leal	_ZZ29GetBaseLibraryNameFromAddressE4name@GOTOFF(%ebx), %ebp
	jmp	.L398
.LVL571:
.L451:
.LBE2724:
.LBE2725:
	.loc 1 357 0
	call	__stack_chk_fail_local
.LVL572:
	.cfi_endproc
.LFE1587:
	.size	GetBaseLibraryNameFromAddress, .-GetBaseLibraryNameFromAddress
	.section	.text.unlikely.GetBaseLibraryNameFromAddress
.LCOLDE73:
	.section	.text.GetBaseLibraryNameFromAddress
.LHOTE73:
	.section	.rodata.str1.1
.LC74:
	.string	"linkerBase = %08X\n"
.LC75:
	.string	"linkername %s\n"
.LC76:
	.string	"offset dlopen = %08X\n"
.LC77:
	.string	"/system/lib/arm/libdl.so"
.LC78:
	.string	"targetLinkerBase = %08X\n"
.LC79:
	.string	"/system/lib/arm/linker"
	.section	.rodata.str1.4
	.align 4
.LC80:
	.string	"targetLinkerBase(/system/lib/arm/linker) = %08X\n"
	.section	.rodata.str1.1
.LC81:
	.string	"target dlopen = %08X\n"
	.section	.rodata.str1.4
	.align 4
.LC82:
	.string	"ERROR: target dlopen notfound\n"
	.section	.text.unlikely.FinddlopenAddress,"ax",@progbits
.LCOLDB83:
	.section	.text.FinddlopenAddress,"ax",@progbits
.LHOTB83:
	.p2align 4,,15
	.globl	FinddlopenAddress
	.type	FinddlopenAddress, @function
FinddlopenAddress:
.LFB1585:
	.loc 1 291 0
	.cfi_startproc
.LVL573:
	pushl	%ebp
	.cfi_def_cfa_offset 8
	.cfi_offset 5, -8
	pushl	%edi
	.cfi_def_cfa_offset 12
	.cfi_offset 7, -12
	pushl	%esi
	.cfi_def_cfa_offset 16
	.cfi_offset 6, -16
	pushl	%ebx
	.cfi_def_cfa_offset 20
	.cfi_offset 3, -20
	call	__x86.get_pc_thunk.bx
	addl	$_GLOBAL_OFFSET_TABLE_, %ebx
	leal	-28(%esp), %esp
	.cfi_def_cfa_offset 48
.LBB2726:
	.loc 1 295 0
	leal	.LC2@GOTOFF(%ebx), %edi
	.loc 1 294 0
	movl	dlopen@GOT(%ebx), %esi
	movl	$0, 4(%esp)
	movl	%esi, (%esp)
	call	FindBaseLibraryFromAddress@PLT
.LVL574:
	.loc 1 295 0
	movl	%eax, 12(%esp)
	.loc 1 294 0
	movl	%eax, %ebp
.LVL575:
	.loc 1 295 0
	movl	%edi, 4(%esp)
	leal	.LC74@GOTOFF(%ebx), %eax
.LVL576:
	movl	$3, (%esp)
	movl	%eax, 8(%esp)
	call	__android_log_print@PLT
.LVL577:
	.loc 1 296 0
	movl	%esi, (%esp)
	.loc 1 297 0
	subl	%ebp, %esi
	.loc 1 296 0
	movl	$0, 4(%esp)
	call	GetBaseLibraryNameFromAddress@PLT
.LVL578:
	.loc 1 296 0 is_stmt 0 discriminator 1
	movl	%eax, 12(%esp)
	leal	.LC75@GOTOFF(%ebx), %eax
	movl	%edi, 4(%esp)
	movl	$3, (%esp)
	movl	%eax, 8(%esp)
	call	__android_log_print@PLT
.LVL579:
	.loc 1 298 0 is_stmt 1
	movl	%esi, 12(%esp)
	leal	.LC76@GOTOFF(%ebx), %eax
	movl	%edi, 4(%esp)
	movl	$3, (%esp)
	movl	%eax, 8(%esp)
	call	__android_log_print@PLT
.LVL580:
	.loc 1 300 0
	movl	48(%esp), %eax
	movl	%eax, 4(%esp)
	leal	.LC77@GOTOFF(%ebx), %eax
	movl	%eax, (%esp)
	call	FindBaseLibrary@PLT
.LVL581:
	.loc 1 301 0
	movl	%eax, 12(%esp)
	.loc 1 300 0
	movl	%eax, %ebp
.LVL582:
	.loc 1 301 0
	movl	%edi, 4(%esp)
	leal	.LC78@GOTOFF(%ebx), %eax
.LVL583:
	movl	$3, (%esp)
	movl	%eax, 8(%esp)
	call	__android_log_print@PLT
.LVL584:
	.loc 1 302 0
	testl	%ebp, %ebp
	je	.L458
.L454:
	.loc 1 308 0
	addl	%ebp, %esi
.LVL585:
	.loc 1 309 0
	leal	.LC81@GOTOFF(%ebx), %eax
	movl	%edi, 4(%esp)
	movl	%esi, 12(%esp)
	movl	$3, (%esp)
	movl	%eax, 8(%esp)
	call	__android_log_print@PLT
.LVL586:
.LBE2726:
	.loc 1 315 0
	leal	28(%esp), %esp
	.cfi_remember_state
	.cfi_def_cfa_offset 20
	movl	%esi, %eax
	popl	%ebx
	.cfi_restore 3
	.cfi_def_cfa_offset 16
	popl	%esi
	.cfi_restore 6
	.cfi_def_cfa_offset 12
.LVL587:
	popl	%edi
	.cfi_restore 7
	.cfi_def_cfa_offset 8
	popl	%ebp
	.cfi_restore 5
	.cfi_def_cfa_offset 4
.LVL588:
	ret
.LVL589:
	.p2align 4,,7
	.p2align 3
.L458:
	.cfi_restore_state
.LBB2727:
	.loc 1 304 0
	movl	48(%esp), %eax
	movl	%eax, 4(%esp)
	leal	.LC79@GOTOFF(%ebx), %eax
	movl	%eax, (%esp)
	call	FindBaseLibrary@PLT
.LVL590:
	.loc 1 305 0
	movl	%eax, 12(%esp)
	.loc 1 304 0
	movl	%eax, %ebp
.LVL591:
	.loc 1 305 0
	movl	%edi, 4(%esp)
	leal	.LC80@GOTOFF(%ebx), %eax
.LVL592:
	movl	$3, (%esp)
	movl	%eax, 8(%esp)
	call	__android_log_print@PLT
.LVL593:
	.loc 1 307 0
	testl	%ebp, %ebp
	jne	.L454
	.loc 1 312 0
	leal	.LC82@GOTOFF(%ebx), %eax
	.loc 1 292 0
	xorl	%esi, %esi
.LVL594:
	.loc 1 312 0
	movl	%edi, 4(%esp)
	movl	$3, (%esp)
	movl	%eax, 8(%esp)
	call	__android_log_print@PLT
.LVL595:
.LBE2727:
	.loc 1 315 0
	leal	28(%esp), %esp
	.cfi_def_cfa_offset 20
	movl	%esi, %eax
	popl	%ebx
	.cfi_restore 3
	.cfi_def_cfa_offset 16
	popl	%esi
	.cfi_restore 6
	.cfi_def_cfa_offset 12
.LVL596:
	popl	%edi
	.cfi_restore 7
	.cfi_def_cfa_offset 8
	popl	%ebp
	.cfi_restore 5
	.cfi_def_cfa_offset 4
.LVL597:
	ret
	.cfi_endproc
.LFE1585:
	.size	FinddlopenAddress, .-FinddlopenAddress
	.section	.text.unlikely.FinddlopenAddress
.LCOLDE83:
	.section	.text.FinddlopenAddress
.LHOTE83:
	.section	.rodata.str1.1
.LC84:
	.string	"libcBase = %08X\n"
.LC85:
	.string	"libcBasename %s\n"
.LC86:
	.string	"offset write = %08X\n"
.LC87:
	.string	"/system/lib/arm/libc_orig.so"
.LC88:
	.string	"target write = %08X\n"
.LC89:
	.string	"ERROR: target write notfound\n"
	.section	.text.unlikely.FindwriteAddress,"ax",@progbits
.LCOLDB90:
	.section	.text.FindwriteAddress,"ax",@progbits
.LHOTB90:
	.p2align 4,,15
	.globl	FindwriteAddress
	.type	FindwriteAddress, @function
FindwriteAddress:
.LFB1586:
	.loc 1 318 0
	.cfi_startproc
.LVL598:
	pushl	%ebp
	.cfi_def_cfa_offset 8
	.cfi_offset 5, -8
	pushl	%edi
	.cfi_def_cfa_offset 12
	.cfi_offset 7, -12
	pushl	%esi
	.cfi_def_cfa_offset 16
	.cfi_offset 6, -16
	pushl	%ebx
	.cfi_def_cfa_offset 20
	.cfi_offset 3, -20
	call	__x86.get_pc_thunk.bx
	addl	$_GLOBAL_OFFSET_TABLE_, %ebx
	leal	-28(%esp), %esp
	.cfi_def_cfa_offset 48
.LBB2728:
	.loc 1 321 0
	leal	.LC2@GOTOFF(%ebx), %esi
	.loc 1 320 0
	movl	write@GOT(%ebx), %ebp
	movl	$0, 4(%esp)
	movl	%ebp, (%esp)
	call	FindBaseLibraryFromAddress@PLT
.LVL599:
	.loc 1 321 0
	movl	%eax, 12(%esp)
	.loc 1 320 0
	movl	%eax, %edi
.LVL600:
	.loc 1 321 0
	movl	%esi, 4(%esp)
	leal	.LC84@GOTOFF(%ebx), %eax
.LVL601:
	movl	$3, (%esp)
	movl	%eax, 8(%esp)
	call	__android_log_print@PLT
.LVL602:
	.loc 1 322 0
	movl	%ebp, (%esp)
	.loc 1 323 0
	subl	%edi, %ebp
	.loc 1 322 0
	movl	$0, 4(%esp)
	call	GetBaseLibraryNameFromAddress@PLT
.LVL603:
	.loc 1 322 0 is_stmt 0 discriminator 1
	movl	%eax, 12(%esp)
	leal	.LC85@GOTOFF(%ebx), %eax
	movl	%esi, 4(%esp)
	movl	$3, (%esp)
	movl	%eax, 8(%esp)
	call	__android_log_print@PLT
.LVL604:
	.loc 1 324 0 is_stmt 1
	movl	%ebp, 12(%esp)
	leal	.LC86@GOTOFF(%ebx), %eax
	movl	%esi, 4(%esp)
	movl	$3, (%esp)
	movl	%eax, 8(%esp)
	call	__android_log_print@PLT
.LVL605:
	.loc 1 326 0
	movl	48(%esp), %eax
	movl	%eax, 4(%esp)
	leal	.LC87@GOTOFF(%ebx), %eax
	movl	%eax, (%esp)
	call	FindBaseLibrary@PLT
.LVL606:
	.loc 1 327 0
	movl	%eax, 12(%esp)
	.loc 1 326 0
	movl	%eax, %edi
.LVL607:
	.loc 1 327 0
	movl	%esi, 4(%esp)
	leal	.LC78@GOTOFF(%ebx), %eax
.LVL608:
	movl	$3, (%esp)
	movl	%eax, 8(%esp)
	call	__android_log_print@PLT
.LVL609:
	.loc 1 328 0
	testl	%edi, %edi
	jne	.L463
	.loc 1 332 0
	leal	.LC89@GOTOFF(%ebx), %eax
	.loc 1 319 0
	xorl	%edi, %edi
.LVL610:
	.loc 1 332 0
	movl	%esi, 4(%esp)
	movl	$3, (%esp)
	movl	%eax, 8(%esp)
	call	__android_log_print@PLT
.LVL611:
.LBE2728:
	.loc 1 335 0
	leal	28(%esp), %esp
	.cfi_remember_state
	.cfi_def_cfa_offset 20
	movl	%edi, %eax
	popl	%ebx
	.cfi_restore 3
	.cfi_def_cfa_offset 16
	popl	%esi
	.cfi_restore 6
	.cfi_def_cfa_offset 12
	popl	%edi
	.cfi_restore 7
	.cfi_def_cfa_offset 8
.LVL612:
	popl	%ebp
	.cfi_restore 5
	.cfi_def_cfa_offset 4
.LVL613:
	ret
.LVL614:
	.p2align 4,,7
	.p2align 3
.L463:
	.cfi_restore_state
.LBB2729:
	.loc 1 329 0
	addl	%ebp, %edi
.LVL615:
	.loc 1 330 0
	leal	.LC88@GOTOFF(%ebx), %eax
	movl	%esi, 4(%esp)
	movl	%edi, 12(%esp)
	movl	$3, (%esp)
	movl	%eax, 8(%esp)
	call	__android_log_print@PLT
.LVL616:
.LBE2729:
	.loc 1 335 0
	leal	28(%esp), %esp
	.cfi_def_cfa_offset 20
	movl	%edi, %eax
	popl	%ebx
	.cfi_restore 3
	.cfi_def_cfa_offset 16
	popl	%esi
	.cfi_restore 6
	.cfi_def_cfa_offset 12
	popl	%edi
	.cfi_restore 7
	.cfi_def_cfa_offset 8
.LVL617:
	popl	%ebp
	.cfi_restore 5
	.cfi_def_cfa_offset 4
.LVL618:
	ret
	.cfi_endproc
.LFE1586:
	.size	FindwriteAddress, .-FindwriteAddress
	.section	.text.unlikely.FindwriteAddress
.LCOLDE90:
	.section	.text.FindwriteAddress
.LHOTE90:
	.section	.rodata.str1.1
.LC91:
	.string	"GetBaseLibraryTextSize: %s %d"
.LC92:
	.string	"xp"
.LC93:
	.string	"GetBaseLibraryTextSize = %08X"
	.section	.text.unlikely.GetBaseLibraryTextSize,"ax",@progbits
.LCOLDB94:
	.section	.text.GetBaseLibraryTextSize,"ax",@progbits
.LHOTB94:
	.p2align 4,,15
	.globl	GetBaseLibraryTextSize
	.type	GetBaseLibraryTextSize, @function
GetBaseLibraryTextSize:
.LFB1588:
	.loc 1 360 0
	.cfi_startproc
.LVL619:
	pushl	%ebp
	.cfi_def_cfa_offset 8
	.cfi_offset 5, -8
	pushl	%edi
	.cfi_def_cfa_offset 12
	.cfi_offset 7, -12
	pushl	%esi
	.cfi_def_cfa_offset 16
	.cfi_offset 6, -16
	pushl	%ebx
	.cfi_def_cfa_offset 20
	.cfi_offset 3, -20
	call	__x86.get_pc_thunk.bx
	addl	$_GLOBAL_OFFSET_TABLE_, %ebx
	leal	-108(%esp), %esp
	.cfi_def_cfa_offset 128
	.loc 1 360 0
	movl	128(%esp), %eax
	movl	132(%esp), %esi
.LBB2830:
	.loc 1 361 0
	movl	$3, (%esp)
.LBE2830:
	.loc 1 360 0
	movl	%eax, 36(%esp)
.LBB2942:
	.loc 1 361 0
	movl	%eax, 12(%esp)
	leal	.LC91@GOTOFF(%ebx), %eax
	movl	%eax, 8(%esp)
	leal	.LC2@GOTOFF(%ebx), %eax
	movl	%esi, 16(%esp)
	movl	%eax, 4(%esp)
.LBE2942:
	.loc 1 360 0
	movl	%gs:20, %ecx
	movl	%ecx, 92(%esp)
	xorl	%ecx, %ecx
.LBB2943:
	.loc 1 361 0
	movl	%eax, 44(%esp)
	call	__android_log_print@PLT
.LVL620:
	.loc 1 364 0
	movl	%esi, (%esp)
	leal	56(%esp), %eax
.LVL621:
	movl	%eax, 4(%esp)
.LBB2831:
.LBB2832:
.LBB2833:
	.loc 2 67 0
	movl	$0, 56(%esp)
	movl	$0, 60(%esp)
.LVL622:
.LBB2834:
.LBB2835:
	.loc 3 481 0
	movl	$0, 64(%esp)
.LVL623:
.LBE2835:
.LBE2834:
.LBE2833:
.LBE2832:
.LBE2831:
	.loc 1 364 0
	call	_Z8ReadMapsiRSt6vectorISsSaISsEE@PLT
.LVL624:
	movl	60(%esp), %esi
	movl	56(%esp), %eax
.LVL625:
.LBB2836:
.LBB2837:
.LBB2838:
	.loc 2 192 0
	movl	%esi, %edx
	subl	%eax, %edx
	sarl	$3, %edx
	imull	$-1431655765, %edx, %edx
.LBE2838:
.LBE2837:
	.loc 1 365 0 discriminator 1
	testl	%edx, %edx
	je	.L494
	leal	68(%esp), %ecx
	xorl	%edi, %edi
	movl	%ecx, 32(%esp)
.LBB2840:
.LBB2841:
	.loc 1 368 0 discriminator 7
	leal	.LC92@GOTOFF(%ebx), %ecx
	movl	%ecx, 40(%esp)
.LVL626:
	.p2align 5,,30
	.p2align 3
.L475:
	leal	(%edi,%edi,2), %edx
	leal	0(,%edx,8), %ebp
.LBE2841:
.LBB2845:
.LBB2846:
	.loc 2 202 0
	addl	%ebp, %eax
.LBE2846:
.LBE2845:
	.loc 1 366 0 discriminator 1
	movl	%eax, 4(%esp)
	movl	32(%esp), %eax
	movl	%eax, (%esp)
	call	_ZNSsC1ERKSs@PLT
.LVL627:
	movl	84(%esp), %esi
.LVL628:
	movl	88(%esp), %eax
.LVL629:
.LBB2847:
.LBB2848:
	.loc 6 704 0 discriminator 1
	cmpl	%eax, %esi
	jne	.L468
	jmp	.L466
	.p2align 4,,7
	.p2align 3
.L467:
	.loc 6 704 0 is_stmt 0
	addl	$1, %eax
.LVL630:
	.loc 6 704 0 discriminator 1
	cmpl	%esi, %eax
	je	.L525
.L468:
	.loc 6 705 0 is_stmt 1
	cmpb	$45, (%eax)
	.p2align 4,,3
	jne	.L467
	.loc 6 706 0
	movb	$32, (%eax)
	.loc 6 704 0
	addl	$1, %eax
.LVL631:
	.loc 6 704 0 is_stmt 0 discriminator 1
	cmpl	%esi, %eax
	jne	.L468
.L525:
	movl	88(%esp), %esi
.LVL632:
.L466:
	movl	56(%esp), %eax
.LVL633:
	movl	20(%eax,%ebp), %ebp
.LVL634:
.LBE2848:
.LBE2847:
.LBB2849:
	.loc 1 368 0 is_stmt 1 discriminator 2
	movl	36(%esp), %eax
	movl	%ebp, (%esp)
	movl	%eax, 4(%esp)
	call	strstr@PLT
.LVL635:
	.loc 1 368 0 is_stmt 0
	testl	%eax, %eax
	je	.L469
.LVL636:
	.loc 1 368 0 discriminator 7
	movl	40(%esp), %eax
	movl	%ebp, (%esp)
	movl	%eax, 4(%esp)
	call	strstr@PLT
.LVL637:
	.loc 1 368 0 discriminator 3
	testl	%eax, %eax
	je	.L469
.LVL638:
.LBB2842:
	.loc 1 371 0 is_stmt 1 discriminator 1
	movl	%esi, (%esp)
	leal	52(%esp), %eax
	movl	%eax, 12(%esp)
	leal	48(%esp), %eax
	movl	%eax, 8(%esp)
	leal	.LC67@GOTOFF(%ebx), %eax
	movl	%eax, 4(%esp)
	call	sscanf@PLT
.LVL639:
	.loc 1 371 0 is_stmt 0
	cmpl	$2, %eax
	je	.L526
	movl	88(%esp), %esi
.LVL640:
.L469:
.LBE2842:
.LBE2849:
.LBB2850:
.LBB2851:
.LBB2852:
.LBB2853:
.LBB2854:
	.loc 9 96 0 is_stmt 1 discriminator 1
	cmpl	32(%esp), %esi
	je	.L474
	testl	%esi, %esi
	je	.L474
.LVL641:
	.loc 9 97 0
	movl	68(%esp), %eax
	subl	%esi, %eax
.LVL642:
.LBB2855:
.LBB2856:
.LBB2857:
	.loc 3 161 0
	cmpl	$128, %eax
	ja	.L527
	.loc 3 161 0 is_stmt 0 discriminator 4
	movl	%eax, 4(%esp)
	movl	%esi, (%esp)
	call	_ZNSt12__node_alloc13_M_deallocateEPvj@PLT
.LVL643:
.L474:
	movl	60(%esp), %esi
.LBE2857:
.LBE2856:
.LBE2855:
.LBE2854:
.LBE2853:
.LBE2852:
.LBE2851:
.LBE2850:
.LBE2840:
	.loc 1 365 0 is_stmt 1 discriminator 2
	addl	$1, %edi
.LVL644:
	movl	56(%esp), %eax
.LBB2887:
.LBB2839:
	.loc 2 192 0
	movl	%esi, %edx
	subl	%eax, %edx
	sarl	$3, %edx
	imull	$-1431655765, %edx, %edx
.LBE2839:
.LBE2887:
	.loc 1 365 0 discriminator 1
	cmpl	%edx, %edi
	jb	.L475
.LVL645:
.L494:
	movl	%eax, %ebp
.LBE2836:
	.loc 1 377 0
	xorl	%edi, %edi
.L465:
.LVL646:
.LBB2890:
.LBB2891:
.LBB2892:
.LBB2893:
.LBB2894:
.LBB2895:
.LBB2896:
	.loc 4 191 0 discriminator 1
	cmpl	%esi, %ebp
	jne	.L480
	jmp	.L476
.LVL647:
	.p2align 4,,7
	.p2align 3
.L517:
.LBB2897:
.LBB2898:
.LBB2899:
.LBB2900:
.LBB2901:
.LBB2902:
.LBB2903:
.LBB2904:
	.loc 3 161 0 discriminator 4
	movl	%edx, 4(%esp)
.LVL648:
	movl	%eax, (%esp)
	call	_ZNSt12__node_alloc13_M_deallocateEPvj@PLT
.LVL649:
.L479:
.LBE2904:
.LBE2903:
.LBE2902:
.LBE2901:
.LBE2900:
.LBE2899:
.LBE2898:
.LBE2897:
	.loc 4 191 0 discriminator 1
	cmpl	%ebp, %esi
	je	.L528
.LVL650:
.L480:
.LBB2920:
.LBB2918:
.LBB2916:
.LBB2914:
.LBB2912:
.LBB2909:
.LBB2910:
	.loc 9 64 0
	movl	-4(%esi), %eax
.LBE2910:
.LBE2909:
.LBE2912:
.LBE2914:
.LBE2916:
.LBE2918:
.LBE2920:
.LBB2921:
.LBB2922:
	.loc 13 77 0
	subl	$24, %esi
.LVL651:
.LBE2922:
.LBE2921:
.LBB2923:
.LBB2919:
.LBB2917:
.LBB2915:
.LBB2913:
	.loc 9 96 0 discriminator 1
	cmpl	%esi, %eax
	je	.L479
	testl	%eax, %eax
	je	.L479
.LVL652:
	.loc 9 97 0
	movl	(%esi), %edx
	subl	%eax, %edx
.LVL653:
.LBB2911:
.LBB2908:
.LBB2907:
	.loc 3 161 0
	cmpl	$128, %edx
	jbe	.L517
.LVL654:
.LBB2905:
.LBB2906:
	.loc 5 135 0
	movl	%eax, (%esp)
.LVL655:
	call	_ZdlPv@PLT
.LVL656:
.LBE2906:
.LBE2905:
.LBE2907:
.LBE2908:
.LBE2911:
.LBE2913:
.LBE2915:
.LBE2917:
.LBE2919:
.LBE2923:
	.loc 4 191 0 discriminator 1
	cmpl	%ebp, %esi
	jne	.L480
.LVL657:
.L528:
	movl	56(%esp), %esi
.LVL658:
.L476:
.LBE2896:
.LBE2895:
.LBE2894:
.LBE2893:
.LBE2892:
.LBB2924:
.LBB2925:
	.loc 2 87 0
	testl	%esi, %esi
	je	.L481
.LVL659:
	.loc 2 88 0
	movl	64(%esp), %eax
	subl	%esi, %eax
.LVL660:
.LBB2926:
.LBB2927:
.LBB2928:
.LBB2929:
	.loc 3 161 0
	cmpl	$128, %eax
	ja	.L529
	.loc 3 161 0 is_stmt 0 discriminator 4
	movl	%eax, 4(%esp)
	movl	%esi, (%esp)
	call	_ZNSt12__node_alloc13_M_deallocateEPvj@PLT
.LVL661:
.L481:
.LBE2929:
.LBE2928:
.LBE2927:
.LBE2926:
.LBE2925:
.LBE2924:
.LBE2891:
.LBE2890:
.LBE2943:
	.loc 1 378 0 is_stmt 1
	movl	92(%esp), %ecx
	xorl	%gs:20, %ecx
	movl	%edi, %eax
	jne	.L530
	leal	108(%esp), %esp
	.cfi_remember_state
	.cfi_def_cfa_offset 20
	popl	%ebx
	.cfi_restore 3
	.cfi_def_cfa_offset 16
	popl	%esi
	.cfi_restore 6
	.cfi_def_cfa_offset 12
	popl	%edi
	.cfi_restore 7
	.cfi_def_cfa_offset 8
	popl	%ebp
	.cfi_restore 5
	.cfi_def_cfa_offset 4
.LVL662:
	ret
.LVL663:
.L527:
	.cfi_restore_state
.LBB2944:
.LBB2939:
.LBB2888:
.LBB2867:
.LBB2866:
.LBB2865:
.LBB2864:
.LBB2863:
.LBB2862:
.LBB2861:
.LBB2860:
.LBB2858:
.LBB2859:
	.loc 5 135 0
	movl	%esi, (%esp)
	call	_ZdlPv@PLT
.LVL664:
	jmp	.L474
.LVL665:
.L529:
.LBE2859:
.LBE2858:
.LBE2860:
.LBE2861:
.LBE2862:
.LBE2863:
.LBE2864:
.LBE2865:
.LBE2866:
.LBE2867:
.LBE2888:
.LBE2939:
.LBB2940:
.LBB2938:
.LBB2937:
.LBB2936:
.LBB2935:
.LBB2934:
.LBB2933:
.LBB2932:
.LBB2930:
.LBB2931:
	movl	%esi, (%esp)
	call	_ZdlPv@PLT
.LVL666:
	.p2align 4,,5
	jmp	.L481
.LVL667:
.L526:
.LBE2931:
.LBE2930:
.LBE2932:
.LBE2933:
.LBE2934:
.LBE2935:
.LBE2936:
.LBE2937:
.LBE2938:
.LBE2940:
.LBB2941:
.LBB2889:
.LBB2868:
.LBB2843:
	.loc 1 372 0
	movl	52(%esp), %eax
	movl	$3, (%esp)
	subl	48(%esp), %eax
	movl	%eax, 12(%esp)
	leal	.LC93@GOTOFF(%ebx), %eax
	movl	%eax, 8(%esp)
	movl	44(%esp), %eax
	movl	%eax, 4(%esp)
	call	__android_log_print@PLT
.LVL668:
	.loc 1 373 0
	movl	52(%esp), %edi
.LVL669:
.LBE2843:
.LBE2868:
.LBB2869:
.LBB2870:
.LBB2871:
.LBB2872:
.LBB2873:
.LBB2874:
.LBB2875:
	.loc 9 64 0
	movl	88(%esp), %eax
.LBE2875:
.LBE2874:
.LBE2873:
.LBE2872:
.LBE2871:
.LBE2870:
.LBE2869:
.LBB2885:
.LBB2844:
	.loc 1 373 0
	subl	48(%esp), %edi
.LVL670:
.LBE2844:
.LBE2885:
.LBB2886:
.LBB2884:
.LBB2883:
.LBB2882:
.LBB2881:
	.loc 9 96 0 discriminator 1
	cmpl	32(%esp), %eax
	je	.L473
	testl	%eax, %eax
	je	.L473
.LVL671:
	.loc 9 97 0
	movl	68(%esp), %edx
	subl	%eax, %edx
.LVL672:
.LBB2876:
.LBB2877:
.LBB2878:
	.loc 3 161 0
	cmpl	$128, %edx
	ja	.L531
	.loc 3 161 0 is_stmt 0 discriminator 4
	movl	%edx, 4(%esp)
	movl	%eax, (%esp)
	call	_ZNSt12__node_alloc13_M_deallocateEPvj@PLT
.LVL673:
.L473:
	movl	56(%esp), %ebp
	movl	60(%esp), %esi
	jmp	.L465
.LVL674:
.L531:
.LBB2879:
.LBB2880:
	.loc 5 135 0 is_stmt 1
	movl	%eax, (%esp)
	call	_ZdlPv@PLT
.LVL675:
	jmp	.L473
.LVL676:
.L530:
.LBE2880:
.LBE2879:
.LBE2878:
.LBE2877:
.LBE2876:
.LBE2881:
.LBE2882:
.LBE2883:
.LBE2884:
.LBE2886:
.LBE2889:
.LBE2941:
.LBE2944:
	.loc 1 378 0
	.p2align 4,,5
	call	__stack_chk_fail_local
.LVL677:
	.cfi_endproc
.LFE1588:
	.size	GetBaseLibraryTextSize, .-GetBaseLibraryTextSize
	.section	.text.unlikely.GetBaseLibraryTextSize
.LCOLDE94:
	.section	.text.GetBaseLibraryTextSize
.LHOTE94:
	.local	_ZZ29GetBaseLibraryNameFromAddressE4name
	.comm	_ZZ29GetBaseLibraryNameFromAddressE4name,1024,64
	.globl	mono_runtime_invoke
	.bss
	.align 4
	.type	mono_runtime_invoke, @object
	.size	mono_runtime_invoke, 4
mono_runtime_invoke:
	.zero	4
	.globl	mono_class_get_method_from_name
	.align 4
	.type	mono_class_get_method_from_name, @object
	.size	mono_class_get_method_from_name, 4
mono_class_get_method_from_name:
	.zero	4
	.globl	mono_class_from_name
	.align 4
	.type	mono_class_from_name, @object
	.size	mono_class_from_name, 4
mono_class_from_name:
	.zero	4
	.globl	mono_assembly_get_image
	.align 4
	.type	mono_assembly_get_image, @object
	.size	mono_assembly_get_image, 4
mono_assembly_get_image:
	.zero	4
	.globl	mono_assembly_load_from_full
	.align 4
	.type	mono_assembly_load_from_full, @object
	.size	mono_assembly_load_from_full, 4
mono_assembly_load_from_full:
	.zero	4
	.globl	mono_thread_attach
	.align 4
	.type	mono_thread_attach, @object
	.size	mono_thread_attach, 4
mono_thread_attach:
	.zero	4
	.globl	mono_get_root_domain
	.align 4
	.type	mono_get_root_domain, @object
	.size	mono_get_root_domain, 4
mono_get_root_domain:
	.zero	4
	.globl	mono_domain_assembly_open
	.align 4
	.type	mono_domain_assembly_open, @object
	.size	mono_domain_assembly_open, 4
mono_domain_assembly_open:
	.zero	4
	.globl	mono_image_open_from_data
	.align 4
	.type	mono_image_open_from_data, @object
	.size	mono_image_open_from_data, 4
mono_image_open_from_data:
	.zero	4
	.globl	mono_domain_get
	.align 4
	.type	mono_domain_get, @object
	.size	mono_domain_get, 4
mono_domain_get:
	.zero	4
	.section	.text.__x86.get_pc_thunk.bx,"axG",@progbits,__x86.get_pc_thunk.bx,comdat
	.globl	__x86.get_pc_thunk.bx
	.hidden	__x86.get_pc_thunk.bx
	.type	__x86.get_pc_thunk.bx, @function
__x86.get_pc_thunk.bx:
.LFB2037:
	.cfi_startproc
	movl	(%esp), %ebx
	ret
	.cfi_endproc
.LFE2037:
	.text
.Letext0:
	.section	.text.unlikely._Z8ReadFilePKc
.Letext_cold0:
	.file 14 "D:/android-ndk-r12b/build//../sources/cxx-stl/stlport/stlport/stl/_cstddef.h"
	.file 15 "D:/android-ndk-r12b/build//../sources/cxx-stl/stlport/stlport/stl/_cstdlib.h"
	.file 16 "D:/android-ndk-r12b/build//../sources/cxx-stl/stlport/stlport/stl/_cmath.h"
	.file 17 "D:/android-ndk-r12b/build//../sources/cxx-stl/stlport/stlport/using/cstring"
	.file 18 "D:/android-ndk-r12b/build//../sources/cxx-stl/stlport/stlport/stl/type_manips.h"
	.file 19 "D:/android-ndk-r12b/build//../sources/cxx-stl/stlport/stlport/stl/_limits.h"
	.file 20 "D:/android-ndk-r12b/build//../sources/cxx-stl/stlport/stlport/stl/_move_construct_fwk.h"
	.file 21 "D:/android-ndk-r12b/build//../sources/cxx-stl/stlport/stlport/stl/type_traits.h"
	.file 22 "D:/android-ndk-r12b/build//../sources/cxx-stl/stlport/stlport/stl/_iterator_base.h"
	.file 23 "D:/android-ndk-r12b/build//../sources/cxx-stl/stlport/stlport/../../gabi++/include/cstddef"
	.file 24 "D:/android-ndk-r12b/build//../sources/cxx-stl/stlport/stlport/stl/_cstdio.h"
	.file 25 "D:/android-ndk-r12b/build//../sources/cxx-stl/stlport/stlport/stl/_cwchar.h"
	.file 26 "D:/android-ndk-r12b/build//../sources/cxx-stl/stlport/stlport/stl/_string_npos.h"
	.file 27 "D:/android-ndk-r12b/build//../sources/cxx-stl/stlport/stlport/stl/_threads.h"
	.file 28 "D:/android-ndk-r12b/build//../sources/cxx-stl/stlport/stlport/stl/_ctime.h"
	.file 29 "D:/android-ndk-r12b/build//../sources/cxx-stl/stlport/stlport/stl/_string_fwd.h"
	.file 30 "D:/android-ndk-r12b/build//../sources/cxx-stl/stlport/stlport/stl/config/features.h"
	.file 31 "d:\\android-ndk-r12b\\toolchains\\x86-4.9\\prebuilt\\windows-x86_64\\lib\\gcc\\i686-linux-android\\4.9.x\\include\\stddef.h"
	.file 32 "d:\\android-ndk-r12b\\platforms\\android-9\\arch-x86\\usr\\include\\asm\\posix_types_32.h"
	.file 33 "d:\\android-ndk-r12b\\platforms\\android-9\\arch-x86\\usr\\include\\sys\\types.h"
	.file 34 "d:\\android-ndk-r12b\\toolchains\\x86-4.9\\prebuilt\\windows-x86_64\\lib\\gcc\\i686-linux-android\\4.9.x\\include\\stdarg.h"
	.file 35 "d:\\android-ndk-r12b\\platforms\\android-9\\arch-x86\\usr\\include\\stdio.h"
	.file 36 "d:\\android-ndk-r12b\\platforms\\android-9\\arch-x86\\usr\\include\\stdlib.h"
	.file 37 "D:/android-ndk-r12b/build//../sources/cxx-stl/stlport/stlport/stl/_range_errors.h"
	.file 38 "d:\\android-ndk-r12b\\platforms\\android-9\\arch-x86\\usr\\include\\string.h"
	.file 39 "d:\\android-ndk-r12b\\platforms\\android-9\\arch-x86\\usr\\include\\time.h"
	.file 40 "d:\\android-ndk-r12b\\platforms\\android-9\\arch-x86\\usr\\include\\wchar.h"
	.file 41 "d:\\android-ndk-r12b\\platforms\\android-9\\arch-x86\\usr\\include\\pthread.h"
	.file 42 "d:\\android-ndk-r12b\\platforms\\android-9\\arch-x86\\usr\\include\\android\\log.h"
	.file 43 "D:/android-ndk-r12b/build//../sources/cxx-stl/stlport/stlport/../../gabi++/include/new"
	.file 44 "d:\\android-ndk-r12b\\platforms\\android-9\\arch-x86\\usr\\include\\malloc.h"
	.file 45 "d:\\android-ndk-r12b\\platforms\\android-9\\arch-x86\\usr\\include\\dlfcn.h"
	.file 46 "d:\\android-ndk-r12b\\platforms\\android-9\\arch-x86\\usr\\include\\unistd.h"
	.file 47 "<built-in>"
	.file 48 "D:/android-ndk-r12b/build//../sources/cxx-stl/stlport/stlport/stl/_threads.c"
	.section	.note.GNU-stack,"",@progbits
