	.arch armv5te
	.fpu softvfp
	.eabi_attribute 20, 1
	.eabi_attribute 21, 1
	.eabi_attribute 23, 3
	.eabi_attribute 24, 1
	.eabi_attribute 25, 1
	.eabi_attribute 26, 2
	.eabi_attribute 30, 4
	.eabi_attribute 34, 0
	.eabi_attribute 18, 4
	.code	16
	.file	"hello.cpp"
	.text
.Ltext0:
	.cfi_sections	.debug_frame
	.section	.text._Z5hellov,"ax",%progbits
	.align	1
	.global	_Z5hellov
	.code	16
	.thumb_func
	.type	_Z5hellov, %function
_Z5hellov:
	.fnstart
.LFB1580:
	.file 1 "jni/hello/hello.cpp"
	.loc 1 41 0
	.cfi_startproc
	push	{r3, lr}
	.save {r3, lr}
	.cfi_def_cfa_offset 8
	.cfi_offset 3, -8
	.cfi_offset 14, -4
	.loc 1 42 0
	bl	getpid
.LVL0:
	mov	r1, r0
	.loc 1 42 0 is_stmt 0 discriminator 1
	ldr	r0, .L2
	.loc 1 43 0 is_stmt 1
	@ sp needed
	.loc 1 42 0 discriminator 1
.LPIC0:
	add	r0, pc
	bl	printf
.LVL1:
	.loc 1 43 0
	pop	{r3, pc}
.L3:
	.align	2
.L2:
	.word	.LC3-(.LPIC0+4)
	.cfi_endproc
.LFE1580:
	.fnend
	.size	_Z5hellov, .-_Z5hellov
	.section	.text._Z7tracemev,"ax",%progbits
	.align	1
	.global	_Z7tracemev
	.code	16
	.thumb_func
	.type	_Z7tracemev, %function
_Z7tracemev:
	.fnstart
.LFB1581:
	.loc 1 46 0
	.cfi_startproc
	ldr	r3, .L8
	push	{r4, r5, lr}
	.save {r4, r5, lr}
	.cfi_def_cfa_offset 12
	.cfi_offset 4, -12
	.cfi_offset 5, -8
	.cfi_offset 14, -4
.LPIC11:
	add	r3, pc
	ldr	r4, .L8+4
	ldr	r3, [r3]
.LBB2:
	.loc 1 48 0
	ldr	r1, .L8+8
.LBE2:
	.loc 1 46 0
	.pad #1036
	add	sp, sp, r4
	.cfi_def_cfa_offset 1048
.LBB3:
	.loc 1 48 0
	ldr	r4, .L8+12
.LBE3:
	.loc 1 46 0
	ldr	r3, [r3]
.LBB4:
	.loc 1 48 0
	add	r5, sp, #4
.LBE4:
	.loc 1 46 0
	add	r2, sp, #1020
	add	r2, r2, #8
.LBB5:
	.loc 1 48 0
.LPIC2:
	add	r1, pc
	mov	r0, r5
.LPIC10:
	add	r4, pc
.LBE5:
	.loc 1 46 0
	str	r3, [r2]
.LBB6:
	.loc 1 48 0
	bl	strcpy
.LVL2:
	.loc 1 49 0
	ldr	r4, [r4]
.LVL3:
	.loc 1 50 0
	bl	getpid
.LVL4:
	mov	r3, r0
	.loc 1 50 0 is_stmt 0 discriminator 1
	ldr	r0, .L8+16
	mov	r2, r5
	mov	r1, r5
.LPIC3:
	add	r0, pc
	bl	printf
.LVL5:
	.loc 1 51 0 is_stmt 1
	ldr	r0, .L8+20
	mov	r1, r4
.LPIC4:
	add	r0, pc
	bl	printf
.LVL6:
	.loc 1 52 0
	ldr	r1, .L8+24
	ldr	r0, .L8+28
	ldr	r5, .L8+32
.LPIC9:
	add	r1, pc
	ldr	r1, [r1]
.LPIC5:
	add	r0, pc
.LPIC8:
	add	r5, pc
	bl	printf
.LVL7:
	.loc 1 53 0
	ldr	r5, [r5]
	mov	r1, r4
	mov	r0, r5
	mov	r2, #32
	bl	_ZN6Logger6logHexEPhi
.LVL8:
	.loc 1 54 0
	ldr	r0, .L8+36
.LPIC6:
	add	r0, pc
	bl	puts
.LVL9:
.L5:
	.loc 1 57 0
	bl	getchar
.LVL10:
	.loc 1 58 0
	mov	r1, r4
	mov	r0, r5
	mov	r2, #32
	bl	_ZN6Logger6logHexEPhi
.LVL11:
	.loc 1 59 0 discriminator 2
	bl	getpid
.LVL12:
	mov	r1, r0
	ldr	r0, .L8+40
.LPIC7:
	add	r0, pc
	bl	printf
.LVL13:
	.loc 1 61 0
	b	.L5
.L9:
	.align	2
.L8:
	.word	__stack_chk_guard(GOT_PREL)+(.-(.LPIC11+4))
	.word	-1036
	.word	.LC4-(.LPIC2+4)
	.word	getpid(GOT_PREL)+(.-(.LPIC10+4))
	.word	.LC5-(.LPIC3+4)
	.word	.LC6-(.LPIC4+4)
	.word	dlopen(GOT_PREL)+(.-(.LPIC9+4))
	.word	.LC7-(.LPIC5+4)
	.word	logger(GOT_PREL)+(.-(.LPIC8+4))
	.word	.LC8-(.LPIC6+4)
	.word	.LC9-(.LPIC7+4)
.LBE6:
	.cfi_endproc
.LFE1581:
	.fnend
	.size	_Z7tracemev, .-_Z7tracemev
	.section	.text._Z11tracemeLoadv,"ax",%progbits
	.align	1
	.global	_Z11tracemeLoadv
	.code	16
	.thumb_func
	.type	_Z11tracemeLoadv, %function
_Z11tracemeLoadv:
	.fnstart
.LFB1582:
	.loc 1 65 0
	.cfi_startproc
	ldr	r3, .L13
	push	{r4, r5, lr}
	.save {r4, r5, lr}
	.cfi_def_cfa_offset 12
	.cfi_offset 4, -12
	.cfi_offset 5, -8
	.cfi_offset 14, -4
.LPIC23:
	add	r3, pc
	ldr	r4, .L13+4
	ldr	r3, [r3]
.LBB7:
	.loc 1 67 0
	ldr	r1, .L13+8
.LBE7:
	.loc 1 65 0
	.pad #1036
	add	sp, sp, r4
	.cfi_def_cfa_offset 1048
.LBB8:
	.loc 1 67 0
	ldr	r4, .L13+12
.LBE8:
	.loc 1 65 0
	ldr	r3, [r3]
.LBB9:
	.loc 1 67 0
	add	r5, sp, #4
.LBE9:
	.loc 1 65 0
	add	r2, sp, #1020
	add	r2, r2, #8
.LBB10:
	.loc 1 67 0
.LPIC13:
	add	r1, pc
	mov	r0, r5
.LPIC22:
	add	r4, pc
.LBE10:
	.loc 1 65 0
	str	r3, [r2]
.LBB11:
	.loc 1 67 0
	bl	strcpy
.LVL14:
	.loc 1 68 0
	ldr	r4, [r4]
.LVL15:
	.loc 1 69 0
	bl	getpid
.LVL16:
	mov	r3, r0
	.loc 1 69 0 is_stmt 0 discriminator 1
	ldr	r0, .L13+16
	mov	r2, r5
	mov	r1, r5
.LPIC14:
	add	r0, pc
	bl	printf
.LVL17:
	.loc 1 70 0 is_stmt 1
	ldr	r0, .L13+20
	mov	r1, r4
.LPIC15:
	add	r0, pc
	bl	printf
.LVL18:
	.loc 1 71 0
	ldr	r1, .L13+24
	ldr	r0, .L13+28
	ldr	r5, .L13+32
.LPIC21:
	add	r1, pc
	ldr	r1, [r1]
.LPIC16:
	add	r0, pc
.LPIC20:
	add	r5, pc
	bl	printf
.LVL19:
	.loc 1 72 0
	ldr	r5, [r5]
	mov	r1, r4
	mov	r0, r5
	mov	r2, #32
	bl	_ZN6Logger6logHexEPhi
.LVL20:
	.loc 1 73 0
	ldr	r0, .L13+36
.LPIC17:
	add	r0, pc
	bl	puts
.LVL21:
.L11:
	.loc 1 76 0
	bl	getchar
.LVL22:
	.loc 1 77 0
	ldr	r0, .L13+40
	mov	r1, #0
.LPIC18:
	add	r0, pc
	bl	dlopen
.LVL23:
	.loc 1 78 0
	mov	r1, r4
	mov	r0, r5
	mov	r2, #32
	bl	_ZN6Logger6logHexEPhi
.LVL24:
	.loc 1 79 0 discriminator 2
	bl	getpid
.LVL25:
	mov	r1, r0
	ldr	r0, .L13+44
.LPIC19:
	add	r0, pc
	bl	printf
.LVL26:
	.loc 1 81 0
	b	.L11
.L14:
	.align	2
.L13:
	.word	__stack_chk_guard(GOT_PREL)+(.-(.LPIC23+4))
	.word	-1036
	.word	.LC4-(.LPIC13+4)
	.word	getpid(GOT_PREL)+(.-(.LPIC22+4))
	.word	.LC5-(.LPIC14+4)
	.word	.LC6-(.LPIC15+4)
	.word	dlopen(GOT_PREL)+(.-(.LPIC21+4))
	.word	.LC7-(.LPIC16+4)
	.word	logger(GOT_PREL)+(.-(.LPIC20+4))
	.word	.LC8-(.LPIC17+4)
	.word	.LC10-(.LPIC18+4)
	.word	.LC9-(.LPIC19+4)
.LBE11:
	.cfi_endproc
.LFE1582:
	.fnend
	.size	_Z11tracemeLoadv, .-_Z11tracemeLoadv
	.section	.text._Z9armhlpx86b,"ax",%progbits
	.align	1
	.global	_Z9armhlpx86b
	.code	16
	.thumb_func
	.type	_Z9armhlpx86b, %function
_Z9armhlpx86b:
	.fnstart
.LFB1583:
	.loc 1 85 0
	.cfi_startproc
.LVL27:
	push	{r4, r5, r6, r7, lr}
	.save {r4, r5, r6, r7, lr}
	.cfi_def_cfa_offset 20
	.cfi_offset 4, -20
	.cfi_offset 5, -16
	.cfi_offset 6, -12
	.cfi_offset 7, -8
	.cfi_offset 14, -4
	ldr	r4, .L24
	ldr	r3, .L24+4
	.pad #1052
	add	sp, sp, r4
	.cfi_def_cfa_offset 1072
	.loc 1 85 0
	ldr	r4, .L24+8
	add	r1, sp, #1020
	add	r1, r1, #24
.LPIC24:
	add	r4, pc
	ldr	r3, [r4, r3]
	add	r6, sp, #20
	ldr	r2, [r3]
	str	r3, [sp, #12]
	str	r2, [r1]
.LBB12:
	.loc 1 95 0
	cmp	r0, #0
	bne	.L16
	.loc 1 96 0
	ldr	r1, .L24+12
	mov	r0, r6
.LVL28:
.LPIC25:
	add	r1, pc
	b	.L23
.LVL29:
.L16:
	.loc 1 98 0
	mov	r0, r6
.LVL30:
	ldr	r1, .L24+16
.LPIC26:
	add	r1, pc
.L23:
	bl	strcpy
.LVL31:
	.loc 1 100 0
	ldr	r0, .L24+20
	mov	r1, r6
.LPIC27:
	add	r0, pc
	bl	printf
.LVL32:
	.loc 1 101 0
	mov	r0, r6
	mov	r1, #0
	bl	dlopen
.LVL33:
	sub	r5, r0, #0
.LVL34:
	.loc 1 102 0
	bne	.L18
	.loc 1 103 0
	ldr	r0, .L24+24
.LVL35:
.LPIC28:
	add	r0, pc
	bl	perror
.LVL36:
	.loc 1 104 0
	bl	__errno
.LVL37:
	ldr	r1, [r0]
	.loc 1 104 0 is_stmt 0 discriminator 1
	ldr	r0, .L24+28
.LPIC29:
	add	r0, pc
	bl	printf
.LVL38:
	.loc 1 105 0 is_stmt 1
	ldr	r0, .L24+32
	mov	r1, r6
.LPIC30:
	add	r0, pc
	bl	printf
.LVL39:
	.loc 1 106 0
	b	.L15
.LVL40:
.L18:
	.loc 1 108 0
	ldr	r1, .L24+36
.LPIC31:
	add	r1, pc
	bl	dlsym
.LVL41:
	sub	r1, r0, #0
.LVL42:
	.loc 1 109 0
	bne	.L20
	.loc 1 110 0
	ldr	r0, .L24+40
.LVL43:
.LPIC32:
	add	r0, pc
	bl	perror
.LVL44:
	.loc 1 111 0
	b	.L15
.LVL45:
.L20:
	.loc 1 113 0
	ldr	r0, .L24+44
.LVL46:
.LPIC33:
	add	r0, pc
	bl	printf
.LVL47:
	.loc 1 114 0
	ldr	r1, .L24+48
	mov	r0, r5
.LPIC34:
	add	r1, pc
	bl	dlsym
.LVL48:
	mov	r1, r0
.LVL49:
	.loc 1 115 0
	ldr	r0, .L24+52
.LVL50:
.LPIC35:
	add	r0, pc
	bl	printf
.LVL51:
	.loc 1 117 0
	ldr	r1, .L24+56
	mov	r0, r5
.LPIC36:
	add	r1, pc
	bl	dlsym
.LVL52:
	mov	r1, r0
.LVL53:
	.loc 1 118 0
	ldr	r0, .L24+60
.LVL54:
.LPIC37:
	add	r0, pc
	bl	printf
.LVL55:
	.loc 1 119 0
	ldr	r1, .L24+64
	mov	r0, r5
.LPIC38:
	add	r1, pc
	bl	dlsym
.LVL56:
	mov	r7, r0
.LVL57:
	.loc 1 120 0
	ldr	r0, .L24+68
.LVL58:
	mov	r1, r7
.LPIC39:
	add	r0, pc
	bl	printf
.LVL59:
	.loc 1 122 0
	ldr	r1, .L24+72
	mov	r0, r5
.LPIC40:
	add	r1, pc
	bl	dlsym
.LVL60:
	mov	r1, r0
.LVL61:
	.loc 1 123 0
	ldr	r0, .L24+76
.LVL62:
.LPIC41:
	add	r0, pc
	bl	printf
.LVL63:
	.loc 1 125 0
	ldr	r1, .L24+80
	mov	r0, r5
.LPIC42:
	add	r1, pc
	bl	dlsym
.LVL64:
	mov	r1, r0
.LVL65:
	.loc 1 126 0
	ldr	r0, .L24+84
.LVL66:
.LPIC43:
	add	r0, pc
	bl	printf
.LVL67:
	.loc 1 128 0
	ldr	r1, .L24+88
	mov	r0, r5
.LPIC44:
	add	r1, pc
	bl	dlsym
.LVL68:
	mov	r5, r0
.LVL69:
	.loc 1 129 0
	ldr	r0, .L24+92
.LVL70:
	mov	r1, r5
.LPIC45:
	add	r0, pc
	bl	printf
.LVL71:
	.loc 1 131 0
	ldr	r3, .L24+96
	mov	r1, #0
	ldr	r3, [r4, r3]
	str	r3, [sp]
	mov	r0, r3
	blx	r7
.LVL72:
	mov	r6, r0
.LVL73:
	.loc 1 132 0
	ldr	r0, .L24+100
.LVL74:
	mov	r1, r6
.LPIC46:
	add	r0, pc
	bl	printf
.LVL75:
	.loc 1 133 0
	ldr	r3, [sp]
	ldr	r0, .L24+104
	sub	r1, r3, r6
.LPIC47:
	add	r0, pc
	bl	printf
.LVL76:
	.loc 1 134 0
	mov	r1, #0
	ldr	r0, [sp]
	blx	r5
.LVL77:
	mov	r1, r0
	.loc 1 134 0 is_stmt 0 discriminator 1
	ldr	r0, .L24+108
.LPIC48:
	add	r0, pc
	bl	printf
.LVL78:
	.loc 1 136 0 is_stmt 1
	ldr	r0, .L24+112
	mov	r1, #0
.LPIC49:
	add	r0, pc
	bl	dlopen
.LVL79:
	mov	r6, r0
.LVL80:
	.loc 1 137 0
	ldr	r0, .L24+116
.LVL81:
	mov	r1, r6
.LPIC50:
	add	r0, pc
	bl	printf
.LVL82:
	.loc 1 138 0
	ldr	r1, .L24+120
	mov	r0, r6
.LPIC51:
	add	r1, pc
	bl	dlsym
.LVL83:
	mov	r6, r0
.LVL84:
	.loc 1 139 0
	ldr	r0, .L24+124
.LVL85:
	mov	r1, r6
.LPIC52:
	add	r0, pc
	bl	printf
.LVL86:
	.loc 1 140 0
	mov	r1, #0
	mov	r0, r6
	blx	r7
.LVL87:
	mov	r7, r0
.LVL88:
	.loc 1 141 0
	ldr	r0, .L24+128
.LVL89:
	mov	r1, r7
.LPIC53:
	add	r0, pc
	bl	printf
.LVL90:
	.loc 1 142 0
	ldr	r0, .L24+132
	sub	r1, r6, r7
.LPIC54:
	add	r0, pc
	bl	printf
.LVL91:
	.loc 1 143 0
	mov	r1, #0
	mov	r0, r6
	blx	r5
.LVL92:
	mov	r1, r0
	.loc 1 143 0 is_stmt 0 discriminator 1
	ldr	r0, .L24+136
.LPIC55:
	add	r0, pc
	bl	printf
.LVL93:
	.loc 1 145 0 is_stmt 1
	ldr	r3, .L24+140
	ldr	r0, .L24+144
	ldr	r3, [r4, r3]
.LPIC56:
	add	r0, pc
	mov	r1, r3
	str	r3, [sp]
	bl	printf
.LVL94:
	.loc 1 146 0
	ldr	r3, .L24+148
	mov	r2, #32
	ldr	r3, [r4, r3]
	ldr	r1, [sp]
	mov	r0, r3
	str	r3, [sp, #4]
	bl	_ZN6Logger6logHexEPhi
.LVL95:
	.loc 1 147 0
	ldr	r3, .L24+152
	ldr	r0, .L24+156
	ldr	r3, [r4, r3]
.LPIC57:
	add	r0, pc
	mov	r1, r3
	str	r3, [sp, #8]
	bl	printf
.LVL96:
	.loc 1 148 0
	mov	r2, #32
	ldr	r0, [sp, #4]
	ldr	r1, [sp, #8]
	bl	_ZN6Logger6logHexEPhi
.LVL97:
	.loc 1 149 0
	mov	r1, #0
	ldr	r0, [sp]
	blx	r5
.LVL98:
	mov	r1, r0
	.loc 1 149 0 is_stmt 0 discriminator 1
	ldr	r0, .L24+160
.LPIC58:
	add	r0, pc
	bl	printf
.LVL99:
	.loc 1 151 0 is_stmt 1
	bl	getchar
.LVL100:
.L15:
.LBE12:
	.loc 1 152 0
	add	r3, sp, #1020
	add	r3, r3, #24
	ldr	r2, [r3]
	ldr	r3, [sp, #12]
	ldr	r3, [r3]
	cmp	r2, r3
	beq	.L22
	bl	__stack_chk_fail
.LVL101:
.L22:
	ldr	r3, .L24+164
	add	sp, sp, r3
	@ sp needed
	pop	{r4, r5, r6, r7, pc}
.L25:
	.align	2
.L24:
	.word	-1052
	.word	__stack_chk_guard(GOT)
	.word	_GLOBAL_OFFSET_TABLE_-(.LPIC24+4)
	.word	.LC11-(.LPIC25+4)
	.word	.LC12-(.LPIC26+4)
	.word	.LC13-(.LPIC27+4)
	.word	.LC14-(.LPIC28+4)
	.word	.LC15-(.LPIC29+4)
	.word	.LC16-(.LPIC30+4)
	.word	.LC17-(.LPIC31+4)
	.word	.LC18-(.LPIC32+4)
	.word	.LC19-(.LPIC33+4)
	.word	.LC20-(.LPIC34+4)
	.word	.LC21-(.LPIC35+4)
	.word	.LC22-(.LPIC36+4)
	.word	.LC23-(.LPIC37+4)
	.word	.LC24-(.LPIC38+4)
	.word	.LC25-(.LPIC39+4)
	.word	.LC26-(.LPIC40+4)
	.word	.LC27-(.LPIC41+4)
	.word	.LC28-(.LPIC42+4)
	.word	.LC29-(.LPIC43+4)
	.word	.LC30-(.LPIC44+4)
	.word	.LC31-(.LPIC45+4)
	.word	dlopen(GOT)
	.word	.LC32-(.LPIC46+4)
	.word	.LC33-(.LPIC47+4)
	.word	.LC34-(.LPIC48+4)
	.word	.LC35-(.LPIC49+4)
	.word	.LC36-(.LPIC50+4)
	.word	.LC37-(.LPIC51+4)
	.word	.LC38-(.LPIC52+4)
	.word	.LC39-(.LPIC53+4)
	.word	.LC40-(.LPIC54+4)
	.word	.LC41-(.LPIC55+4)
	.word	read(GOT)
	.word	.LC42-(.LPIC56+4)
	.word	logger(GOT)
	.word	write(GOT)
	.word	.LC43-(.LPIC57+4)
	.word	.LC44-(.LPIC58+4)
	.word	1052
	.cfi_endproc
.LFE1583:
	.fnend
	.size	_Z9armhlpx86b, .-_Z9armhlpx86b
	.section	.text._Z6Detourv,"ax",%progbits
	.align	1
	.global	_Z6Detourv
	.code	16
	.thumb_func
	.type	_Z6Detourv, %function
_Z6Detourv:
	.fnstart
.LFB1584:
	.loc 1 157 0
	.cfi_startproc
	push	{r4, r5, r6, r7, lr}
	.save {r4, r5, r6, r7, lr}
	.cfi_def_cfa_offset 20
	.cfi_offset 4, -20
	.cfi_offset 5, -16
	.cfi_offset 6, -12
	.cfi_offset 7, -8
	.cfi_offset 14, -4
	ldr	r5, .L28
.LBB13:
	.loc 1 158 0
	ldr	r0, .L28+4
.LBE13:
	.loc 1 157 0
	.pad #108
	sub	sp, sp, #108
	.cfi_def_cfa_offset 128
.LPIC69:
	add	r5, pc
	.loc 1 157 0
	ldr	r5, [r5]
.LBB14:
	.loc 1 158 0
.LPIC60:
	add	r0, pc
	.loc 1 172 0
	ldr	r6, .L28+8
.LBE14:
	.loc 1 157 0
	ldr	r3, [r5]
.LBB15:
	.loc 1 172 0
	add	r7, sp, #12
.LPIC63:
	add	r6, pc
.LBE15:
	.loc 1 157 0
	str	r3, [sp, #100]
.LBB16:
	.loc 1 158 0
	bl	puts
.LVL102:
	.loc 1 160 0
	bl	getpid
.LVL103:
	.loc 1 160 0 is_stmt 0 discriminator 1
	bl	FinddlopenAddress
.LVL104:
	.loc 1 161 0 is_stmt 1
	ldr	r2, .L28+12
	.loc 1 160 0 discriminator 1
	str	r0, [sp, #4]
.LVL105:
	.loc 1 161 0
	ldr	r0, .L28+16
.LVL106:
.LPIC68:
	add	r2, pc
	ldr	r2, [r2]
	ldr	r1, [sp, #4]
.LPIC61:
	add	r0, pc
	bl	printf
.LVL107:
	.loc 1 165 0
	mov	r0, #128
	lsl	r0, r0, #5
	bl	_Z24AllocateExecutableMemoryj
.LVL108:
	mov	r4, r0
.LVL109:
	.loc 1 166 0
	ldr	r0, .L28+20
.LVL110:
	mov	r1, r4
.LPIC62:
	add	r0, pc
	bl	printf
.LVL111:
	.loc 1 172 0
	mov	r1, r6
	mov	r2, #12
	mov	r0, r7
	bl	memcpy
.LVL112:
	.loc 1 173 0
	ldr	r0, .L28+24
.LPIC64:
	add	r0, pc
	bl	puts
.LVL113:
	.loc 1 203 0
	mov	r1, r6
	add	r6, sp, #24
	add	r1, r1, #12
	mov	r2, #76
	mov	r0, r6
	bl	memcpy
.LVL114:
	.loc 1 204 0
	mov	r1, r7
	.loc 1 206 0
	mov	r7, r4
	.loc 1 204 0
	mov	r2, #12
	.loc 1 206 0
	add	r7, r7, #12
	.loc 1 204 0
	mov	r0, r4
	bl	memcpy
.LVL115:
	.loc 1 206 0
	mov	r2, #76
	mov	r1, r6
	mov	r0, r7
	bl	memcpy
.LVL116:
	.loc 1 211 0
	ldr	r3, .L28+28
	.loc 1 208 0
	str	r7, [r4, #8]
.LVL117:
	.loc 1 211 0
.LPIC66:
	add	r3, pc
	str	r3, [r4, #16]
	.loc 1 214 0
	ldr	r3, [sp, #4]
	str	r3, [r4, #20]
.LVL118:
	.loc 1 226 0
	bl	getchar
.LVL119:
	.loc 1 227 0
	blx	r4
.LVL120:
	mov	r1, r0
.LVL121:
	.loc 1 229 0
	ldr	r0, .L28+32
.LVL122:
.LPIC67:
	add	r0, pc
	bl	printf
.LVL123:
.LBE16:
	.loc 1 231 0
	ldr	r2, [sp, #100]
	ldr	r3, [r5]
	cmp	r2, r3
	beq	.L27
	bl	__stack_chk_fail
.LVL124:
.L27:
	add	sp, sp, #108
	@ sp needed
.LVL125:
.LVL126:
	pop	{r4, r5, r6, r7, pc}
.L29:
	.align	2
.L28:
	.word	__stack_chk_guard(GOT_PREL)+(.-(.LPIC69+4))
	.word	.LC45-(.LPIC60+4)
	.word	.LANCHOR0-(.LPIC63+4)
	.word	dlopen(GOT_PREL)+(.-(.LPIC68+4))
	.word	.LC46-(.LPIC61+4)
	.word	.LC47-(.LPIC62+4)
	.word	.LC48-(.LPIC64+4)
	.word	.LC12-(.LPIC66+4)
	.word	.LC49-(.LPIC67+4)
	.cfi_endproc
.LFE1584:
	.fnend
	.size	_Z6Detourv, .-_Z6Detourv
	.section	.text._Z8hooklibcv,"ax",%progbits
	.align	1
	.global	_Z8hooklibcv
	.code	16
	.thumb_func
	.type	_Z8hooklibcv, %function
_Z8hooklibcv:
	.fnstart
.LFB1585:
	.loc 1 234 0
	.cfi_startproc
.LBB17:
	.loc 1 235 0
	mov	r0, #128
.LBE17:
	.loc 1 234 0
	push	{r4, r5, r6, r7, lr}
	.save {r4, r5, r6, r7, lr}
	.cfi_def_cfa_offset 20
	.cfi_offset 4, -20
	.cfi_offset 5, -16
	.cfi_offset 6, -12
	.cfi_offset 7, -8
	.cfi_offset 14, -4
	ldr	r5, .L37
	.pad #172
	sub	sp, sp, #172
	.cfi_def_cfa_offset 192
.LBB18:
	.loc 1 235 0
	lsl	r0, r0, #5
.LPIC90:
	add	r5, pc
.LBE18:
	.loc 1 234 0
	ldr	r5, [r5]
.LBB19:
	.loc 1 246 0
	ldr	r6, .L37+4
.LBE19:
	.loc 1 234 0
	ldr	r3, [r5]
.LBB20:
	.loc 1 246 0
.LPIC74:
	add	r6, pc
.LBE20:
	.loc 1 234 0
	str	r3, [sp, #164]
.LBB21:
	.loc 1 235 0
	bl	_Z24AllocateExecutableMemoryj
.LVL127:
	mov	r4, r0
.LVL128:
	.loc 1 236 0
	ldr	r0, .L37+8
.LVL129:
	mov	r1, r4
.LPIC71:
	add	r0, pc
	bl	printf
.LVL130:
	.loc 1 238 0
	bl	getpid
.LVL131:
	.loc 1 238 0 is_stmt 0 discriminator 1
	bl	FinddlopenAddress
.LVL132:
	.loc 1 239 0 is_stmt 1
	ldr	r2, .L37+12
	.loc 1 238 0 discriminator 1
	str	r0, [sp, #12]
.LVL133:
	.loc 1 239 0
	ldr	r0, .L37+16
.LVL134:
.LPIC89:
	add	r2, pc
	ldr	r2, [r2]
	ldr	r1, [sp, #12]
.LPIC72:
	add	r0, pc
	bl	printf
.LVL135:
	.loc 1 241 0
	bl	getpid
.LVL136:
	.loc 1 241 0 is_stmt 0 discriminator 1
	bl	FindwriteAddress
.LVL137:
	.loc 1 243 0 is_stmt 1
	ldr	r2, .L37+20
	.loc 1 241 0 discriminator 1
	str	r0, [sp]
.LVL138:
	.loc 1 243 0
	ldr	r0, .L37+24
.LVL139:
.LPIC88:
	add	r2, pc
	ldr	r2, [r2]
	ldr	r1, [sp]
.LPIC73:
	add	r0, pc
	bl	printf
.LVL140:
	ldr	r0, .L37+28
	.loc 1 244 0
	mov	r2, #32
	.loc 1 243 0
.LPIC87:
	add	r0, pc
	.loc 1 244 0
	ldr	r0, [r0]
	ldr	r1, [sp]
	bl	_ZN6Logger6logHexEPhi
.LVL141:
	.loc 1 246 0
	mov	r1, #0
	mov	r0, r6
	bl	FindBaseLibrary
.LVL142:
	str	r0, [sp, #4]
.LVL143:
	.loc 1 247 0
	ldr	r0, .L37+32
.LVL144:
	ldr	r1, [sp, #4]
.LPIC75:
	add	r0, pc
	bl	printf
.LVL145:
	.loc 1 250 0
	mov	r1, #0
	mov	r0, r6
	bl	GetBaseLibraryTextSize
.LVL146:
	str	r0, [sp, #8]
.LVL147:
	.loc 1 251 0
	ldr	r0, .L37+36
.LVL148:
	ldr	r1, [sp, #8]
.LPIC77:
	add	r0, pc
	bl	printf
.LVL149:
	.loc 1 253 0
	ldr	r0, [sp, #4]
	ldr	r1, [sp, #8]
	mov	r2, #7
	bl	mprotect
.LVL150:
	str	r5, [sp, #20]
	cmp	r0, #0
	beq	.L31
	.loc 1 254 0
	bl	__errno
.LVL151:
	ldr	r0, [r0]
	.loc 1 254 0 is_stmt 0 discriminator 1
	bl	strerror
.LVL152:
	mov	r1, r0
	.loc 1 254 0 discriminator 2
	ldr	r0, .L37+40
.LPIC78:
	add	r0, pc
	b	.L36
.L31:
	.loc 1 257 0 is_stmt 1
	ldr	r0, .L37+44
	.loc 1 259 0
	add	r7, sp, #28
	.loc 1 267 0
	ldr	r5, .L37+48
	.loc 1 257 0
.LPIC79:
	add	r0, pc
	bl	puts
.LVL153:
	.loc 1 259 0
	ldr	r1, [sp]
	mov	r2, #12
	mov	r0, r7
	bl	memcpy
.LVL154:
	.loc 1 260 0
	ldr	r0, .L37+52
	.loc 1 267 0
.LPIC81:
	add	r5, pc
	.loc 1 316 0
	add	r6, sp, #52
	.loc 1 260 0
.LPIC80:
	add	r0, pc
	bl	puts
.LVL155:
	.loc 1 267 0
	add	r3, sp, #40
	mov	r0, r3
	mov	r1, r5
	mov	r2, #12
	str	r3, [sp, #16]
	bl	memcpy
.LVL156:
	.loc 1 316 0
	mov	r1, r5
	mov	r2, #112
	add	r1, r1, #88
	mov	r0, r6
	bl	memcpy
.LVL157:
	.loc 1 317 0
	ldr	r3, [sp, #28]
	.loc 1 321 0
	mov	r1, r6
	.loc 1 317 0
	str	r3, [r6, #20]
	ldr	r3, [r7, #4]
	.loc 1 321 0
	mov	r2, #112
	.loc 1 317 0
	str	r3, [r6, #24]
	ldr	r3, [r7, #8]
	.loc 1 321 0
	mov	r0, r4
	.loc 1 317 0
	str	r3, [r6, #28]
	.loc 1 321 0
	bl	memcpy
.LVL158:
	.loc 1 324 0
	ldr	r3, .L37+56
	.loc 1 330 0
	mov	r2, #12
	.loc 1 324 0
.LPIC83:
	add	r3, pc
	str	r3, [r4, #12]
	.loc 1 326 0
	ldr	r3, [sp, #12]
	.loc 1 330 0
	ldr	r1, [sp, #16]
	str	r4, [sp, #48]
	.loc 1 326 0
	str	r3, [r4, #16]
	.loc 1 328 0
	ldr	r3, [sp]
	str	r3, [r4, #32]
	.loc 1 330 0
	mov	r0, r3
	bl	memcpy
.LVL159:
	.loc 1 331 0
	bl	getchar
.LVL160:
	.loc 1 332 0
	bl	getpid
.LVL161:
	mov	r1, r0
	.loc 1 332 0 is_stmt 0 discriminator 1
	ldr	r0, .L37+60
.LPIC84:
	add	r0, pc
	bl	printf
.LVL162:
	.loc 1 339 0 is_stmt 1
	ldr	r0, [sp, #4]
	ldr	r1, [sp, #8]
	mov	r2, #5
	bl	mprotect
.LVL163:
	cmp	r0, #0
	beq	.L33
	.loc 1 340 0
	bl	__errno
.LVL164:
	ldr	r0, [r0]
	.loc 1 340 0 is_stmt 0 discriminator 1
	bl	strerror
.LVL165:
	mov	r1, r0
	.loc 1 340 0 discriminator 2
	ldr	r0, .L37+64
.LPIC85:
	add	r0, pc
.LVL166:
.L36:
	bl	printf
.LVL167:
	.loc 1 341 0 is_stmt 1
	b	.L30
.LVL168:
.L33:
	.loc 1 343 0
	ldr	r0, .L37+68
.LPIC86:
	add	r0, pc
	bl	puts
.LVL169:
.L30:
.LBE21:
	.loc 1 346 0
	ldr	r3, [sp, #20]
	ldr	r2, [sp, #164]
	ldr	r3, [r3]
	cmp	r2, r3
	beq	.L35
	bl	__stack_chk_fail
.LVL170:
.L35:
	add	sp, sp, #172
.LVL171:
	@ sp needed
.LVL172:
	pop	{r4, r5, r6, r7, pc}
.L38:
	.align	2
.L37:
	.word	__stack_chk_guard(GOT_PREL)+(.-(.LPIC90+4))
	.word	.LC52-(.LPIC74+4)
	.word	.LC50-(.LPIC71+4)
	.word	dlopen(GOT_PREL)+(.-(.LPIC89+4))
	.word	.LC46-(.LPIC72+4)
	.word	write(GOT_PREL)+(.-(.LPIC88+4))
	.word	.LC51-(.LPIC73+4)
	.word	logger(GOT_PREL)+(.-(.LPIC87+4))
	.word	.LC53-(.LPIC75+4)
	.word	.LC54-(.LPIC77+4)
	.word	.LC55-(.LPIC78+4)
	.word	.LC56-(.LPIC79+4)
	.word	.LANCHOR0-(.LPIC81+4)
	.word	.LC57-(.LPIC80+4)
	.word	.LC12-(.LPIC83+4)
	.word	.LC58-(.LPIC84+4)
	.word	.LC55-(.LPIC85+4)
	.word	.LC59-(.LPIC86+4)
	.cfi_endproc
.LFE1585:
	.fnend
	.size	_Z8hooklibcv, .-_Z8hooklibcv
	.section	.text._Z10dumpoffsetv,"ax",%progbits
	.align	1
	.global	_Z10dumpoffsetv
	.code	16
	.thumb_func
	.type	_Z10dumpoffsetv, %function
_Z10dumpoffsetv:
	.fnstart
.LFB1586:
	.loc 1 349 0
	.cfi_startproc
	push	{r3, r4, r5, lr}
	.save {r3, r4, r5, lr}
	.cfi_def_cfa_offset 16
	.cfi_offset 3, -16
	.cfi_offset 4, -12
	.cfi_offset 5, -8
	.cfi_offset 14, -4
.LBB22:
	.loc 1 350 0
	ldr	r5, .L40
	mov	r1, #0
.LPIC91:
	add	r5, pc
	mov	r0, r5
	bl	FindBaseLibrary
.LVL173:
	.loc 1 351 0
	mov	r1, #0
	.loc 1 350 0
	mov	r4, r0
.LVL174:
	.loc 1 351 0
	mov	r0, r5
.LVL175:
	bl	GetBaseLibraryTextSize
.LVL176:
	mov	r5, r0
.LVL177:
	.loc 1 352 0
	add	r2, r0, r4
	ldr	r0, .L40+4
.LVL178:
	mov	r1, r4
.LPIC93:
	add	r0, pc
	bl	printf
.LVL179:
	.loc 1 353 0
	ldr	r0, .L40+8
	mov	r1, r5
.LPIC94:
	add	r0, pc
	bl	printf
.LVL180:
	ldr	r1, .L40+12
	.loc 1 354 0
	ldr	r0, .L40+16
.LBE22:
	.loc 1 358 0
	@ sp needed
.LBB23:
	.loc 1 353 0
.LPIC103:
	add	r1, pc
	.loc 1 354 0
	ldr	r1, [r1]
.LPIC96:
	add	r0, pc
	sub	r2, r1, r4
	bl	printf
.LVL181:
	ldr	r1, .L40+20
	.loc 1 355 0
	ldr	r0, .L40+24
	.loc 1 354 0
.LPIC102:
	add	r1, pc
	.loc 1 355 0
	ldr	r1, [r1]
.LPIC97:
	add	r0, pc
	sub	r2, r1, r4
	bl	printf
.LVL182:
	ldr	r1, .L40+28
	.loc 1 356 0
	ldr	r0, .L40+32
	.loc 1 355 0
.LPIC101:
	add	r1, pc
	.loc 1 356 0
	ldr	r1, [r1]
.LPIC98:
	add	r0, pc
	sub	r2, r1, r4
	bl	printf
.LVL183:
	ldr	r1, .L40+36
	.loc 1 357 0
	ldr	r0, .L40+40
	.loc 1 356 0
.LPIC100:
	add	r1, pc
	.loc 1 357 0
	ldr	r1, [r1]
.LPIC99:
	add	r0, pc
	sub	r2, r1, r4
	bl	printf
.LVL184:
.LVL185:
.LVL186:
.LBE23:
	.loc 1 358 0
	pop	{r3, r4, r5, pc}
.L41:
	.align	2
.L40:
	.word	.LC52-(.LPIC91+4)
	.word	.LC60-(.LPIC93+4)
	.word	.LC54-(.LPIC94+4)
	.word	getpid(GOT_PREL)+(.-(.LPIC103+4))
	.word	.LC61-(.LPIC96+4)
	.word	gettid(GOT_PREL)+(.-(.LPIC102+4))
	.word	.LC62-(.LPIC97+4)
	.word	mmap(GOT_PREL)+(.-(.LPIC101+4))
	.word	.LC63-(.LPIC98+4)
	.word	dlsym(GOT_PREL)+(.-(.LPIC100+4))
	.word	.LC64-(.LPIC99+4)
	.cfi_endproc
.LFE1586:
	.fnend
	.size	_Z10dumpoffsetv, .-_Z10dumpoffsetv
	.section	.text._Z5libdlv,"ax",%progbits
	.align	1
	.global	_Z5libdlv
	.code	16
	.thumb_func
	.type	_Z5libdlv, %function
_Z5libdlv:
	.fnstart
.LFB1587:
	.loc 1 383 0
	.cfi_startproc
.LBB24:
	.loc 1 384 0
	ldr	r0, .L43
.LBE24:
	.loc 1 383 0
	push	{r4, lr}
	.save {r4, lr}
	.cfi_def_cfa_offset 8
	.cfi_offset 4, -8
	.cfi_offset 14, -4
.LBB25:
	.loc 1 384 0
	mov	r1, #0
.LPIC104:
	add	r0, pc
	bl	dlopen
.LVL187:
	mov	r4, r0
.LVL188:
	.loc 1 385 0
	ldr	r0, .L43+4
.LVL189:
	mov	r1, r4
.LPIC105:
	add	r0, pc
	bl	printf
.LVL190:
	.loc 1 386 0
	ldr	r1, .L43+8
	mov	r0, r4
.LPIC106:
	add	r1, pc
	bl	dlsym
.LVL191:
	mov	r4, r0
.LVL192:
	.loc 1 387 0
	ldr	r2, .L43+12
	ldr	r0, .L43+16
.LVL193:
	mov	r1, r4
.LPIC110:
	add	r2, pc
	ldr	r2, [r2]
.LPIC107:
	add	r0, pc
	bl	printf
.LVL194:
	ldr	r0, .L43+20
	.loc 1 388 0
	mov	r1, r4
	.loc 1 387 0
.LPIC109:
	add	r0, pc
	.loc 1 388 0
	ldr	r0, [r0]
	mov	r2, #64
	bl	_ZN6Logger6logHexEPhi
.LVL195:
.LBE25:
	.loc 1 389 0
	@ sp needed
.LVL196:
	pop	{r4, pc}
.L44:
	.align	2
.L43:
	.word	.LC65-(.LPIC104+4)
	.word	.LC66-(.LPIC105+4)
	.word	.LC37-(.LPIC106+4)
	.word	dlopen(GOT_PREL)+(.-(.LPIC110+4))
	.word	.LC67-(.LPIC107+4)
	.word	logger(GOT_PREL)+(.-(.LPIC109+4))
	.cfi_endproc
.LFE1587:
	.fnend
	.size	_Z5libdlv, .-_Z5libdlv
	.section	.text._Z7testluav,"ax",%progbits
	.align	1
	.global	_Z7testluav
	.code	16
	.thumb_func
	.type	_Z7testluav, %function
_Z7testluav:
	.fnstart
.LFB1588:
	.loc 1 392 0
	.cfi_startproc
.LBB26:
	.loc 1 393 0
	ldr	r0, .L46
.LBE26:
	.loc 1 392 0
	push	{r3, lr}
	.save {r3, lr}
	.cfi_def_cfa_offset 8
	.cfi_offset 3, -8
	.cfi_offset 14, -4
.LBB27:
	.loc 1 393 0
.LPIC111:
	add	r0, pc
	bl	puts
.LVL197:
	.loc 1 394 0
	bl	_Z13luaL_newstatev
.LVL198:
	mov	r1, r0
.LVL199:
	.loc 1 395 0
	ldr	r0, .L46+4
.LVL200:
.LBE27:
	.loc 1 396 0
	@ sp needed
.LBB28:
	.loc 1 395 0
.LPIC112:
	add	r0, pc
	bl	printf
.LVL201:
.LBE28:
	.loc 1 396 0
	pop	{r3, pc}
.L47:
	.align	2
.L46:
	.word	.LC68-(.LPIC111+4)
	.word	.LC69-(.LPIC112+4)
	.cfi_endproc
.LFE1588:
	.fnend
	.size	_Z7testluav, .-_Z7testluav
	.section	.text.startup.main,"ax",%progbits
	.align	1
	.global	main
	.code	16
	.thumb_func
	.type	main, %function
main:
	.fnstart
.LFB1589:
	.loc 1 399 0
	.cfi_startproc
.LVL202:
	push	{r3, r4, r5, lr}
	.save {r3, r4, r5, lr}
	.cfi_def_cfa_offset 16
	.cfi_offset 3, -16
	.cfi_offset 4, -12
	.cfi_offset 5, -8
	.cfi_offset 14, -4
	.loc 1 399 0
	mov	r5, r0
	ldr	r0, .L65
.LVL203:
	mov	r4, r1
	.loc 1 400 0
	ldr	r1, .L65+4
.LVL204:
.LPIC135:
	add	r0, pc
	ldr	r0, [r0]
.LPIC114:
	add	r1, pc
	bl	_ZN6Logger6logStrEPc
.LVL205:
	.loc 1 401 0
	cmp	r5, #1
	bne	.L49
	.loc 1 402 0
	ldr	r0, .L65+8
.LPIC115:
	add	r0, pc
	bl	puts
.LVL206:
	.loc 1 403 0
	ldr	r0, .L65+12
	ldr	r1, [r4]
.LPIC116:
	add	r0, pc
	bl	printf
.LVL207:
	.loc 1 404 0
	ldr	r0, .L65+16
	ldr	r1, [r4]
.LPIC117:
	add	r0, pc
	bl	printf
.LVL208:
	.loc 1 405 0
	ldr	r0, .L65+20
	ldr	r1, [r4]
.LPIC118:
	add	r0, pc
	bl	printf
.LVL209:
	.loc 1 406 0
	ldr	r0, .L65+24
	ldr	r1, [r4]
.LPIC119:
	add	r0, pc
	bl	printf
.LVL210:
	.loc 1 407 0
	ldr	r0, .L65+28
	ldr	r1, [r4]
.LPIC120:
	add	r0, pc
	bl	printf
.LVL211:
	.loc 1 408 0
	ldr	r0, .L65+32
	ldr	r1, [r4]
.LPIC121:
	add	r0, pc
	bl	printf
.LVL212:
	.loc 1 409 0
	ldr	r0, .L65+36
	ldr	r1, [r4]
.LPIC122:
	add	r0, pc
	bl	printf
.LVL213:
	.loc 1 410 0
	ldr	r0, .L65+40
	ldr	r1, [r4]
.LPIC123:
	add	r0, pc
	bl	printf
.LVL214:
	.loc 1 411 0
	ldr	r0, .L65+44
	ldr	r1, [r4]
.LPIC124:
	add	r0, pc
	bl	printf
.LVL215:
	.loc 1 413 0
	mov	r3, #0
	b	.L50
.L49:
	.loc 1 462 0
	mov	r3, #0
	.loc 1 416 0
	cmp	r5, #1
	ble	.L50
	.loc 1 417 0
	ldr	r4, [r4, #4]
.LVL216:
	ldr	r1, .L65+48
	mov	r0, r4
.LPIC125:
	add	r1, pc
	bl	strcmp
.LVL217:
	cmp	r0, #0
	bne	.L51
	.loc 1 418 0
	bl	_Z5hellov
.LVL218:
	b	.L63
.L51:
	.loc 1 422 0
	ldr	r1, .L65+52
	mov	r0, r4
.LPIC126:
	add	r1, pc
	bl	strcmp
.LVL219:
	cmp	r0, #0
	bne	.L52
	.loc 1 423 0
	bl	_Z5libdlv
.LVL220:
.L63:
	.loc 1 424 0
	bl	getchar
.LVL221:
	b	.L62
.L52:
	.loc 1 427 0
	ldr	r1, .L65+56
	mov	r0, r4
.LPIC127:
	add	r1, pc
	bl	strcmp
.LVL222:
	cmp	r0, #0
	bne	.L53
	.loc 1 428 0
	bl	_Z7tracemev
.LVL223:
	b	.L62
.L53:
	.loc 1 431 0
	ldr	r1, .L65+60
	mov	r0, r4
.LPIC128:
	add	r1, pc
	bl	strcmp
.LVL224:
	cmp	r0, #0
	bne	.L54
	.loc 1 432 0
	bl	_Z11tracemeLoadv
.LVL225:
	b	.L62
.L54:
	.loc 1 435 0
	ldr	r1, .L65+64
	mov	r0, r4
.LPIC129:
	add	r1, pc
	bl	strcmp
.LVL226:
	cmp	r0, #0
	beq	.L64
	.loc 1 439 0
	ldr	r1, .L65+68
	mov	r0, r4
.LPIC130:
	add	r1, pc
	bl	strcmp
.LVL227:
	cmp	r0, #0
	bne	.L56
	.loc 1 440 0
	mov	r0, #1
.L64:
	bl	_Z9armhlpx86b
.LVL228:
	b	.L62
.L56:
	.loc 1 443 0
	ldr	r1, .L65+72
	mov	r0, r4
.LPIC131:
	add	r1, pc
	bl	strcmp
.LVL229:
	cmp	r0, #0
	bne	.L57
	.loc 1 444 0
	bl	_Z6Detourv
.LVL230:
	b	.L62
.L57:
	.loc 1 447 0
	ldr	r1, .L65+76
	mov	r0, r4
.LPIC132:
	add	r1, pc
	bl	strcmp
.LVL231:
	cmp	r0, #0
	bne	.L58
	.loc 1 448 0
	bl	_Z8hooklibcv
.LVL232:
	b	.L62
.L58:
	.loc 1 451 0
	ldr	r1, .L65+80
	mov	r0, r4
.LPIC133:
	add	r1, pc
	bl	strcmp
.LVL233:
	cmp	r0, #0
	bne	.L59
	.loc 1 452 0
	bl	_Z10dumpoffsetv
.LVL234:
	b	.L62
.L59:
	.loc 1 455 0
	ldr	r1, .L65+84
	mov	r0, r4
.LPIC134:
	add	r1, pc
	bl	strcmp
.LVL235:
	.loc 1 462 0
	mov	r3, #0
	.loc 1 455 0
	cmp	r0, r3
	bne	.L50
	.loc 1 456 0
	bl	_Z7testluav
.LVL236:
.L62:
	.loc 1 457 0
	mov	r3, #1
.L50:
	.loc 1 462 0
	mov	r0, r3
	@ sp needed
.LVL237:
	pop	{r3, r4, r5, pc}
.L66:
	.align	2
.L65:
	.word	logger(GOT_PREL)+(.-(.LPIC135+4))
	.word	.LC70-(.LPIC114+4)
	.word	.LC71-(.LPIC115+4)
	.word	.LC72-(.LPIC116+4)
	.word	.LC73-(.LPIC117+4)
	.word	.LC74-(.LPIC118+4)
	.word	.LC75-(.LPIC119+4)
	.word	.LC76-(.LPIC120+4)
	.word	.LC77-(.LPIC121+4)
	.word	.LC78-(.LPIC122+4)
	.word	.LC79-(.LPIC123+4)
	.word	.LC80-(.LPIC124+4)
	.word	.LC81-(.LPIC125+4)
	.word	.LC82-(.LPIC126+4)
	.word	.LC83-(.LPIC127+4)
	.word	.LC84-(.LPIC128+4)
	.word	.LC85-(.LPIC129+4)
	.word	.LC86-(.LPIC130+4)
	.word	.LC87-(.LPIC131+4)
	.word	.LC88-(.LPIC132+4)
	.word	.LC89-(.LPIC133+4)
	.word	.LC90-(.LPIC134+4)
	.cfi_endproc
.LFE1589:
	.fnend
	.size	main, .-main
	.section	.text.startup._GLOBAL__sub_I_hello.cpp,"ax",%progbits
	.align	1
	.code	16
	.thumb_func
	.type	_GLOBAL__sub_I_hello.cpp, %function
_GLOBAL__sub_I_hello.cpp:
	.fnstart
.LFB1768:
	.loc 1 462 0
	.cfi_startproc
.LVL238:
.LBB31:
.LBB32:
	.loc 1 38 0
	mov	r1, #0
.LBE32:
.LBE31:
	.loc 1 462 0
	push	{r4, lr}
	.save {r4, lr}
	.cfi_def_cfa_offset 8
	.cfi_offset 4, -8
	.cfi_offset 14, -4
	ldr	r4, .L68
.LBB35:
.LBB33:
	.loc 1 38 0
	mov	r2, r1
.LPIC139:
	add	r4, pc
	ldr	r4, [r4]
.LBE33:
.LBE35:
	.loc 1 462 0
	@ sp needed
.LBB36:
.LBB34:
	.loc 1 38 0
	mov	r0, r4
	bl	_ZN6LoggerC1EPcb
.LVL239:
	ldr	r1, .L68+4
	.loc 1 38 0 is_stmt 0 discriminator 1
	ldr	r2, .L68+8
	mov	r0, r4
	.loc 1 38 0
.LPIC138:
	add	r1, pc
	.loc 1 38 0 discriminator 1
	ldr	r1, [r1]
.LPIC137:
	add	r2, pc
	bl	__aeabi_atexit
.LVL240:
.LBE34:
.LBE36:
	.loc 1 462 0 is_stmt 1
	pop	{r4, pc}
.L69:
	.align	2
.L68:
	.word	logger(GOT_PREL)+(.-(.LPIC139+4))
	.word	_ZN6LoggerD1Ev(GOT_PREL)+(.-(.LPIC138+4))
	.word	__dso_handle-(.LPIC137+4)
	.cfi_endproc
.LFE1768:
	.fnend
	.size	_GLOBAL__sub_I_hello.cpp, .-_GLOBAL__sub_I_hello.cpp
	.section	.init_array,"aw"
	.align	2
	.word	_GLOBAL__sub_I_hello.cpp
	.global	logger
	.section	.rodata
.LANCHOR0 = . + 0
.LC0:
	.byte	0
	.byte	-64
	.byte	-97
	.byte	-27
	.byte	28
	.byte	-1
	.byte	47
	.byte	-31
	.byte	17
	.byte	34
	.byte	51
	.byte	68
.LC1:
	.byte	1
	.byte	0
	.byte	0
	.byte	-22
	.byte	-86
	.byte	-69
	.byte	-52
	.byte	-35
	.byte	1
	.byte	1
	.byte	-96
	.byte	-31
	.byte	15
	.byte	112
	.byte	-96
	.byte	-31
	.byte	16
	.byte	112
	.byte	71
	.byte	-30
	.byte	-1
	.byte	0
	.byte	45
	.byte	-23
	.byte	4
	.byte	-32
	.byte	45
	.byte	-27
	.byte	0
	.byte	16
	.byte	-96
	.byte	-29
	.byte	0
	.byte	0
	.byte	-105
	.byte	-27
	.byte	4
	.byte	-128
	.byte	-105
	.byte	-27
	.byte	56
	.byte	-1
	.byte	47
	.byte	-31
	.byte	4
	.byte	48
	.byte	-99
	.byte	-28
	.byte	3
	.byte	-32
	.byte	-96
	.byte	-31
	.byte	-1
	.byte	0
	.byte	-67
	.byte	-24
	.byte	4
	.byte	0
	.byte	-105
	.byte	-27
	.byte	30
	.byte	-1
	.byte	47
	.byte	-31
	.byte	0
	.byte	0
	.byte	0
	.byte	0
	.byte	0
	.byte	0
	.byte	0
	.byte	0
	.byte	0
	.byte	0
	.byte	0
	.byte	0
.LC2:
	.byte	15
	.byte	48
	.byte	-96
	.byte	-31
	.byte	4
	.byte	48
	.byte	-125
	.byte	-30
	.byte	5
	.byte	0
	.byte	0
	.byte	-22
	.byte	-86
	.byte	-69
	.byte	-52
	.byte	-35
	.byte	1
	.byte	1
	.byte	-96
	.byte	-31
	.byte	0
	.byte	0
	.byte	0
	.byte	0
	.byte	0
	.byte	0
	.byte	0
	.byte	0
	.byte	0
	.byte	0
	.byte	0
	.byte	0
	.byte	0
	.byte	0
	.byte	0
	.byte	0
	.byte	-1
	.byte	1
	.byte	45
	.byte	-23
	.byte	4
	.byte	-32
	.byte	45
	.byte	-27
	.byte	20
	.byte	0
	.byte	-109
	.byte	-27
	.byte	8
	.byte	-128
	.byte	-109
	.byte	-27
	.byte	0
	.byte	-128
	.byte	-128
	.byte	-27
	.byte	4
	.byte	0
	.byte	-128
	.byte	-30
	.byte	12
	.byte	-128
	.byte	-109
	.byte	-27
	.byte	0
	.byte	-128
	.byte	-128
	.byte	-27
	.byte	4
	.byte	0
	.byte	-128
	.byte	-30
	.byte	16
	.byte	-128
	.byte	-109
	.byte	-27
	.byte	0
	.byte	-128
	.byte	-128
	.byte	-27
	.byte	0
	.byte	16
	.byte	-96
	.byte	-29
	.byte	0
	.byte	0
	.byte	-109
	.byte	-27
	.byte	4
	.byte	-128
	.byte	-109
	.byte	-27
	.byte	56
	.byte	-1
	.byte	47
	.byte	-31
	.byte	4
	.byte	-32
	.byte	-99
	.byte	-28
	.byte	-1
	.byte	1
	.byte	-67
	.byte	-24
	.byte	20
	.byte	48
	.byte	-109
	.byte	-27
	.byte	19
	.byte	-1
	.byte	47
	.byte	-31
	.section	.rodata.str1.1,"aMS",%progbits,1
.LC3:
	.ascii	"Hello World X86 %08X\012\000"
.LC4:
	.ascii	"Hello World\000"
.LC5:
	.ascii	"%08X %s %d\012\000"
.LC6:
	.ascii	"addr=%08X\012\000"
.LC7:
	.ascii	"dlopen addr=%08X\012\000"
.LC8:
	.ascii	"^Crtl C to endprogram\000"
.LC9:
	.ascii	"%d\012\000"
.LC10:
	.ascii	"/data/local/tmp/libloader.so\000"
.LC11:
	.ascii	"./libarmhlpx86.so\000"
.LC12:
	.ascii	"./libarmhlparm.so\000"
.LC13:
	.ascii	"Test loading %s\012\000"
.LC14:
	.ascii	"dlopen:\000"
.LC15:
	.ascii	"error no %d\012\000"
.LC16:
	.ascii	"can not load %s\012\000"
.LC17:
	.ascii	"GetFuncAddress\000"
.LC18:
	.ascii	"dlsym: GetFuncAddress\000"
.LC19:
	.ascii	"GetFuncAddress=%08X\012\000"
.LC20:
	.ascii	"GetFuncOffset\000"
.LC21:
	.ascii	"GetFuncOffset=%08X\012\000"
.LC22:
	.ascii	"FindBaseLibrary\000"
.LC23:
	.ascii	"FindBaseLibrary=%08X\012\000"
.LC24:
	.ascii	"FindBaseLibraryFromAddress\000"
.LC25:
	.ascii	"FindBaseLibraryFromAddress=%08X\012\000"
.LC26:
	.ascii	"FindLibraryPath\000"
.LC27:
	.ascii	"FindLibraryPath=%08X\012\000"
.LC28:
	.ascii	"Test\000"
.LC29:
	.ascii	"Test=%08X\012\000"
.LC30:
	.ascii	"GetBaseLibraryNameFromAddress\000"
.LC31:
	.ascii	"GetBaseLibraryNameFromAddress=%08X\012\000"
.LC32:
	.ascii	"linkerBase = %08X\012\000"
.LC33:
	.ascii	"offset dlopen = %08X\012\000"
.LC34:
	.ascii	"linkername %s\012\000"
.LC35:
	.ascii	"libdl.so\000"
.LC36:
	.ascii	"dlHandle = %08X\012\000"
.LC37:
	.ascii	"dlopen\000"
.LC38:
	.ascii	"dlopen_libdl = %08X\012\000"
.LC39:
	.ascii	"dlopen_libdlBase = %08X\012\000"
.LC40:
	.ascii	"dlopen_libdlBase offset dlopen = %08X\012\000"
.LC41:
	.ascii	"dlopen_libdlBase linkername %s\012\000"
.LC42:
	.ascii	"read addr = %08X\012\000"
.LC43:
	.ascii	"write addr = %08X\012\000"
.LC44:
	.ascii	"lib %s\012\000"
.LC45:
	.ascii	"Detour\000"
.LC46:
	.ascii	"dlopen Addr = %08X %08X\012\000"
.LC47:
	.ascii	"virtualCodeAddress = %08X\012\000"
.LC48:
	.ascii	"arm\000"
.LC49:
	.ascii	"out is %08X\012\000"
.LC50:
	.ascii	"tempCode Addr %08X\012\000"
.LC51:
	.ascii	"writeAddr Addr = %08X %08X\012\000"
.LC52:
	.ascii	"libc_orig.so\000"
.LC53:
	.ascii	"libcBase Addr = %08X\012\000"
.LC54:
	.ascii	"libcSize = %08X\012\000"
.LC55:
	.ascii	"mprotect error %s\012\000"
.LC56:
	.ascii	"mprotect +w done\000"
.LC57:
	.ascii	"Backup done\000"
.LC58:
	.ascii	"Test1 %d\012\000"
.LC59:
	.ascii	"mprotect -w done\000"
.LC60:
	.ascii	"libcBase Addr = %08X-%08X\012\000"
.LC61:
	.ascii	"getpid() %08X %08X\012\000"
.LC62:
	.ascii	"gettid() %08X %08X\012\000"
.LC63:
	.ascii	"mmap() %08X %08X\012\000"
.LC64:
	.ascii	"dlsym() %08X %08X\012\000"
.LC65:
	.ascii	"/system/lib/arm/libdl.so\000"
.LC66:
	.ascii	"handle=%08X\012\000"
.LC67:
	.ascii	"dlopenAddr=%08X %08X\012\000"
.LC68:
	.ascii	"Test lua\000"
.LC69:
	.ascii	"Create lua state %08X\000"
.LC70:
	.ascii	"Hello\000"
.LC71:
	.ascii	"Usage:\000"
.LC72:
	.ascii	"%s traceme|tracemeLoad\012\000"
.LC73:
	.ascii	"%s hello\012\000"
.LC74:
	.ascii	"%s armhlpx86\012\000"
.LC75:
	.ascii	"%s armhlparm\012\000"
.LC76:
	.ascii	"%s detour\012\000"
.LC77:
	.ascii	"%s hooklibc\012\000"
.LC78:
	.ascii	"%s dumpoffset\012\000"
.LC79:
	.ascii	"%s libdl\012\000"
.LC80:
	.ascii	"%s testlua\012\000"
.LC81:
	.ascii	"hello\000"
.LC82:
	.ascii	"libdl\000"
.LC83:
	.ascii	"traceme\000"
.LC84:
	.ascii	"tracemeLoad\000"
.LC85:
	.ascii	"armhlpx86\000"
.LC86:
	.ascii	"armhlparm\000"
.LC87:
	.ascii	"detour\000"
.LC88:
	.ascii	"hooklibc\000"
.LC89:
	.ascii	"dumpoffset\000"
.LC90:
	.ascii	"testlua\000"
	.bss
	.align	2
	.type	logger, %object
	.size	logger, 12
logger:
	.space	12
	.text
.Letext0:
	.file 2 "D:/android-ndk-r12b/build//../sources/cxx-stl/stlport/stlport/stl/_cstddef.h"
	.file 3 "D:/android-ndk-r12b/build//../sources/cxx-stl/stlport/stlport/stl/_cstdlib.h"
	.file 4 "D:/android-ndk-r12b/build//../sources/cxx-stl/stlport/stlport/stl/_cmath.h"
	.file 5 "D:/android-ndk-r12b/build//../sources/cxx-stl/stlport/stlport/using/cstring"
	.file 6 "D:/android-ndk-r12b/build//../sources/cxx-stl/stlport/stlport/stl/type_manips.h"
	.file 7 "D:/android-ndk-r12b/build//../sources/cxx-stl/stlport/stlport/stl/_limits.h"
	.file 8 "D:/android-ndk-r12b/build//../sources/cxx-stl/stlport/stlport/../../gabi++/include/cstddef"
	.file 9 "D:/android-ndk-r12b/build//../sources/cxx-stl/stlport/stlport/stl/_cstdio.h"
	.file 10 "D:/android-ndk-r12b/build//../sources/cxx-stl/stlport/stlport/stl/_cwchar.h"
	.file 11 "D:/android-ndk-r12b/build//../sources/cxx-stl/stlport/stlport/stl/_threads.h"
	.file 12 "D:/android-ndk-r12b/build//../sources/cxx-stl/stlport/stlport/stl/_ctime.h"
	.file 13 "D:/android-ndk-r12b/build//../sources/cxx-stl/stlport/stlport/stl/config/features.h"
	.file 14 "d:\\android-ndk-r12b\\toolchains\\arm-linux-androideabi-4.9\\prebuilt\\windows-x86_64\\lib\\gcc\\arm-linux-androideabi\\4.9.x\\include\\stddef.h"
	.file 15 "<built-in>"
	.file 16 "d:\\android-ndk-r12b\\platforms\\android-9\\arch-arm\\usr\\include\\asm\\posix_types.h"
	.file 17 "d:\\android-ndk-r12b\\platforms\\android-9\\arch-arm\\usr\\include\\sys\\types.h"
	.file 18 "d:\\android-ndk-r12b\\toolchains\\arm-linux-androideabi-4.9\\prebuilt\\windows-x86_64\\lib\\gcc\\arm-linux-androideabi\\4.9.x\\include\\stdarg.h"
	.file 19 "d:\\android-ndk-r12b\\platforms\\android-9\\arch-arm\\usr\\include\\stdio.h"
	.file 20 "d:\\android-ndk-r12b\\platforms\\android-9\\arch-arm\\usr\\include\\stdlib.h"
	.file 21 "d:\\android-ndk-r12b\\platforms\\android-9\\arch-arm\\usr\\include\\string.h"
	.file 22 "d:\\android-ndk-r12b\\platforms\\android-9\\arch-arm\\usr\\include\\time.h"
	.file 23 "d:\\android-ndk-r12b\\platforms\\android-9\\arch-arm\\usr\\include\\wchar.h"
	.file 24 "d:\\android-ndk-r12b\\platforms\\android-9\\arch-arm\\usr\\include\\pthread.h"
	.file 25 "jni/hello/../util/Mutex.hpp"
	.file 26 "jni/hello/../util/logger.h"
	.file 27 "jni/hello/../luac/lua.h"
	.file 28 "d:\\android-ndk-r12b\\platforms\\android-9\\arch-arm\\usr\\include\\unistd.h"
	.file 29 "d:\\android-ndk-r12b\\platforms\\android-9\\arch-arm\\usr\\include\\dlfcn.h"
	.file 30 "d:\\android-ndk-r12b\\platforms\\android-9\\arch-arm\\usr\\include\\errno.h"
	.file 31 "jni/hello/../util/util.hpp"
	.file 32 "jni/hello/../util/payload.hpp"
	.file 33 "d:\\android-ndk-r12b\\platforms\\android-9\\arch-arm\\usr\\include\\sys\\mman.h"
	.file 34 "D:/android-ndk-r12b/build//../sources/cxx-stl/stlport/stlport/stl/_threads.c"
	.file 35 "jni/hello/../luac/lauxlib.h"
	.section	.note.GNU-stack,"",%progbits
