	.arch armv5te
	.fpu softvfp
	.eabi_attribute 20, 1
	.eabi_attribute 21, 1
	.eabi_attribute 23, 3
	.eabi_attribute 24, 1
	.eabi_attribute 25, 1
	.eabi_attribute 26, 2
	.eabi_attribute 30, 4
	.eabi_attribute 34, 0
	.eabi_attribute 18, 4
	.code	16
	.file	"logger.cpp"
	.text
.Ltext0:
	.cfi_sections	.debug_frame
	.section	.text._ZN6LoggerC2EPcb,"ax",%progbits
	.align	1
	.global	_ZN6LoggerC2EPcb
	.code	16
	.thumb_func
	.type	_ZN6LoggerC2EPcb, %function
_ZN6LoggerC2EPcb:
	.fnstart
.LFB30:
	.file 1 "jni/tracer/../util/logger.cpp"
	.loc 1 11 0
	.cfi_startproc
.LVL0:
	ldr	r3, .L8
	push	{r4, r5, r6, lr}
	.save {r4, r5, r6, lr}
	.cfi_def_cfa_offset 16
	.cfi_offset 4, -16
	.cfi_offset 5, -12
	.cfi_offset 6, -8
	.cfi_offset 14, -4
.LPIC3:
	add	r3, pc
.LBB17:
	.loc 1 11 0
	ldr	r3, [r3]
.LBE17:
	mov	r4, r0
.LBB18:
	add	r3, r3, #8
	stmia	r0!, {r3}
.LVL1:
.LBE18:
	mov	r5, r1
	mov	r6, r2
.LBB19:
	.loc 1 13 0
	bl	MutexCreate
.LVL2:
	.loc 1 14 0
	cmp	r5, #0
	bne	.L2
	ldr	r3, .L8+4
.LPIC2:
	add	r3, pc
	.loc 1 15 0
	ldr	r3, [r3]
	add	r3, r3, #84
	str	r3, [r4, #8]
	b	.L3
.L2:
	.loc 1 18 0
	ldr	r1, .L8+8
	.loc 1 17 0
	strb	r6, [r4, #12]
	.loc 1 18 0
	mov	r0, r5
.LPIC1:
	add	r1, pc
	bl	fopen
.LVL3:
	str	r0, [r4, #8]
	cmp	r0, #0
	beq	.L3
	.loc 1 19 0
	mov	r0, r5
	ldr	r1, .L8+12
	bl	chmod
.LVL4:
.L3:
.LBE19:
	.loc 1 22 0
	mov	r0, r4
	@ sp needed
.LVL5:
.LVL6:
	pop	{r4, r5, r6, pc}
.L9:
	.align	2
.L8:
	.word	_ZTV6Logger(GOT_PREL)+(.-(.LPIC3+4))
	.word	__sF(GOT_PREL)+(.-(.LPIC2+4))
	.word	.LC0-(.LPIC1+4)
	.word	511
	.cfi_endproc
.LFE30:
	.fnend
	.size	_ZN6LoggerC2EPcb, .-_ZN6LoggerC2EPcb
	.global	_ZN6LoggerC1EPcb
	.thumb_set _ZN6LoggerC1EPcb,_ZN6LoggerC2EPcb
	.section	.text._ZN6LoggerC2Ev,"ax",%progbits
	.align	1
	.global	_ZN6LoggerC2Ev
	.code	16
	.thumb_func
	.type	_ZN6LoggerC2Ev, %function
_ZN6LoggerC2Ev:
	.fnstart
.LFB33:
	.loc 1 24 0
	.cfi_startproc
.LVL7:
	push	{r4, lr}
	.save {r4, lr}
	.cfi_def_cfa_offset 8
	.cfi_offset 4, -8
	.cfi_offset 14, -4
	.loc 1 24 0
	mov	r4, r0
	ldr	r3, .L11
	.loc 1 30 0
	@ sp needed
.LPIC6:
	add	r3, pc
.LBB20:
	.loc 1 24 0
	ldr	r3, [r3]
	add	r3, r3, #8
	stmia	r0!, {r3}
.LVL8:
	.loc 1 26 0
	bl	MutexCreate
.LVL9:
	ldr	r3, .L11+4
.LBE20:
	.loc 1 30 0
	mov	r0, r4
.LBB21:
	.loc 1 26 0
.LPIC5:
	add	r3, pc
	.loc 1 27 0
	ldr	r3, [r3]
	add	r3, r3, #84
	str	r3, [r4, #8]
	.loc 1 28 0
	mov	r3, #1
	strb	r3, [r4, #12]
.LVL10:
.LBE21:
	.loc 1 30 0
	pop	{r4, pc}
.L12:
	.align	2
.L11:
	.word	_ZTV6Logger(GOT_PREL)+(.-(.LPIC6+4))
	.word	__sF(GOT_PREL)+(.-(.LPIC5+4))
	.cfi_endproc
.LFE33:
	.fnend
	.size	_ZN6LoggerC2Ev, .-_ZN6LoggerC2Ev
	.global	_ZN6LoggerC1Ev
	.thumb_set _ZN6LoggerC1Ev,_ZN6LoggerC2Ev
	.section	.text._ZN6LoggerD2Ev,"ax",%progbits
	.align	1
	.global	_ZN6LoggerD2Ev
	.code	16
	.thumb_func
	.type	_ZN6LoggerD2Ev, %function
_ZN6LoggerD2Ev:
	.fnstart
.LFB36:
	.loc 1 32 0
	.cfi_startproc
.LVL11:
	ldr	r3, .L18
	push	{r4, lr}
	.save {r4, lr}
	.cfi_def_cfa_offset 8
	.cfi_offset 4, -8
	.cfi_offset 14, -4
.LPIC9:
	add	r3, pc
.LBB22:
	.loc 1 32 0
	ldr	r3, [r3]
.LBE22:
	mov	r4, r0
.LBB23:
	add	r3, r3, #8
	str	r3, [r0]
	.loc 1 34 0
	ldr	r0, [r0, #8]
.LVL12:
	cmp	r0, #0
	beq	.L14
	ldr	r3, .L18+4
.LPIC8:
	add	r3, pc
	.loc 1 35 0
	ldr	r3, [r3]
	add	r3, r3, #84
	cmp	r0, r3
	beq	.L14
	.loc 1 36 0
	bl	fclose
.LVL13:
.L14:
.LBE23:
	.loc 1 39 0
	mov	r0, r4
	@ sp needed
.LVL14:
	pop	{r4, pc}
.L19:
	.align	2
.L18:
	.word	_ZTV6Logger(GOT_PREL)+(.-(.LPIC9+4))
	.word	__sF(GOT_PREL)+(.-(.LPIC8+4))
	.cfi_endproc
.LFE36:
	.fnend
	.size	_ZN6LoggerD2Ev, .-_ZN6LoggerD2Ev
	.global	_ZN6LoggerD1Ev
	.thumb_set _ZN6LoggerD1Ev,_ZN6LoggerD2Ev
	.section	.text._ZN6Logger5toHexEPhi,"ax",%progbits
	.align	1
	.global	_ZN6Logger5toHexEPhi
	.code	16
	.thumb_func
	.type	_ZN6Logger5toHexEPhi, %function
_ZN6Logger5toHexEPhi:
	.fnstart
.LFB38:
	.loc 1 42 0
	.cfi_startproc
.LVL15:
	push	{r4, r5, r6, r7, lr}
	.save {r4, r5, r6, r7, lr}
	.cfi_def_cfa_offset 20
	.cfi_offset 4, -20
	.cfi_offset 5, -16
	.cfi_offset 6, -12
	.cfi_offset 7, -8
	.cfi_offset 14, -4
.LBB24:
	.loc 1 45 0
	mov	r4, #0
	ldr	r5, .L26
.LBE24:
	.loc 1 42 0
	.pad #52
	sub	sp, sp, #52
	.cfi_def_cfa_offset 72
.LBB26:
	.loc 1 46 0
	add	r6, r0, #4
.LPIC25:
	add	r5, pc
.LBE26:
	.loc 1 42 0
	ldr	r5, [r5]
.LBB27:
	.loc 1 46 0
	mov	r0, r6
.LVL16:
.LBE27:
	.loc 1 42 0
	ldr	r3, [r5]
	str	r1, [sp]
	mov	r7, r2
	str	r3, [sp, #44]
.LBB28:
	.loc 1 45 0
	ldr	r3, .L26+4
.LPIC19:
	add	r3, pc
	strb	r4, [r3]
	.loc 1 46 0
	bl	MutexLock
.LVL17:
	str	r5, [sp, #4]
.LVL18:
.L21:
.LBB25:
	.loc 1 47 0 discriminator 1
	cmp	r4, r7
	bge	.L22
	.loc 1 47 0 is_stmt 0 discriminator 3
	cmp	r4, #16
	beq	.L25
	.loc 1 48 0 is_stmt 1
	ldr	r3, [sp]
	ldr	r1, .L26+8
	add	r5, sp, #12
	ldrb	r2, [r3, r4]
.LPIC20:
	add	r1, pc
	mov	r0, r5
	bl	sprintf
.LVL19:
	.loc 1 49 0
	ldr	r0, .L26+12
	mov	r1, r5
.LPIC21:
	add	r0, pc
	bl	strcat
.LVL20:
	.loc 1 47 0 discriminator 4
	add	r4, r4, #1
.LVL21:
	b	.L21
.L25:
.LBE25:
	.loc 1 51 0
	cmp	r7, #16
	ble	.L22
	.loc 1 52 0
	ldr	r0, .L26+16
	ldr	r1, .L26+20
.LPIC22:
	add	r0, pc
.LPIC23:
	add	r1, pc
	bl	strcat
.LVL22:
.L22:
	.loc 1 54 0
	mov	r0, r6
	bl	MutexUnlock
.LVL23:
.LBE28:
	.loc 1 56 0
	ldr	r3, [sp, #4]
	ldr	r0, .L26+24
	ldr	r2, [sp, #44]
	ldr	r3, [r3]
.LPIC24:
	add	r0, pc
	cmp	r2, r3
	beq	.L24
	bl	__stack_chk_fail
.LVL24:
.L24:
	add	sp, sp, #52
.LVL25:
	@ sp needed
.LVL26:
.LVL27:
.LVL28:
	pop	{r4, r5, r6, r7, pc}
.L27:
	.align	2
.L26:
	.word	__stack_chk_guard(GOT_PREL)+(.-(.LPIC25+4))
	.word	.LANCHOR0-(.LPIC19+4)
	.word	.LC1-(.LPIC20+4)
	.word	.LANCHOR0-(.LPIC21+4)
	.word	.LANCHOR0-(.LPIC22+4)
	.word	.LC2-(.LPIC23+4)
	.word	.LANCHOR0-(.LPIC24+4)
	.cfi_endproc
.LFE38:
	.fnend
	.size	_ZN6Logger5toHexEPhi, .-_ZN6Logger5toHexEPhi
	.section	.text._ZN6Logger6printfEPcz,"ax",%progbits
	.align	1
	.global	_ZN6Logger6printfEPcz
	.code	16
	.thumb_func
	.type	_ZN6Logger6printfEPcz, %function
_ZN6Logger6printfEPcz:
	.fnstart
.LFB39:
	.loc 1 59 0
	.cfi_startproc
.LVL29:
	push	{r1, r2, r3}
	.pad #12
	.cfi_def_cfa_offset 12
	push	{r4, r5, r6, lr}
	.save {r4, r5, r6, lr}
	.cfi_def_cfa_offset 28
	.cfi_offset 4, -28
	.cfi_offset 5, -24
	.cfi_offset 6, -20
	.cfi_offset 14, -16
	mov	r6, r0
	ldr	r4, .L30
	ldr	r2, .L30+4
	ldr	r0, .L30+8
.LVL30:
	.pad #2060
	add	sp, sp, r4
	.cfi_def_cfa_offset 2088
	ldr	r4, .L30+12
	.loc 1 59 0
	add	r2, r2, sp
	ldmia	r2!, {r1}
.LPIC27:
	add	r4, pc
	ldr	r4, [r4]
	add	r0, r0, sp
.LBB29:
	.loc 1 63 0
	add	r5, sp, #4
.LBE29:
	.loc 1 59 0
	ldr	r3, [r4]
.LBB30:
	.loc 1 62 0
	str	r2, [sp]
.LBE30:
	.loc 1 59 0
	str	r3, [r0]
.LBB31:
	.loc 1 63 0
	mov	r0, r5
	bl	vsprintf
.LVL31:
	.loc 1 65 0
	ldr	r3, [r6]
	mov	r0, r6
	ldr	r3, [r3]
	mov	r1, r5
	blx	r3
.LVL32:
.LBE31:
	.loc 1 66 0
	ldr	r3, .L30+8
	add	r3, r3, sp
	ldr	r2, [r3]
	ldr	r3, [r4]
	cmp	r2, r3
	beq	.L29
	bl	__stack_chk_fail
.LVL33:
.L29:
	ldr	r3, .L30+16
	add	sp, sp, r3
	@ sp needed
.LVL34:
	pop	{r4, r5, r6}
	pop	{r3}
	add	sp, sp, #12
	bx	r3
.L31:
	.align	2
.L30:
	.word	-2060
	.word	2076
	.word	2052
	.word	__stack_chk_guard(GOT_PREL)+(.-(.LPIC27+4))
	.word	2060
	.cfi_endproc
.LFE39:
	.fnend
	.size	_ZN6Logger6printfEPcz, .-_ZN6Logger6printfEPcz
	.section	.text._ZN6Logger6logStrEP7__sFILEPcb,"ax",%progbits
	.align	1
	.global	_ZN6Logger6logStrEP7__sFILEPcb
	.code	16
	.thumb_func
	.type	_ZN6Logger6logStrEP7__sFILEPcb, %function
_ZN6Logger6logStrEP7__sFILEPcb:
	.fnstart
.LFB40:
	.loc 1 69 0
	.cfi_startproc
.LVL35:
	push	{r4, r5, r6, r7, lr}
	.save {r4, r5, r6, r7, lr}
	.cfi_def_cfa_offset 20
	.cfi_offset 4, -20
	.cfi_offset 5, -16
	.cfi_offset 6, -12
	.cfi_offset 7, -8
	.cfi_offset 14, -4
	.pad #36
	sub	sp, sp, #36
	.cfi_def_cfa_offset 56
	.loc 1 69 0
	str	r3, [sp, #16]
	ldr	r3, .L41
.LVL36:
	mov	r6, r2
.LPIC32:
	add	r3, pc
	ldr	r3, [r3]
	str	r0, [sp, #12]
	sub	r4, r1, #0
	ldr	r2, [r3]
.LVL37:
	str	r3, [sp, #20]
	str	r2, [sp, #28]
.LBB32:
	.loc 1 71 0
	beq	.L32
.LBB33:
	.loc 1 72 0
	add	r7, r0, #4
	.loc 1 74 0
	add	r5, sp, #24
	.loc 1 72 0
	mov	r0, r7
.LVL38:
	bl	MutexLock
.LVL39:
	.loc 1 74 0
	mov	r0, r5
	bl	time
.LVL40:
	.loc 1 75 0
	mov	r0, r5
	bl	ctime
.LVL41:
	mov	r5, r0
.LVL42:
	.loc 1 76 0
	bl	strlen
.LVL43:
	mov	r3, #0
	add	r0, r5, r0
	sub	r0, r0, #1
	strb	r3, [r0]
	.loc 1 77 0
	ldr	r3, [sp, #16]
	cmp	r3, #0
	beq	.L34
	.loc 1 78 0
	ldr	r1, .L41+4
	mov	r0, r4
.LPIC29:
	add	r1, pc
	mov	r2, r6
	bl	fprintf
.LVL44:
	b	.L35
.L34:
	.loc 1 80 0
	ldr	r3, [sp, #12]
	ldrb	r3, [r3, #12]
	cmp	r3, #0
	beq	.L36
	.loc 1 81 0
	bl	gettid
.LVL45:
	.loc 1 81 0 is_stmt 0 discriminator 1
	ldr	r1, .L41+8
	.loc 1 81 0
	mov	r2, r0
	.loc 1 81 0 discriminator 1
.LPIC30:
	add	r1, pc
	mov	r0, r4
	mov	r3, r6
	bl	fprintf
.LVL46:
	b	.L35
.L36:
	.loc 1 83 0 is_stmt 1
	bl	gettid
.LVL47:
	.loc 1 83 0 is_stmt 0 discriminator 1
	ldr	r1, .L41+12
	.loc 1 83 0
	mov	r3, r0
	.loc 1 83 0 discriminator 1
	str	r6, [sp]
	mov	r0, r4
.LPIC31:
	add	r1, pc
	mov	r2, r5
	bl	fprintf
.LVL48:
.L35:
	.loc 1 86 0 is_stmt 1
	mov	r0, r4
	bl	fflush
.LVL49:
	.loc 1 87 0
	mov	r0, r7
	bl	MutexUnlock
.LVL50:
.L32:
.LBE33:
.LBE32:
	.loc 1 89 0
	ldr	r3, [sp, #20]
	ldr	r2, [sp, #28]
	ldr	r3, [r3]
	cmp	r2, r3
	beq	.L37
	bl	__stack_chk_fail
.LVL51:
.L37:
	add	sp, sp, #36
	@ sp needed
.LVL52:
.LVL53:
	pop	{r4, r5, r6, r7, pc}
.L42:
	.align	2
.L41:
	.word	__stack_chk_guard(GOT_PREL)+(.-(.LPIC32+4))
	.word	.LC3-(.LPIC29+4)
	.word	.LC4-(.LPIC30+4)
	.word	.LC5-(.LPIC31+4)
	.cfi_endproc
.LFE40:
	.fnend
	.size	_ZN6Logger6logStrEP7__sFILEPcb, .-_ZN6Logger6logStrEP7__sFILEPcb
	.section	.text._ZN6Logger6logStrEPc,"ax",%progbits
	.align	1
	.global	_ZN6Logger6logStrEPc
	.code	16
	.thumb_func
	.type	_ZN6Logger6logStrEPc, %function
_ZN6Logger6logStrEPc:
	.fnstart
.LFB41:
	.loc 1 91 0
	.cfi_startproc
.LVL54:
	push	{r3, lr}
	.save {r3, lr}
	.cfi_def_cfa_offset 8
	.cfi_offset 3, -8
	.cfi_offset 14, -4
	.loc 1 91 0
	mov	r2, r1
	.loc 1 92 0
	mov	r3, #0
	ldr	r1, [r0, #8]
.LVL55:
	bl	_ZN6Logger6logStrEP7__sFILEPcb
.LVL56:
	.loc 1 93 0
	@ sp needed
	pop	{r3, pc}
	.cfi_endproc
.LFE41:
	.fnend
	.size	_ZN6Logger6logStrEPc, .-_ZN6Logger6logStrEPc
	.section	.text._ZN6Logger6logRawEPc,"ax",%progbits
	.align	1
	.global	_ZN6Logger6logRawEPc
	.code	16
	.thumb_func
	.type	_ZN6Logger6logRawEPc, %function
_ZN6Logger6logRawEPc:
	.fnstart
.LFB42:
	.loc 1 96 0
	.cfi_startproc
.LVL57:
	push	{r3, lr}
	.save {r3, lr}
	.cfi_def_cfa_offset 8
	.cfi_offset 3, -8
	.cfi_offset 14, -4
	.loc 1 96 0
	mov	r2, r1
	.loc 1 97 0
	mov	r3, #1
	ldr	r1, [r0, #8]
.LVL58:
	bl	_ZN6Logger6logStrEP7__sFILEPcb
.LVL59:
	.loc 1 98 0
	@ sp needed
	pop	{r3, pc}
	.cfi_endproc
.LFE42:
	.fnend
	.size	_ZN6Logger6logRawEPc, .-_ZN6Logger6logRawEPc
	.section	.text._ZN6Logger6logHexEPhi,"ax",%progbits
	.align	1
	.global	_ZN6Logger6logHexEPhi
	.code	16
	.thumb_func
	.type	_ZN6Logger6logHexEPhi, %function
_ZN6Logger6logHexEPhi:
	.fnstart
.LFB43:
	.loc 1 104 0
	.cfi_startproc
.LVL60:
	push	{r4, r5, r6, r7, lr}
	.save {r4, r5, r6, r7, lr}
	.cfi_def_cfa_offset 20
	.cfi_offset 4, -20
	.cfi_offset 5, -16
	.cfi_offset 6, -12
	.cfi_offset 7, -8
	.cfi_offset 14, -4
.LBB34:
.LBB35:
	.loc 1 106 0
	ldr	r3, [r0, #8]
.LBE35:
.LBE34:
	.loc 1 104 0
	.pad #20
	sub	sp, sp, #20
	.cfi_def_cfa_offset 40
.LBB55:
.LBB54:
	.loc 1 106 0
	cmp	r3, #0
	beq	.L45
.LBB36:
.LBB37:
	.loc 1 108 0
	mov	r7, #0
.LBE37:
	.loc 1 107 0
	add	r3, r0, #4
	mov	r6, r0
	mov	r0, r3
.LVL61:
	str	r3, [sp, #8]
	str	r2, [sp, #4]
	str	r1, [sp, #12]
	bl	MutexLock
.LVL62:
	ldr	r3, [sp, #12]
	str	r3, [sp]
.LVL63:
.L47:
.LBB49:
	.loc 1 108 0 discriminator 1
	ldr	r3, [sp, #4]
	cmp	r7, r3
	bge	.L66
.LBB38:
.LBB39:
	.loc 1 110 0
	mov	r4, #15
.LBE39:
	.loc 1 109 0
	ldr	r3, [sp]
	ldr	r1, .L67
	ldr	r0, [r6, #8]
	ldrb	r2, [r3]
.LPIC33:
	add	r1, pc
.LBB47:
	.loc 1 110 0
	add	r7, r7, #1
.LVL64:
.LBE47:
	.loc 1 109 0
	bl	fprintf
.LVL65:
.LBB48:
	.loc 1 110 0
	and	r4, r7
	bne	.L48
	ldr	r5, .L67+4
.LPIC36:
	add	r5, pc
.LBB40:
.LBB41:
.LBB42:
.LBB43:
.LBB44:
	.file 2 "d:\\android-ndk-r12b\\platforms\\android-9\\arch-arm\\usr\\include\\ctype.h"
	.loc 2 104 0 discriminator 1
	ldr	r5, [r5]
.L51:
.LVL66:
	mov	r3, r4
.LBE44:
.LBE43:
	.loc 1 112 0
	ldr	r2, [sp]
	sub	r3, r3, #15
	ldr	r1, [r6, #8]
	ldrb	r0, [r2, r3]
.LVL67:
.LBB46:
.LBB45:
	.loc 2 104 0 discriminator 1
	ldr	r3, [r5]
	add	r3, r3, r0
	ldrb	r3, [r3, #1]
.LBE45:
.LBE46:
	.loc 1 113 0
	lsl	r3, r3, #29
	bne	.L64
	.loc 1 116 0
	mov	r0, #46
.LVL68:
.L64:
	add	r4, r4, #1
.LVL69:
	bl	fputc
.LVL70:
.LBE42:
	.loc 1 111 0 discriminator 1
	cmp	r4, #16
	bne	.L51
.LBE41:
	.loc 1 119 0
	mov	r0, #10
	ldr	r1, [r6, #8]
	bl	fputc
.LVL71:
.L48:
	ldr	r3, [sp]
	add	r3, r3, #1
	str	r3, [sp]
	b	.L47
.LVL72:
.L66:
	mvn	r5, r3
.LBE40:
.LBE48:
.LBE38:
.LBE49:
	.loc 1 122 0
	mov	r4, #15
	asr	r5, r5, #31
	and	r5, r3
	.loc 1 124 0 discriminator 1
	mov	r3, #16
	.loc 1 124 0 is_stmt 0
	mov	r7, #0
.LVL73:
	.loc 1 122 0 is_stmt 1
	and	r4, r5
.LVL74:
	.loc 1 124 0 discriminator 1
	sub	r3, r3, r4
	str	r3, [sp]
.LVL75:
.L54:
	ldr	r3, [sp]
	cmp	r7, r3
	bge	.L56
	.loc 1 125 0
	ldr	r0, .L67+8
	ldr	r1, [r6, #8]
	.loc 1 124 0 discriminator 3
	add	r7, r7, #1
.LVL76:
	.loc 1 125 0
.LPIC35:
	add	r0, pc
	bl	fputs
.LVL77:
	b	.L54
.LVL78:
.L59:
	ldr	r3, [sp, #12]
	neg	r2, r4
	add	r3, r3, r5
.LBB50:
.LBB51:
	.loc 1 129 0
	ldrb	r0, [r3, r2]
.LVL79:
	ldr	r3, .L67+12
.LPIC37:
	add	r3, pc
.LBB52:
.LBB53:
	.loc 2 104 0 discriminator 1
	ldr	r3, [r3]
	ldr	r3, [r3]
	add	r3, r3, r0
	ldrb	r3, [r3, #1]
.LBE53:
.LBE52:
	.loc 1 130 0
	lsl	r3, r3, #29
	bne	.L65
	.loc 1 133 0
	mov	r0, #46
.LVL80:
.L65:
	bl	fputc
.LVL81:
.LBE51:
	.loc 1 128 0 discriminator 2
	sub	r4, r4, #1
.LVL82:
.L56:
	ldr	r1, [r6, #8]
	.loc 1 128 0 is_stmt 0 discriminator 1
	cmp	r4, #0
	bne	.L59
.LBE50:
	.loc 1 136 0 is_stmt 1
	mov	r0, #10
	bl	fputc
.LVL83:
	.loc 1 137 0
	ldr	r0, [r6, #8]
	bl	fflush
.LVL84:
	.loc 1 138 0
	ldr	r0, [sp, #8]
	bl	MutexUnlock
.LVL85:
.L45:
.LBE36:
.LBE54:
.LBE55:
	.loc 1 140 0
	add	sp, sp, #20
	@ sp needed
	pop	{r4, r5, r6, r7, pc}
.L68:
	.align	2
.L67:
	.word	.LC1-(.LPIC33+4)
	.word	_ctype_(GOT_PREL)+(.-(.LPIC36+4))
	.word	.LC6-(.LPIC35+4)
	.word	_ctype_(GOT_PREL)+(.-(.LPIC37+4))
	.cfi_endproc
.LFE43:
	.fnend
	.size	_ZN6Logger6logHexEPhi, .-_ZN6Logger6logHexEPhi
	.global	_ZTS6Logger
	.global	_ZTI6Logger
	.global	_ZTV6Logger
	.section	.rodata
	.align	2
	.type	_ZTS6Logger, %object
	.size	_ZTS6Logger, 8
_ZTS6Logger:
	.ascii	"6Logger\000"
	.section	.data.rel.ro,"aw",%progbits
	.align	3
	.type	_ZTI6Logger, %object
	.size	_ZTI6Logger, 8
_ZTI6Logger:
	.word	_ZTVN10__cxxabiv117__class_type_infoE+8
	.word	_ZTS6Logger
	.type	_ZTV6Logger, %object
	.size	_ZTV6Logger, 16
_ZTV6Logger:
	.word	0
	.word	_ZTI6Logger
	.word	_ZN6Logger6logStrEPc
	.word	_ZN6Logger6logRawEPc
	.section	.rodata.str1.1,"aMS",%progbits,1
.LC0:
	.ascii	"a+\000"
.LC1:
	.ascii	"%02X \000"
.LC2:
	.ascii	"...\000"
.LC3:
	.ascii	"%s\012\000"
.LC4:
	.ascii	"[%5d] %s\012\000"
.LC5:
	.ascii	"%s [%5d] %s\012\000"
.LC6:
	.ascii	"   \000"
	.bss
	.align	2
.LANCHOR0 = . + 0
	.type	_ZZN6Logger5toHexEPhiE3tmp, %object
	.size	_ZZN6Logger5toHexEPhiE3tmp, 1024000
_ZZN6Logger5toHexEPhiE3tmp:
	.space	1024000
	.text
.Letext0:
	.file 3 "D:/android-ndk-r12b/build//../sources/cxx-stl/stlport/stlport/stl/config/features.h"
	.file 4 "d:\\android-ndk-r12b\\toolchains\\arm-linux-androideabi-4.9\\prebuilt\\windows-x86_64\\lib\\gcc\\arm-linux-androideabi\\4.9.x\\include\\stddef.h"
	.file 5 "d:\\android-ndk-r12b\\platforms\\android-9\\arch-arm\\usr\\include\\machine\\_types.h"
	.file 6 "d:\\android-ndk-r12b\\platforms\\android-9\\arch-arm\\usr\\include\\asm\\posix_types.h"
	.file 7 "d:\\android-ndk-r12b\\platforms\\android-9\\arch-arm\\usr\\include\\sys\\types.h"
	.file 8 "d:\\android-ndk-r12b\\toolchains\\arm-linux-androideabi-4.9\\prebuilt\\windows-x86_64\\lib\\gcc\\arm-linux-androideabi\\4.9.x\\include\\stdarg.h"
	.file 9 "d:\\android-ndk-r12b\\platforms\\android-9\\arch-arm\\usr\\include\\stdio.h"
	.file 10 "<built-in>"
	.file 11 "d:\\android-ndk-r12b\\platforms\\android-9\\arch-arm\\usr\\include\\pthread.h"
	.file 12 "jni/tracer/../util/Mutex.hpp"
	.file 13 "jni/tracer/../util/logger.h"
	.file 14 "d:\\android-ndk-r12b\\platforms\\android-9\\arch-arm\\usr\\include\\sys\\stat.h"
	.file 15 "d:\\android-ndk-r12b\\platforms\\android-9\\arch-arm\\usr\\include\\string.h"
	.file 16 "d:\\android-ndk-r12b\\platforms\\android-9\\arch-arm\\usr\\include\\time.h"
	.file 17 "d:\\android-ndk-r12b\\platforms\\android-9\\arch-arm\\usr\\include\\unistd.h"
	.section	.note.GNU-stack,"",%progbits
