	.arch armv5te
	.fpu softvfp
	.eabi_attribute 20, 1
	.eabi_attribute 21, 1
	.eabi_attribute 23, 3
	.eabi_attribute 24, 1
	.eabi_attribute 25, 1
	.eabi_attribute 26, 2
	.eabi_attribute 30, 4
	.eabi_attribute 34, 0
	.eabi_attribute 18, 4
	.code	16
	.file	"payload.cpp"
	.text
.Ltext0:
	.cfi_sections	.debug_frame
	.section	.text._Z29GetBranchToAddressCommandSizev,"ax",%progbits
	.align	1
	.global	_Z29GetBranchToAddressCommandSizev
	.code	16
	.thumb_func
	.type	_Z29GetBranchToAddressCommandSizev, %function
_Z29GetBranchToAddressCommandSizev:
	.fnstart
.LFB1465:
	.file 1 "jni/tracer/../util/payload.cpp"
	.loc 1 42 0
	.cfi_startproc
	.loc 1 44 0
	mov	r0, #12
	@ sp needed
	bx	lr
	.cfi_endproc
.LFE1465:
	.fnend
	.size	_Z29GetBranchToAddressCommandSizev, .-_Z29GetBranchToAddressCommandSizev
	.section	.text._Z28CreateBranchToAddressCommandj,"ax",%progbits
	.align	1
	.global	_Z28CreateBranchToAddressCommandj
	.code	16
	.thumb_func
	.type	_Z28CreateBranchToAddressCommandj, %function
_Z28CreateBranchToAddressCommandj:
	.fnstart
.LFB1464:
	.loc 1 34 0
	.cfi_startproc
.LVL0:
	push	{r3, r4, r5, lr}
	.save {r3, r4, r5, lr}
	.cfi_def_cfa_offset 16
	.cfi_offset 3, -16
	.cfi_offset 4, -12
	.cfi_offset 5, -8
	.cfi_offset 14, -4
	.loc 1 34 0
	mov	r5, r0
.LBB143:
	.loc 1 35 0
	bl	_Z29GetBranchToAddressCommandSizev
.LVL1:
	.loc 1 35 0 is_stmt 0 discriminator 1
	bl	malloc
.LVL2:
	mov	r4, r0
.LVL3:
	.loc 1 36 0 is_stmt 1
	bl	_Z29GetBranchToAddressCommandSizev
.LVL4:
	ldr	r1, .L3
	mov	r2, r0
.LPIC1:
	add	r1, pc
	.loc 1 36 0 is_stmt 0 discriminator 1
	ldr	r1, [r1]
	mov	r0, r4
	bl	memcpy
.LVL5:
.LBE143:
	.loc 1 39 0 is_stmt 1
	@ sp needed
.LBB144:
	.loc 1 37 0
	str	r5, [r4, #8]
.LBE144:
	.loc 1 39 0
	mov	r0, r4
.LVL6:
.LVL7:
	pop	{r3, r4, r5, pc}
.L4:
	.align	2
.L3:
	.word	_branchToAddressCmd(GOT_PREL)+(.-(.LPIC1+4))
	.cfi_endproc
.LFE1464:
	.fnend
	.size	_Z28CreateBranchToAddressCommandj, .-_Z28CreateBranchToAddressCommandj
	.section	.text._Z24AllocateExecutableMemoryj,"ax",%progbits
	.align	1
	.global	_Z24AllocateExecutableMemoryj
	.code	16
	.thumb_func
	.type	_Z24AllocateExecutableMemoryj, %function
_Z24AllocateExecutableMemoryj:
	.fnstart
.LFB1466:
	.loc 1 47 0
	.cfi_startproc
.LVL8:
	push	{r0, r1, r2, lr}
	.save {r0, r1, r2, lr}
	.cfi_def_cfa_offset 16
	.cfi_offset 0, -16
	.cfi_offset 1, -12
	.cfi_offset 2, -8
	.cfi_offset 14, -4
	.loc 1 47 0
	mov	r1, r0
.LBB145:
	.loc 1 55 0
	mov	r0, #0
.LVL9:
	mov	r2, #7
	str	r0, [sp]
	str	r0, [sp, #4]
	mov	r3, #34
	bl	mmap
.LVL10:
.LBE145:
	.loc 1 59 0
	@ sp needed
	pop	{r1, r2, r3, pc}
	.cfi_endproc
.LFE1466:
	.fnend
	.size	_Z24AllocateExecutableMemoryj, .-_Z24AllocateExecutableMemoryj
	.section	.text._Z13FindFreeSpaceiPc,"ax",%progbits
	.align	1
	.global	_Z13FindFreeSpaceiPc
	.code	16
	.thumb_func
	.type	_Z13FindFreeSpaceiPc, %function
_Z13FindFreeSpaceiPc:
	.fnstart
.LFB1467:
	.loc 1 62 0
	.cfi_startproc
.LVL11:
	push	{r4, r5, r6, r7, lr}
	.save {r4, r5, r6, r7, lr}
	.cfi_def_cfa_offset 20
	.cfi_offset 4, -20
	.cfi_offset 5, -16
	.cfi_offset 6, -12
	.cfi_offset 7, -8
	.cfi_offset 14, -4
	ldr	r4, .L23
	mov	r6, r1
	.pad #1196
	add	sp, sp, r4
	.cfi_def_cfa_offset 1216
	ldr	r4, .L23+4
	.loc 1 62 0
	add	r1, sp, #1020
.LVL12:
	add	r1, r1, #168
.LPIC10:
	add	r4, pc
	ldr	r4, [r4]
.LBB146:
	.loc 1 69 0
	add	r5, sp, #16
.LBE146:
	.loc 1 62 0
	mov	r2, r0
	ldr	r3, [r4]
.LBB147:
	.loc 1 69 0
	mov	r0, r5
.LVL13:
.LBE147:
	.loc 1 62 0
	str	r3, [r1]
.LBB148:
	.loc 1 69 0
	ldr	r1, .L23+8
.LPIC3:
	add	r1, pc
	bl	sprintf
.LVL14:
	.loc 1 70 0
	ldr	r1, .L23+12
	mov	r0, r5
.LPIC4:
	add	r1, pc
	bl	fopen
.LVL15:
	str	r4, [sp, #12]
	sub	r5, r0, #0
.LVL16:
	.loc 1 71 0
	bne	.L17
	.loc 1 72 0
	mov	r0, #1
.LVL17:
	bl	exit
.LVL18:
.L10:
	.loc 1 75 0
	ldr	r1, .L23+16
	add	r3, sp, #208
	add	r7, sp, #48
	str	r3, [sp]
.LPIC5:
	add	r1, pc
	mov	r0, r4
	add	r2, sp, #80
	mov	r3, r7
	bl	sscanf
.LVL19:
	.loc 1 76 0
	ldr	r1, .L23+20
	mov	r0, r4
.LPIC6:
	add	r1, pc
	bl	strstr
.LVL20:
	cmp	r0, #0
	beq	.L22
.L17:
	.loc 1 73 0
	add	r4, sp, #336
	mov	r0, r4
	ldr	r1, .L23+24
	mov	r2, r5
	bl	fgets
.LVL21:
	cmp	r0, #0
	bne	.L10
	b	.L9
.L22:
	.loc 1 81 0
	ldr	r1, .L23+28
	mov	r0, r4
.LPIC7:
	add	r1, pc
	bl	strstr
.LVL22:
	cmp	r0, #0
	beq	.L17
	.loc 1 85 0
	cmp	r6, #0
	beq	.L8
	.loc 1 86 0
	mov	r0, r7
	mov	r1, r6
	bl	strstr
.LVL23:
	cmp	r0, #0
	beq	.L17
.L8:
	.loc 1 92 0
	ldr	r0, .L23+32
.LPIC8:
	add	r0, pc
	bl	puts
.LVL24:
	.loc 1 93 0
	ldr	r0, .L23+36
	add	r1, sp, #336
.LPIC9:
	add	r0, pc
	bl	printf
.LVL25:
.L9:
	.loc 1 97 0
	mov	r0, r5
	bl	fclose
.LVL26:
	.loc 1 98 0
	mov	r2, #16
	add	r0, sp, #80
	mov	r1, #0
	bl	strtoul
.LVL27:
.LBE148:
	.loc 1 99 0
	add	r3, sp, #1020
	add	r3, r3, #168
	ldr	r2, [r3]
	ldr	r3, [sp, #12]
	ldr	r3, [r3]
	cmp	r2, r3
	beq	.L11
	bl	__stack_chk_fail
.LVL28:
.L11:
	ldr	r3, .L23+40
	add	sp, sp, r3
	@ sp needed
.LVL29:
.LVL30:
	pop	{r4, r5, r6, r7, pc}
.L24:
	.align	2
.L23:
	.word	-1196
	.word	__stack_chk_guard(GOT_PREL)+(.-(.LPIC10+4))
	.word	.LC0-(.LPIC3+4)
	.word	.LC1-(.LPIC4+4)
	.word	.LC2-(.LPIC5+4)
	.word	.LC3-(.LPIC6+4)
	.word	850
	.word	.LC4-(.LPIC7+4)
	.word	.LC5-(.LPIC8+4)
	.word	.LC6-(.LPIC9+4)
	.word	1196
	.cfi_endproc
.LFE1467:
	.fnend
	.size	_Z13FindFreeSpaceiPc, .-_Z13FindFreeSpaceiPc
	.section	.text._Z10MemoryFindPhiS_i,"ax",%progbits
	.align	1
	.global	_Z10MemoryFindPhiS_i
	.code	16
	.thumb_func
	.type	_Z10MemoryFindPhiS_i, %function
_Z10MemoryFindPhiS_i:
	.fnstart
.LFB1468:
	.loc 1 102 0
	.cfi_startproc
.LVL31:
	push	{r0, r1, r2, r4, r5, r6, r7, lr}
	.save {r0, r1, r2, r4, r5, r6, r7, lr}
	.cfi_def_cfa_offset 32
	.cfi_offset 0, -32
	.cfi_offset 1, -28
	.cfi_offset 2, -24
	.cfi_offset 4, -20
	.cfi_offset 5, -16
	.cfi_offset 6, -12
	.cfi_offset 7, -8
	.cfi_offset 14, -4
	.loc 1 102 0
	mov	r6, r0
	mov	r7, r2
.LBB149:
.LBB150:
	.loc 1 103 0
	mov	r4, #0
.LBE150:
.LBE149:
	.loc 1 102 0
	mov	r5, r3
.LBB153:
.LBB151:
	.loc 1 103 0 discriminator 1
	sub	r3, r1, r3
.LVL32:
	str	r3, [sp, #4]
.LVL33:
.L26:
	ldr	r3, [sp, #4]
	cmp	r4, r3
	bge	.L30
	add	r0, r6, r4
	.loc 1 104 0
	mov	r1, r7
	mov	r2, r5
	bl	memcmp
.LVL34:
	cmp	r0, #0
	beq	.L29
	.loc 1 103 0 discriminator 2
	add	r4, r4, #1
.LVL35:
	b	.L26
.L30:
.LBE151:
	.loc 1 108 0
	mov	r0, #1
	neg	r0, r0
.LBB152:
	b	.L27
.L29:
	mov	r0, r4
.L27:
.LBE152:
.LBE153:
	.loc 1 109 0
	@ sp needed
.LVL36:
.LVL37:
.LVL38:
.LVL39:
	pop	{r1, r2, r3, r4, r5, r6, r7, pc}
	.cfi_endproc
.LFE1468:
	.fnend
	.size	_Z10MemoryFindPhiS_i, .-_Z10MemoryFindPhiS_i
	.section	.text._Z13WriteAllBytesPcPhi,"ax",%progbits
	.align	1
	.global	_Z13WriteAllBytesPcPhi
	.code	16
	.thumb_func
	.type	_Z13WriteAllBytesPcPhi, %function
_Z13WriteAllBytesPcPhi:
	.fnstart
.LFB1469:
	.loc 1 112 0
	.cfi_startproc
.LVL40:
	push	{r4, r5, r6, lr}
	.save {r4, r5, r6, lr}
	.cfi_def_cfa_offset 16
	.cfi_offset 4, -16
	.cfi_offset 5, -12
	.cfi_offset 6, -8
	.cfi_offset 14, -4
	.loc 1 112 0
	mov	r6, r1
.LBB154:
	.loc 1 113 0
	ldr	r1, .L34
.LVL41:
.LBE154:
	.loc 1 112 0
	mov	r5, r2
.LBB155:
	.loc 1 113 0
.LPIC11:
	add	r1, pc
	bl	fopen
.LVL42:
	sub	r4, r0, #0
.LVL43:
	.loc 1 114 0
	beq	.L32
	.loc 1 115 0
	mov	r1, r5
	mov	r2, #1
	mov	r3, r4
	mov	r0, r6
.LVL44:
	bl	fwrite
.LVL45:
	.loc 1 116 0
	mov	r0, r4
	bl	fflush
.LVL46:
	.loc 1 117 0
	mov	r0, r4
	bl	fclose
.LVL47:
	.loc 1 118 0
	mov	r0, #1
.L32:
.LBE155:
	.loc 1 121 0
	@ sp needed
.LVL48:
.LVL49:
.LVL50:
	pop	{r4, r5, r6, pc}
.L35:
	.align	2
.L34:
	.word	.LC7-(.LPIC11+4)
	.cfi_endproc
.LFE1469:
	.fnend
	.size	_Z13WriteAllBytesPcPhi, .-_Z13WriteAllBytesPcPhi
	.section	.text._Z12ReadAllBytesPcPi,"ax",%progbits
	.align	1
	.global	_Z12ReadAllBytesPcPi
	.code	16
	.thumb_func
	.type	_Z12ReadAllBytesPcPi, %function
_Z12ReadAllBytesPcPi:
	.fnstart
.LFB1470:
	.loc 1 124 0
	.cfi_startproc
.LVL51:
	push	{r4, r5, r6, lr}
	.save {r4, r5, r6, lr}
	.cfi_def_cfa_offset 16
	.cfi_offset 4, -16
	.cfi_offset 5, -12
	.cfi_offset 6, -8
	.cfi_offset 14, -4
	.loc 1 124 0
	mov	r5, r1
.LBB156:
	.loc 1 125 0
	ldr	r1, .L40
.LVL52:
.LPIC12:
	add	r1, pc
	bl	fopen
.LVL53:
	sub	r4, r0, #0
.LVL54:
.LBB157:
	.loc 1 127 0
	beq	.L37
.LBB158:
	.loc 1 128 0
	mov	r1, #0
	mov	r2, #2
	bl	fseek
.LVL55:
	.loc 1 129 0
	mov	r0, r4
	bl	ftell
.LVL56:
	.loc 1 131 0
	mov	r1, #0
	.loc 1 129 0
	mov	r6, r0
.LVL57:
	.loc 1 130 0
	str	r0, [r5]
	.loc 1 131 0
	mov	r2, r1
	mov	r0, r4
.LVL58:
	bl	fseek
.LVL59:
	.loc 1 133 0
	mov	r0, r6
	bl	malloc
.LVL60:
	sub	r5, r0, #0
.LVL61:
	.loc 1 134 0
	beq	.L37
	.loc 1 135 0
	mov	r1, r6
	mov	r2, #1
	mov	r3, r4
	bl	fread
.LVL62:
	.loc 1 136 0
	mov	r0, r4
	bl	fclose
.LVL63:
	.loc 1 137 0
	mov	r0, r5
.LVL64:
.L37:
.LBE158:
.LBE157:
.LBE156:
	.loc 1 141 0
	@ sp needed
.LVL65:
	pop	{r4, r5, r6, pc}
.L41:
	.align	2
.L40:
	.word	.LC8-(.LPIC12+4)
	.cfi_endproc
.LFE1470:
	.fnend
	.size	_Z12ReadAllBytesPcPi, .-_Z12ReadAllBytesPcPi
	.section	.text._Z9_ReadFilePKc,"ax",%progbits
	.align	1
	.global	_Z9_ReadFilePKc
	.code	16
	.thumb_func
	.type	_Z9_ReadFilePKc, %function
_Z9_ReadFilePKc:
	.fnstart
.LFB1471:
	.loc 1 144 0
	.cfi_startproc
.LVL66:
	push	{r4, r5, r6, r7, lr}
	.save {r4, r5, r6, r7, lr}
	.cfi_def_cfa_offset 20
	.cfi_offset 4, -20
	.cfi_offset 5, -16
	.cfi_offset 6, -12
	.cfi_offset 7, -8
	.cfi_offset 14, -4
	ldr	r5, .L67
	mov	r4, r0
.LPIC24:
	add	r5, pc
	ldr	r5, [r5]
.LBB219:
	.loc 1 146 0
	mov	r0, r1
.LVL67:
	ldr	r1, .L67+4
.LVL68:
.LBE219:
	.loc 1 144 0
	ldr	r3, [r5]
	.pad #28
	sub	sp, sp, #28
	.cfi_def_cfa_offset 48
.LBB283:
	.loc 1 146 0
.LPIC22:
	add	r1, pc
.LBE283:
	.loc 1 144 0
	str	r3, [sp, #20]
.LBB284:
	.loc 1 146 0
	bl	fopen
.LVL69:
	mov	r6, r0
.LVL70:
	.loc 1 147 0
	mov	r1, #0
	mov	r2, #2
	bl	fseek
.LVL71:
	.loc 1 148 0
	mov	r0, r6
	bl	ftell
.LVL72:
	.loc 1 149 0
	mov	r1, #0
	.loc 1 148 0
	str	r0, [sp, #8]
.LVL73:
	.loc 1 149 0
	mov	r2, r1
	mov	r0, r6
.LVL74:
	bl	fseek
.LVL75:
	.loc 1 151 0
	ldr	r0, [sp, #8]
	bl	malloc
.LVL76:
	.loc 1 152 0
	mov	r3, r6
	ldr	r1, [sp, #8]
	mov	r2, #1
	.loc 1 151 0
	str	r0, [sp, #4]
.LVL77:
	.loc 1 152 0
	bl	fread
.LVL78:
	.loc 1 153 0
	mov	r0, r6
	bl	fclose
.LVL79:
.LBB220:
.LBB221:
.LBB222:
	.file 2 "D:/android-ndk-r12b/build//../sources/cxx-stl/stlport/stlport/stl/_vector.h"
	.loc 2 67 0
	mov	r3, #0
.LBE222:
.LBE221:
.LBE220:
.LBB227:
	.loc 1 158 0
	mov	r7, r3
.LBE227:
.LBB281:
.LBB226:
.LBB225:
	.loc 2 67 0
	str	r3, [r4]
	str	r3, [r4, #4]
.LVL80:
.LBB223:
.LBB224:
	.file 3 "D:/android-ndk-r12b/build//../sources/cxx-stl/stlport/stlport/stl/_alloc.h"
	.loc 3 481 0
	str	r3, [r4, #8]
.LVL81:
	str	r5, [sp, #12]
.LVL82:
.L43:
.LBE224:
.LBE223:
.LBE225:
.LBE226:
.LBE281:
.LBB282:
	.loc 1 158 0 discriminator 1
	ldr	r3, [sp, #8]
	cmp	r7, r3
	bge	.L66
.LVL83:
.LBB228:
.LBB229:
	.loc 2 380 0
	ldr	r6, [r4, #4]
	ldr	r3, [r4, #8]
	cmp	r6, r3
	beq	.L44
	ldr	r3, [sp, #4]
	ldrb	r3, [r3, r7]
.LVL84:
.LBB230:
.LBB231:
.LBB232:
	.file 4 "D:/android-ndk-r12b/build//../sources/cxx-stl/stlport/stlport/stl/_construct.h"
	.loc 4 126 0
	strb	r3, [r6]
.LBE232:
.LBE231:
.LBE230:
	.loc 2 382 0
	ldr	r3, [r4, #4]
	add	r3, r3, #1
	str	r3, [r4, #4]
	b	.L45
.LVL85:
.L44:
.LBB233:
.LBB234:
.LBB235:
.LBB236:
.LBB237:
.LBB238:
.LBB239:
	.loc 2 192 0
	ldr	r3, [r4]
	sub	r3, r6, r3
.LVL86:
.LBE239:
.LBE238:
	.loc 2 173 0
	add	r2, r3, #1
	bne	.L46
.LVL87:
.LBB240:
.LBB241:
	.file 5 "D:/android-ndk-r12b/build//../sources/cxx-stl/stlport/stlport/stl/_vector.c"
	.loc 5 41 0
	ldr	r0, .L67+8
.LPIC23:
	add	r0, pc
	bl	_ZSt24__stl_throw_length_errorPKc
.LVL88:
.L46:
	mov	r5, #1
	cmp	r3, #0
	beq	.L65
.LBE241:
.LBE240:
	.loc 2 175 0
	lsl	r5, r3, #1
.LVL89:
	.loc 2 176 0 discriminator 2
	cmp	r5, r3
	bcc	.L57
.LVL90:
.L65:
.LBE237:
.LBE236:
.LBB243:
.LBB244:
.LBB245:
.LBB246:
.LBB247:
	.loc 3 356 0
	mov	r3, #0
.LVL91:
	str	r3, [sp]
.LBB248:
	.loc 3 346 0
	cmp	r5, r3
	bne	.L48
	b	.L49
.LVL92:
.L57:
.LBE248:
.LBE247:
.LBE246:
.LBE245:
.LBE244:
.LBE243:
.LBB259:
.LBB242:
	.loc 2 177 0
	mov	r5, #1
.LVL93:
	neg	r5, r5
.LVL94:
.L48:
.LBE242:
.LBE259:
.LBB260:
.LBB258:
.LBB257:
.LBB256:
.LBB255:
.LBB254:
.LBB249:
	.loc 3 347 0
	str	r5, [sp, #16]
.LVL95:
.LBB250:
.LBB251:
	.loc 3 158 0
	cmp	r5, #128
	bls	.L50
.LVL96:
.LBB252:
.LBB253:
	.file 6 "D:/android-ndk-r12b/build//../sources/cxx-stl/stlport/stlport/stl/_new.h"
	.loc 6 134 0
	mov	r0, r5
	bl	_Znwj
.LVL97:
	b	.L51
.LVL98:
.L50:
.LBE253:
.LBE252:
	.loc 3 158 0 discriminator 4
	add	r0, sp, #16
.LVL99:
	bl	_ZNSt12__node_alloc11_M_allocateERj
.LVL100:
.L51:
.LBE251:
.LBE250:
	.loc 3 352 0
	ldr	r5, [sp, #16]
.LVL101:
	.loc 3 353 0
	str	r0, [sp]
.LVL102:
.L49:
.LBE249:
.LBE254:
.LBE255:
.LBE256:
.LBE257:
.LBE258:
.LBE260:
	.loc 5 112 0
	ldr	r1, [r4]
.LVL103:
.LBB261:
.LBB262:
	.file 7 "D:/android-ndk-r12b/build//../sources/cxx-stl/stlport/stlport/stl/_algobase.h"
	.loc 7 224 0
	ldr	r0, [sp]
	.loc 7 223 0
	sub	r6, r6, r1
.LVL104:
	.loc 7 224 0
	beq	.L52
	.loc 7 224 0 is_stmt 0 discriminator 2
	mov	r2, r6
	bl	memmove
.LVL105:
	.loc 7 224 0 discriminator 1
	add	r0, r0, r6
.L52:
.LVL106:
.LBE262:
.LBE261:
.LBB263:
.LBB264:
.LBB265:
.LBB266:
	.loc 7 460 0 is_stmt 1
	ldr	r3, [sp, #4]
.LBE266:
.LBE265:
	.loc 7 489 0
	add	r6, r0, #1
.LVL107:
.LBB268:
.LBB267:
	.loc 7 460 0
	ldrb	r3, [r3, r7]
.LVL108:
	strb	r3, [r0]
.LVL109:
	ldr	r0, [r4]
.LVL110:
.LBE267:
.LBE268:
.LBE264:
.LBE263:
.LBB269:
.LBB270:
	.loc 2 657 0
	ldr	r3, [r4, #8]
.LVL111:
	sub	r1, r3, r0
.LVL112:
.LBB271:
.LBB272:
	.loc 3 319 0
	cmp	r0, #0
	beq	.L53
.LVL113:
.LBB273:
.LBB274:
	.loc 3 161 0
	cmp	r1, #128
	bls	.L54
.LVL114:
.LBB275:
.LBB276:
	.loc 6 135 0
	bl	_ZdlPv
.LVL115:
	b	.L53
.LVL116:
.L54:
.LBE276:
.LBE275:
	.loc 3 161 0 discriminator 4
	bl	_ZNSt12__node_alloc13_M_deallocateEPvj
.LVL117:
.L53:
.LBE274:
.LBE273:
.LBE272:
.LBE271:
.LBE270:
.LBE269:
.LBB277:
.LBB278:
	.loc 2 666 0
	ldr	r3, [sp]
	.loc 2 667 0
	str	r6, [r4, #4]
.LBE278:
.LBE277:
	.loc 5 118 0
	add	r5, r3, r5
.LVL118:
.LBB280:
.LBB279:
	.loc 2 666 0
	str	r3, [r4]
	.loc 2 668 0
	str	r5, [r4, #8]
.LVL119:
.L45:
.LBE279:
.LBE280:
.LBE235:
.LBE234:
.LBE233:
.LBE229:
.LBE228:
	.loc 1 158 0 discriminator 3
	add	r7, r7, #1
.LVL120:
	b	.L43
.LVL121:
.L66:
.LBE282:
	.loc 1 161 0
	ldr	r0, [sp, #4]
	bl	free
.LVL122:
.LBE284:
	.loc 1 163 0
	ldr	r3, [sp, #12]
	ldr	r2, [sp, #20]
	mov	r0, r4
	ldr	r3, [r3]
	cmp	r2, r3
	beq	.L56
.LVL123:
	bl	__stack_chk_fail
.LVL124:
.L56:
	add	sp, sp, #28
	@ sp needed
.LVL125:
	pop	{r4, r5, r6, r7, pc}
.L68:
	.align	2
.L67:
	.word	__stack_chk_guard(GOT_PREL)+(.-(.LPIC24+4))
	.word	.LC8-(.LPIC22+4)
	.word	.LC9-(.LPIC23+4)
	.cfi_endproc
.LFE1471:
	.fnend
	.size	_Z9_ReadFilePKc, .-_Z9_ReadFilePKc
	.global	_branchToAddressCmd
	.section	.rodata.str1.1,"aMS",%progbits,1
.LC0:
	.ascii	"/proc/%d/maps\000"
.LC1:
	.ascii	"r\000"
.LC2:
	.ascii	"%s %s %s\000"
.LC3:
	.ascii	"/dev\000"
.LC4:
	.ascii	"liblog.so\000"
.LC5:
	.ascii	"freespaceaddr: found at\000"
.LC6:
	.ascii	"%s\000"
.LC7:
	.ascii	"wb\000"
.LC8:
	.ascii	"rb\000"
.LC9:
	.ascii	"vector\000"
	.data
	.align	2
	.type	_branchToAddressCmd, %object
	.size	_branchToAddressCmd, 12
_branchToAddressCmd:
	.byte	0
	.byte	-64
	.byte	-97
	.byte	-27
	.byte	28
	.byte	-1
	.byte	47
	.byte	-31
	.byte	17
	.byte	34
	.byte	51
	.byte	68
	.text
.Letext0:
	.file 8 "D:/android-ndk-r12b/build//../sources/cxx-stl/stlport/stlport/stl/_cstddef.h"
	.file 9 "D:/android-ndk-r12b/build//../sources/cxx-stl/stlport/stlport/stl/_cstdlib.h"
	.file 10 "D:/android-ndk-r12b/build//../sources/cxx-stl/stlport/stlport/stl/_cmath.h"
	.file 11 "D:/android-ndk-r12b/build//../sources/cxx-stl/stlport/stlport/using/cstring"
	.file 12 "D:/android-ndk-r12b/build//../sources/cxx-stl/stlport/stlport/stl/type_manips.h"
	.file 13 "D:/android-ndk-r12b/build//../sources/cxx-stl/stlport/stlport/stl/_limits.h"
	.file 14 "D:/android-ndk-r12b/build//../sources/cxx-stl/stlport/stlport/stl/type_traits.h"
	.file 15 "D:/android-ndk-r12b/build//../sources/cxx-stl/stlport/stlport/stl/_iterator_base.h"
	.file 16 "D:/android-ndk-r12b/build//../sources/cxx-stl/stlport/stlport/../../gabi++/include/cstddef"
	.file 17 "D:/android-ndk-r12b/build//../sources/cxx-stl/stlport/stlport/stl/_cstdio.h"
	.file 18 "D:/android-ndk-r12b/build//../sources/cxx-stl/stlport/stlport/stl/_cwchar.h"
	.file 19 "D:/android-ndk-r12b/build//../sources/cxx-stl/stlport/stlport/stl/_threads.h"
	.file 20 "D:/android-ndk-r12b/build//../sources/cxx-stl/stlport/stlport/stl/_ctime.h"
	.file 21 "D:/android-ndk-r12b/build//../sources/cxx-stl/stlport/stlport/stl/_move_construct_fwk.h"
	.file 22 "D:/android-ndk-r12b/build//../sources/cxx-stl/stlport/stlport/stl/_iterator.h"
	.file 23 "D:/android-ndk-r12b/build//../sources/cxx-stl/stlport/stlport/stl/config/features.h"
	.file 24 "d:\\android-ndk-r12b\\toolchains\\arm-linux-androideabi-4.9\\prebuilt\\windows-x86_64\\lib\\gcc\\arm-linux-androideabi\\4.9.x\\include\\stddef.h"
	.file 25 "<built-in>"
	.file 26 "d:\\android-ndk-r12b\\platforms\\android-9\\arch-arm\\usr\\include\\asm\\posix_types.h"
	.file 27 "d:\\android-ndk-r12b\\platforms\\android-9\\arch-arm\\usr\\include\\sys\\types.h"
	.file 28 "d:\\android-ndk-r12b\\toolchains\\arm-linux-androideabi-4.9\\prebuilt\\windows-x86_64\\lib\\gcc\\arm-linux-androideabi\\4.9.x\\include\\stdarg.h"
	.file 29 "d:\\android-ndk-r12b\\platforms\\android-9\\arch-arm\\usr\\include\\stdio.h"
	.file 30 "d:\\android-ndk-r12b\\platforms\\android-9\\arch-arm\\usr\\include\\stdlib.h"
	.file 31 "D:/android-ndk-r12b/build//../sources/cxx-stl/stlport/stlport/stl/_range_errors.h"
	.file 32 "d:\\android-ndk-r12b\\platforms\\android-9\\arch-arm\\usr\\include\\string.h"
	.file 33 "d:\\android-ndk-r12b\\platforms\\android-9\\arch-arm\\usr\\include\\time.h"
	.file 34 "d:\\android-ndk-r12b\\platforms\\android-9\\arch-arm\\usr\\include\\wchar.h"
	.file 35 "d:\\android-ndk-r12b\\platforms\\android-9\\arch-arm\\usr\\include\\pthread.h"
	.file 36 "d:\\android-ndk-r12b\\platforms\\android-9\\arch-arm\\usr\\include\\malloc.h"
	.file 37 "d:\\android-ndk-r12b\\platforms\\android-9\\arch-arm\\usr\\include\\sys\\mman.h"
	.file 38 "D:/android-ndk-r12b/build//../sources/cxx-stl/stlport/stlport/../../gabi++/include/new"
	.file 39 "D:/android-ndk-r12b/build//../sources/cxx-stl/stlport/stlport/stl/_threads.c"
	.section	.note.GNU-stack,"",%progbits
