	.arch armv5te
	.fpu softvfp
	.eabi_attribute 20, 1
	.eabi_attribute 21, 1
	.eabi_attribute 23, 3
	.eabi_attribute 24, 1
	.eabi_attribute 25, 1
	.eabi_attribute 26, 2
	.eabi_attribute 30, 4
	.eabi_attribute 34, 0
	.eabi_attribute 18, 4
	.code	16
	.file	"util.cpp"
	.text
.Ltext0:
	.cfi_sections	.debug_frame
	.section	.text._ZNSt12__node_alloc8allocateERj,"axG",%progbits,_ZNSt12__node_alloc8allocateERj,comdat
	.align	1
	.weak	_ZNSt12__node_alloc8allocateERj
	.code	16
	.thumb_func
	.type	_ZNSt12__node_alloc8allocateERj, %function
_ZNSt12__node_alloc8allocateERj:
	.fnstart
.LFB320:
	.file 1 "D:/android-ndk-r12b/build//../sources/cxx-stl/stlport/stlport/stl/_alloc.h"
	.loc 1 157 0
	.cfi_startproc
.LVL0:
	push	{r3, lr}
	.save {r3, lr}
	.cfi_def_cfa_offset 8
	.cfi_offset 3, -8
	.cfi_offset 14, -4
	.loc 1 158 0
	ldr	r3, [r0]
	cmp	r3, #128
	bls	.L2
.LVL1:
.LBB1200:
.LBB1201:
	.file 2 "D:/android-ndk-r12b/build//../sources/cxx-stl/stlport/stlport/stl/_new.h"
	.loc 2 134 0
	mov	r0, r3
.LVL2:
	bl	_Znwj
.LVL3:
.LBE1201:
.LBE1200:
	b	.L3
.LVL4:
.L2:
	.loc 1 158 0 discriminator 4
	bl	_ZNSt12__node_alloc11_M_allocateERj
.LVL5:
.L3:
	.loc 1 158 0 is_stmt 0
	@ sp needed
	pop	{r3, pc}
	.cfi_endproc
.LFE320:
	.fnend
	.size	_ZNSt12__node_alloc8allocateERj, .-_ZNSt12__node_alloc8allocateERj
	.section	.text._ZNSt12__node_alloc10deallocateEPvj,"axG",%progbits,_ZNSt12__node_alloc10deallocateEPvj,comdat
	.align	1
	.weak	_ZNSt12__node_alloc10deallocateEPvj
	.code	16
	.thumb_func
	.type	_ZNSt12__node_alloc10deallocateEPvj, %function
_ZNSt12__node_alloc10deallocateEPvj:
	.fnstart
.LFB321:
	.loc 1 160 0 is_stmt 1
	.cfi_startproc
.LVL6:
	push	{r3, lr}
	.save {r3, lr}
	.cfi_def_cfa_offset 8
	.cfi_offset 3, -8
	.cfi_offset 14, -4
	.loc 1 161 0
	cmp	r1, #128
	bls	.L6
.LVL7:
.LBB1202:
.LBB1203:
	.loc 2 135 0
	bl	_ZdlPv
.LVL8:
	b	.L5
.LVL9:
.L6:
.LBE1203:
.LBE1202:
	.loc 1 161 0 discriminator 4
	bl	_ZNSt12__node_alloc13_M_deallocateEPvj
.LVL10:
.L5:
	.loc 1 161 0 is_stmt 0
	@ sp needed
	pop	{r3, pc}
	.cfi_endproc
.LFE321:
	.fnend
	.size	_ZNSt12__node_alloc10deallocateEPvj, .-_ZNSt12__node_alloc10deallocateEPvj
	.section	.text._Z8ReadFilePKc,"ax",%progbits
	.align	1
	.global	_Z8ReadFilePKc
	.code	16
	.thumb_func
	.type	_Z8ReadFilePKc, %function
_Z8ReadFilePKc:
	.fnstart
.LFB1581:
	.file 3 "jni/tracer/../util/util.cpp"
	.loc 3 157 0 is_stmt 1
	.cfi_startproc
.LVL11:
	push	{r4, r5, r6, r7, lr}
	.save {r4, r5, r6, r7, lr}
	.cfi_def_cfa_offset 20
	.cfi_offset 4, -20
	.cfi_offset 5, -16
	.cfi_offset 6, -12
	.cfi_offset 7, -8
	.cfi_offset 14, -4
	ldr	r5, .L30
	mov	r4, r0
.LPIC13:
	add	r5, pc
	ldr	r5, [r5]
	mov	r7, r1
.LBB1256:
	.loc 3 159 0
	mov	r0, r1
.LVL12:
	ldr	r1, .L30+4
.LVL13:
.LBE1256:
	.loc 3 157 0
	ldr	r3, [r5]
	.pad #36
	sub	sp, sp, #36
	.cfi_def_cfa_offset 56
.LBB1308:
	.loc 3 159 0
.LPIC9:
	add	r1, pc
.LBE1308:
	.loc 3 157 0
	str	r3, [sp, #28]
.LBB1309:
	.loc 3 159 0
	bl	fopen
.LVL14:
	mov	r6, r0
.LVL15:
	.loc 3 160 0
	mov	r1, #0
	mov	r2, #2
	bl	fseek
.LVL16:
	.loc 3 161 0
	mov	r0, r6
	bl	ftell
.LVL17:
	.loc 3 162 0
	mov	r1, #0
	.loc 3 161 0
	str	r0, [sp, #12]
.LVL18:
	.loc 3 162 0
	mov	r2, r1
	mov	r0, r6
.LVL19:
	bl	fseek
.LVL20:
	.loc 3 164 0
	ldr	r0, [sp, #12]
	bl	malloc
.LVL21:
	.loc 3 165 0
	ldr	r1, [sp, #12]
	mov	r2, #1
	mov	r3, r6
	.loc 3 164 0
	str	r0, [sp, #16]
.LVL22:
	.loc 3 165 0
	bl	fread
.LVL23:
	.loc 3 166 0
	mov	r0, r6
	bl	fclose
.LVL24:
	.loc 3 168 0
	ldr	r3, [sp, #12]
	ldr	r1, .L30+8
	ldr	r2, .L30+12
	str	r3, [sp]
	mov	r0, #3
	mov	r3, r7
.LPIC10:
	add	r1, pc
.LPIC11:
	add	r2, pc
	bl	__android_log_print
.LVL25:
.LBB1257:
.LBB1258:
.LBB1259:
	.file 4 "D:/android-ndk-r12b/build//../sources/cxx-stl/stlport/stlport/stl/_vector.h"
	.loc 4 67 0
	mov	r3, #0
	str	r5, [sp, #20]
	str	r3, [r4]
	str	r3, [r4, #4]
.LVL26:
.LBB1260:
.LBB1261:
	.loc 1 481 0
	str	r3, [r4, #8]
.LVL27:
.LBE1261:
.LBE1260:
.LBE1259:
.LBE1258:
.LBE1257:
.LBB1262:
	.loc 3 171 0
	str	r3, [sp, #8]
.LVL28:
.L9:
	.loc 3 171 0 is_stmt 0 discriminator 1
	ldr	r3, [sp, #8]
	ldr	r2, [sp, #12]
	cmp	r3, r2
	bge	.L29
.LVL29:
.LBB1263:
.LBB1264:
	.loc 4 380 0 is_stmt 1
	ldr	r6, [r4, #4]
	ldr	r3, [r4, #8]
	cmp	r6, r3
	beq	.L10
	ldr	r3, [sp, #16]
	ldr	r2, [sp, #8]
	ldrb	r3, [r3, r2]
.LVL30:
.LBB1265:
.LBB1266:
.LBB1267:
	.file 5 "D:/android-ndk-r12b/build//../sources/cxx-stl/stlport/stlport/stl/_construct.h"
	.loc 5 126 0
	strb	r3, [r6]
.LBE1267:
.LBE1266:
.LBE1265:
	.loc 4 382 0
	ldr	r3, [r4, #4]
	add	r3, r3, #1
	str	r3, [r4, #4]
	b	.L11
.LVL31:
.L10:
.LBB1268:
.LBB1269:
.LBB1270:
.LBB1271:
.LBB1272:
.LBB1273:
.LBB1274:
	.loc 4 192 0
	ldr	r3, [r4]
	sub	r3, r6, r3
.LVL32:
.LBE1274:
.LBE1273:
	.loc 4 173 0
	add	r2, r3, #1
	bne	.L12
.LVL33:
.LBB1275:
.LBB1276:
	.file 6 "D:/android-ndk-r12b/build//../sources/cxx-stl/stlport/stlport/stl/_vector.c"
	.loc 6 41 0
	ldr	r0, .L30+16
.LPIC12:
	add	r0, pc
	bl	_ZSt24__stl_throw_length_errorPKc
.LVL34:
.L12:
	mov	r5, #1
	cmp	r3, #0
	beq	.L28
.LBE1276:
.LBE1275:
	.loc 4 175 0
	lsl	r5, r3, #1
.LVL35:
	.loc 4 176 0 discriminator 2
	cmp	r5, r3
	bcc	.L20
.LVL36:
.L28:
.LBE1272:
.LBE1271:
.LBB1278:
.LBB1279:
.LBB1280:
.LBB1281:
.LBB1282:
	.loc 1 356 0
	mov	r7, #0
.LBB1283:
	.loc 1 346 0
	cmp	r5, r7
	bne	.L14
	b	.L15
.LVL37:
.L20:
.LBE1283:
.LBE1282:
.LBE1281:
.LBE1280:
.LBE1279:
.LBE1278:
.LBB1290:
.LBB1277:
	.loc 4 177 0
	mov	r5, #1
.LVL38:
	neg	r5, r5
.LVL39:
.L14:
.LBE1277:
.LBE1290:
.LBB1291:
.LBB1289:
.LBB1288:
.LBB1287:
.LBB1286:
.LBB1285:
.LBB1284:
	.loc 1 348 0
	add	r0, sp, #24
	.loc 1 347 0
	str	r5, [sp, #24]
	.loc 1 348 0
	bl	_ZNSt12__node_alloc8allocateERj
.LVL40:
	.loc 1 353 0
	mov	r7, r0
	.loc 1 352 0
	ldr	r5, [sp, #24]
.LVL41:
.L15:
.LBE1284:
.LBE1285:
.LBE1286:
.LBE1287:
.LBE1288:
.LBE1289:
.LBE1291:
	.loc 6 112 0
	ldr	r1, [r4]
.LVL42:
.LBB1292:
.LBB1293:
	.file 7 "D:/android-ndk-r12b/build//../sources/cxx-stl/stlport/stlport/stl/_algobase.h"
	.loc 7 224 0
	mov	r0, r7
	.loc 7 223 0
	sub	r6, r6, r1
.LVL43:
	.loc 7 224 0
	beq	.L16
	.loc 7 224 0 is_stmt 0 discriminator 2
	mov	r2, r6
	bl	memmove
.LVL44:
	.loc 7 224 0 discriminator 1
	add	r0, r0, r6
.L16:
.LVL45:
.LBE1293:
.LBE1292:
.LBB1294:
.LBB1295:
.LBB1296:
.LBB1297:
	.loc 7 460 0 is_stmt 1
	ldr	r3, [sp, #16]
	ldr	r2, [sp, #8]
.LBE1297:
.LBE1296:
	.loc 7 489 0
	add	r6, r0, #1
.LVL46:
.LBB1299:
.LBB1298:
	.loc 7 460 0
	ldrb	r3, [r3, r2]
.LVL47:
	strb	r3, [r0]
.LVL48:
	ldr	r0, [r4]
.LVL49:
.LBE1298:
.LBE1299:
.LBE1295:
.LBE1294:
.LBB1300:
.LBB1301:
	.loc 4 657 0
	ldr	r3, [r4, #8]
.LVL50:
	sub	r1, r3, r0
.LVL51:
.LBB1302:
.LBB1303:
	.loc 1 319 0
	cmp	r0, #0
	beq	.L17
	.loc 1 323 0
	bl	_ZNSt12__node_alloc10deallocateEPvj
.LVL52:
.L17:
.LBE1303:
.LBE1302:
.LBE1301:
.LBE1300:
.LBB1304:
.LBB1305:
	.loc 4 666 0
	str	r7, [r4]
.LBE1305:
.LBE1304:
	.loc 6 118 0
	add	r7, r7, r5
.LVL53:
.LBB1307:
.LBB1306:
	.loc 4 667 0
	str	r6, [r4, #4]
	.loc 4 668 0
	str	r7, [r4, #8]
.LVL54:
.L11:
.LBE1306:
.LBE1307:
.LBE1270:
.LBE1269:
.LBE1268:
.LBE1264:
.LBE1263:
	.loc 3 171 0 discriminator 3
	ldr	r3, [sp, #8]
	add	r3, r3, #1
	str	r3, [sp, #8]
.LVL55:
	b	.L9
.LVL56:
.L29:
.LBE1262:
	.loc 3 174 0
	ldr	r0, [sp, #16]
	bl	free
.LVL57:
.LBE1309:
	.loc 3 176 0
	ldr	r3, [sp, #20]
	ldr	r2, [sp, #28]
	mov	r0, r4
	ldr	r3, [r3]
	cmp	r2, r3
	beq	.L19
.LVL58:
	bl	__stack_chk_fail
.LVL59:
.L19:
	add	sp, sp, #36
	@ sp needed
	pop	{r4, r5, r6, r7, pc}
.L31:
	.align	2
.L30:
	.word	__stack_chk_guard(GOT_PREL)+(.-(.LPIC13+4))
	.word	.LC0-(.LPIC9+4)
	.word	.LC1-(.LPIC10+4)
	.word	.LC2-(.LPIC11+4)
	.word	.LC3-(.LPIC12+4)
	.cfi_endproc
.LFE1581:
	.fnend
	.size	_Z8ReadFilePKc, .-_Z8ReadFilePKc
	.section	.text.GetFuncAddress,"ax",%progbits
	.align	1
	.global	GetFuncAddress
	.code	16
	.thumb_func
	.type	GetFuncAddress, %function
GetFuncAddress:
	.fnstart
.LFB1584:
	.loc 3 225 0
	.cfi_startproc
.LVL60:
	push	{r0, r1, r2, r4, r5, r6, r7, lr}
	.save {r0, r1, r2, r4, r5, r6, r7, lr}
	.cfi_def_cfa_offset 32
	.cfi_offset 0, -32
	.cfi_offset 1, -28
	.cfi_offset 2, -24
	.cfi_offset 4, -20
	.cfi_offset 5, -16
	.cfi_offset 6, -12
	.cfi_offset 7, -8
	.cfi_offset 14, -4
	.loc 3 225 0
	mov	r4, r0
.LVL61:
.LBB1314:
	.loc 3 227 0
	ldr	r6, .L37
	ldr	r2, .L37+4
	str	r1, [sp]
.LPIC14:
	add	r6, pc
.LPIC15:
	add	r2, pc
	mov	r3, r4
.LBE1314:
	.loc 3 225 0
	mov	r7, r1
.LBB1315:
	.loc 3 227 0
	mov	r0, #3
.LVL62:
	mov	r1, r6
.LVL63:
	bl	__android_log_print
.LVL64:
	.loc 3 228 0
	mov	r0, r4
	mov	r1, #0
	bl	dlopen
.LVL65:
	sub	r5, r0, #0
.LVL66:
	.loc 3 229 0
	beq	.L33
	.loc 3 230 0
	mov	r1, r7
	bl	dlsym
.LVL67:
	sub	r4, r0, #0
.LVL68:
	.loc 3 231 0
	beq	.L34
	.loc 3 232 0
	ldr	r2, .L37+8
	str	r0, [sp]
	mov	r1, r6
.LPIC17:
	add	r2, pc
	mov	r3, r7
	mov	r0, #3
.LVL69:
	bl	__android_log_print
.LVL70:
	b	.L35
.LVL71:
.L34:
	.loc 3 234 0
	ldr	r2, .L37+12
	mov	r0, #3
.LVL72:
	mov	r1, r6
.LPIC19:
	add	r2, pc
	mov	r3, r7
	bl	__android_log_print
.LVL73:
.L35:
	.loc 3 236 0
	mov	r0, r5
	bl	dlclose
.LVL74:
	b	.L36
.LVL75:
.L33:
.LBE1315:
.LBB1316:
.LBB1317:
	.loc 3 238 0
	ldr	r2, .L37+16
	mov	r3, r4
	mov	r0, #3
.LVL76:
	mov	r1, r6
.LPIC21:
	add	r2, pc
	bl	__android_log_print
.LVL77:
	mov	r4, r5
.LVL78:
.L36:
.LBE1317:
.LBE1316:
	.loc 3 241 0
	mov	r0, r4
	@ sp needed
.LVL79:
.LVL80:
.LVL81:
	pop	{r1, r2, r3, r4, r5, r6, r7, pc}
.L38:
	.align	2
.L37:
	.word	.LC1-(.LPIC14+4)
	.word	.LC4-(.LPIC15+4)
	.word	.LC5-(.LPIC17+4)
	.word	.LC6-(.LPIC19+4)
	.word	.LC7-(.LPIC21+4)
	.cfi_endproc
.LFE1584:
	.fnend
	.size	GetFuncAddress, .-GetFuncAddress
	.section	.text.FindProcessByName,"ax",%progbits
	.align	1
	.global	FindProcessByName
	.code	16
	.thumb_func
	.type	FindProcessByName, %function
FindProcessByName:
	.fnstart
.LFB1592:
	.loc 3 381 0
	.cfi_startproc
.LVL82:
	push	{r4, r5, r6, r7, lr}
	.save {r4, r5, r6, r7, lr}
	.cfi_def_cfa_offset 20
	.cfi_offset 4, -20
	.cfi_offset 5, -16
	.cfi_offset 6, -12
	.cfi_offset 7, -8
	.cfi_offset 14, -4
	ldr	r4, .L50
	mov	r6, r1
	.pad #2124
	add	sp, sp, r4
	.cfi_def_cfa_offset 2144
	ldr	r4, .L50+4
	.loc 3 381 0
	ldr	r1, .L50+8
.LVL83:
.LBB1318:
	.loc 3 386 0
	add	r5, sp, #68
.LPIC28:
	add	r4, pc
.LBE1318:
	.loc 3 381 0
	ldr	r4, [r4]
	add	r1, r1, sp
	mov	r2, r0
	ldr	r3, [r4]
.LBB1323:
	.loc 3 386 0
	mov	r0, r5
.LVL84:
.LBE1323:
	.loc 3 381 0
	str	r3, [r1]
.LBB1324:
	.loc 3 382 0
	mov	r3, #0
	.loc 3 386 0
	ldr	r1, .L50+12
	.loc 3 382 0
	str	r3, [sp]
	.loc 3 386 0
.LPIC23:
	add	r1, pc
	bl	sprintf
.LVL85:
	.loc 3 387 0
	ldr	r1, .L50+16
	mov	r0, r5
.LPIC24:
	add	r1, pc
	bl	popen
.LVL86:
	sub	r5, r0, #0
.LVL87:
	bne	.L48
	.loc 3 388 0
	mov	r0, #1
.LVL88:
	bl	exit
.LVL89:
.L44:
.LBB1319:
	.loc 3 391 0
	cmp	r6, #0
	beq	.L41
	.loc 3 392 0
	mov	r0, r7
	mov	r1, r6
	bl	strstr
.LVL90:
	cmp	r0, #0
	bne	.L41
	.loc 3 393 0
	ldr	r0, .L50+20
	mov	r1, r7
.LPIC25:
	add	r0, pc
	bl	printf
.LVL91:
.L48:
.LBE1319:
	.loc 3 390 0
	mov	r1, #128
	add	r7, sp, #1020
	add	r7, r7, #72
	mov	r0, r7
	lsl	r1, r1, #3
	mov	r2, r5
	bl	fgets
.LVL92:
	cmp	r0, #0
	bne	.L44
	b	.L43
.L41:
.LBB1322:
	.loc 3 397 0
	ldr	r0, .L50+24
	mov	r1, r7
.LPIC26:
	add	r0, pc
	bl	printf
.LVL93:
.LBB1320:
	.loc 3 398 0
	ldr	r3, [sp]
	cmp	r3, #0
	bne	.L48
.LBB1321:
	.loc 3 400 0
	ldr	r1, .L50+28
	mov	r0, r7
.LPIC27:
	add	r1, pc
	add	r2, sp, #4
	mov	r3, sp
	bl	sscanf
.LVL94:
.L43:
.LBE1321:
.LBE1320:
.LBE1322:
	.loc 3 405 0
	mov	r0, r5
	bl	pclose
.LVL95:
.LBE1324:
	.loc 3 407 0
	ldr	r3, .L50+8
	ldr	r0, [sp]
	add	r3, r3, sp
	ldr	r2, [r3]
	ldr	r3, [r4]
	cmp	r2, r3
	beq	.L45
	bl	__stack_chk_fail
.LVL96:
.L45:
	ldr	r3, .L50+32
	add	sp, sp, r3
	@ sp needed
.LVL97:
.LVL98:
	pop	{r4, r5, r6, r7, pc}
.L51:
	.align	2
.L50:
	.word	-2124
	.word	__stack_chk_guard(GOT_PREL)+(.-(.LPIC28+4))
	.word	2116
	.word	.LC8-(.LPIC23+4)
	.word	.LC9-(.LPIC24+4)
	.word	.LC10-(.LPIC25+4)
	.word	.LC11-(.LPIC26+4)
	.word	.LC12-(.LPIC27+4)
	.word	2124
	.cfi_endproc
.LFE1592:
	.fnend
	.size	FindProcessByName, .-FindProcessByName
	.section	.text.Test,"ax",%progbits
	.align	1
	.global	Test
	.code	16
	.thumb_func
	.type	Test, %function
Test:
	.fnstart
.LFB1593:
	.loc 3 410 0
	.cfi_startproc
	push	{r4, lr}
	.save {r4, lr}
	.cfi_def_cfa_offset 8
	.cfi_offset 4, -8
	.cfi_offset 14, -4
	.loc 3 412 0
	ldr	r3, .L53
	ldr	r4, .L53+4
	ldr	r2, .L53+8
.LPIC39:
	add	r3, pc
.LPIC29:
	add	r4, pc
	mov	r1, r4
	ldr	r3, [r3]
.LPIC30:
	add	r2, pc
	mov	r0, #3
	bl	__android_log_print
.LVL99:
	.loc 3 413 0
	ldr	r3, .L53+12
	ldr	r2, .L53+16
	mov	r1, r4
.LPIC38:
	add	r3, pc
	ldr	r3, [r3]
.LPIC33:
	add	r2, pc
	mov	r0, #3
	bl	__android_log_print
.LVL100:
	.loc 3 414 0
	bl	getpid
.LVL101:
	.loc 3 414 0 is_stmt 0 discriminator 1
	ldr	r2, .L53+20
	.loc 3 414 0
	mov	r3, r0
	.loc 3 414 0 discriminator 1
	mov	r1, r4
.LPIC35:
	add	r2, pc
	mov	r0, #3
	bl	__android_log_print
.LVL102:
	.loc 3 415 0 is_stmt 1
	bl	gettid
.LVL103:
	.loc 3 415 0 is_stmt 0 discriminator 1
	ldr	r2, .L53+24
	.loc 3 415 0
	mov	r3, r0
	.loc 3 415 0 discriminator 1
	mov	r1, r4
.LPIC37:
	add	r2, pc
	mov	r0, #3
	bl	__android_log_print
.LVL104:
	.loc 3 416 0 is_stmt 1
	@ sp needed
	pop	{r4, pc}
.L54:
	.align	2
.L53:
	.word	dlopen(GOT_PREL)+(.-(.LPIC39+4))
	.word	.LC1-(.LPIC29+4)
	.word	.LC13-(.LPIC30+4)
	.word	dlsym(GOT_PREL)+(.-(.LPIC38+4))
	.word	.LC14-(.LPIC33+4)
	.word	.LC15-(.LPIC35+4)
	.word	.LC16-(.LPIC37+4)
	.cfi_endproc
.LFE1593:
	.fnend
	.size	Test, .-Test
	.section	.text._ZNSt4priv12_String_baseIcSaIcEE19_M_deallocate_blockEv,"axG",%progbits,_ZNSt4priv12_String_baseIcSaIcEE19_M_deallocate_blockEv,comdat
	.align	1
	.weak	_ZNSt4priv12_String_baseIcSaIcEE19_M_deallocate_blockEv
	.code	16
	.thumb_func
	.type	_ZNSt4priv12_String_baseIcSaIcEE19_M_deallocate_blockEv, %function
_ZNSt4priv12_String_baseIcSaIcEE19_M_deallocate_blockEv:
	.fnstart
.LFB1719:
	.file 8 "D:/android-ndk-r12b/build//../sources/cxx-stl/stlport/stlport/stl/_string_base.h"
	.loc 8 94 0
	.cfi_startproc
.LVL105:
	push	{r3, lr}
	.save {r3, lr}
	.cfi_def_cfa_offset 8
	.cfi_offset 3, -8
	.cfi_offset 14, -4
.LBB1329:
.LBB1330:
	.loc 8 64 0
	ldr	r3, [r0, #20]
.LBE1330:
.LBE1329:
	.loc 8 96 0
	cmp	r3, r0
	beq	.L55
	.loc 8 96 0 is_stmt 0 discriminator 1
	cmp	r3, #0
	beq	.L55
.LVL106:
	.loc 8 97 0 is_stmt 1
	ldr	r1, [r0]
.LBB1331:
.LBB1332:
	.loc 1 323 0
	mov	r0, r3
.LVL107:
.LBE1332:
.LBE1331:
	.loc 8 97 0
	sub	r1, r1, r3
.LVL108:
.LBB1334:
.LBB1333:
	.loc 1 323 0
	bl	_ZNSt12__node_alloc10deallocateEPvj
.LVL109:
.L55:
.LBE1333:
.LBE1334:
	.loc 8 102 0
	@ sp needed
	pop	{r3, pc}
	.cfi_endproc
.LFE1719:
	.fnend
	.size	_ZNSt4priv12_String_baseIcSaIcEE19_M_deallocate_blockEv, .-_ZNSt4priv12_String_baseIcSaIcEE19_M_deallocate_blockEv
	.section	.text._ZNSt6vectorISsSaISsEED2Ev,"axG",%progbits,_ZNSt6vectorISsSaISsEED5Ev,comdat
	.align	1
	.weak	_ZNSt6vectorISsSaISsEED2Ev
	.code	16
	.thumb_func
	.type	_ZNSt6vectorISsSaISsEED2Ev, %function
_ZNSt6vectorISsSaISsEED2Ev:
	.fnstart
.LFB1704:
	.loc 4 304 0
	.cfi_startproc
.LVL110:
	push	{r4, r5, r6, lr}
	.save {r4, r5, r6, lr}
	.cfi_def_cfa_offset 16
	.cfi_offset 4, -16
	.cfi_offset 5, -12
	.cfi_offset 6, -8
	.cfi_offset 14, -4
	.loc 4 304 0
	mov	r5, r0
	ldr	r6, [r0]
.LVL111:
	ldr	r3, [r0, #4]
.LVL112:
.L59:
.LBB1383:
.LBB1384:
.LBB1385:
.LBB1386:
.LBB1387:
	.loc 5 191 0 discriminator 1
	cmp	r6, r3
	beq	.L65
.LVL113:
	sub	r3, r3, #24
.LVL114:
	mov	r4, r3
.LBB1388:
.LBB1389:
.LBB1390:
.LBB1391:
	.loc 8 156 0
	mov	r0, r3
	bl	_ZNSt4priv12_String_baseIcSaIcEE19_M_deallocate_blockEv
.LVL115:
	mov	r3, r4
	b	.L59
.LVL116:
.L65:
.LBE1391:
.LBE1390:
.LBE1389:
.LBE1388:
.LBE1387:
.LBE1386:
.LBE1385:
.LBE1384:
.LBE1383:
.LBB1392:
.LBB1393:
	.loc 4 87 0
	ldr	r0, [r5]
	cmp	r0, #0
	beq	.L61
.LVL117:
	.loc 4 88 0
	ldr	r3, [r5, #8]
	sub	r1, r3, r0
.LBB1394:
.LBB1395:
	.loc 1 323 0
	bl	_ZNSt12__node_alloc10deallocateEPvj
.LVL118:
.L61:
.LBE1395:
.LBE1394:
.LBE1393:
.LBE1392:
	.loc 4 304 0
	mov	r0, r5
	@ sp needed
.LVL119:
.LVL120:
	pop	{r4, r5, r6, pc}
	.cfi_endproc
.LFE1704:
	.fnend
	.size	_ZNSt6vectorISsSaISsEED2Ev, .-_ZNSt6vectorISsSaISsEED2Ev
	.weak	_ZNSt6vectorISsSaISsEED1Ev
	.thumb_set _ZNSt6vectorISsSaISsEED1Ev,_ZNSt6vectorISsSaISsEED2Ev
	.section	.text._ZNSt4priv12_String_baseIcSaIcEE17_M_allocate_blockEj,"axG",%progbits,_ZNSt4priv12_String_baseIcSaIcEE17_M_allocate_blockEj,comdat
	.align	1
	.weak	_ZNSt4priv12_String_baseIcSaIcEE17_M_allocate_blockEj
	.code	16
	.thumb_func
	.type	_ZNSt4priv12_String_baseIcSaIcEE17_M_allocate_blockEj, %function
_ZNSt4priv12_String_baseIcSaIcEE17_M_allocate_blockEj:
	.fnstart
.LFB1827:
	.file 9 "D:/android-ndk-r12b/build//../sources/cxx-stl/stlport/stlport/stl/_string.c"
	.loc 9 607 0
	.cfi_startproc
.LVL121:
	ldr	r3, .L73
	push	{r0, r1, r2, r4, r5, lr}
	.save {r0, r1, r2, r4, r5, lr}
	.cfi_def_cfa_offset 24
	.cfi_offset 0, -24
	.cfi_offset 1, -20
	.cfi_offset 2, -16
	.cfi_offset 4, -12
	.cfi_offset 5, -8
	.cfi_offset 14, -4
.LPIC42:
	add	r3, pc
	.loc 9 607 0
	ldr	r3, [r3]
	mov	r5, r0
	ldr	r2, [r3]
	mov	r4, r3
	str	r2, [sp, #4]
.LVL122:
	.loc 9 608 0 discriminator 1
	cmp	r1, #0
	bne	.L67
.LVL123:
.LBB1410:
.LBB1411:
	.loc 9 600 0
	ldr	r0, .L73+4
.LVL124:
.LPIC41:
	add	r0, pc
	bl	_ZSt24__stl_throw_length_errorPKc
.LVL125:
.L67:
.LBE1411:
.LBE1410:
	.loc 9 610 0
	cmp	r1, #16
	bls	.L66
.LVL126:
.LBB1412:
.LBB1413:
.LBB1414:
.LBB1415:
.LBB1416:
	.loc 1 348 0
	mov	r0, sp
.LVL127:
	.loc 1 347 0
	str	r1, [sp]
	.loc 1 348 0
	bl	_ZNSt12__node_alloc8allocateERj
.LVL128:
.LBE1416:
.LBE1415:
.LBE1414:
.LBE1413:
.LBE1412:
	.loc 9 613 0
	ldr	r3, [sp]
	.loc 9 611 0
	str	r0, [r5, #20]
	.loc 9 612 0
	str	r0, [r5, #16]
	.loc 9 613 0
	add	r0, r0, r3
.LVL129:
	str	r0, [r5]
.LVL130:
.L66:
	.loc 9 623 0
	ldr	r2, [sp, #4]
	ldr	r3, [r4]
	cmp	r2, r3
	beq	.L71
	bl	__stack_chk_fail
.LVL131:
.L71:
	@ sp needed
.LVL132:
	pop	{r0, r1, r2, r4, r5, pc}
.L74:
	.align	2
.L73:
	.word	__stack_chk_guard(GOT_PREL)+(.-(.LPIC42+4))
	.word	.LC17-(.LPIC41+4)
	.cfi_endproc
.LFE1827:
	.fnend
	.size	_ZNSt4priv12_String_baseIcSaIcEE17_M_allocate_blockEj, .-_ZNSt4priv12_String_baseIcSaIcEE17_M_allocate_blockEj
	.section	.text._ZNSsC2EPKcRKSaIcE,"axG",%progbits,_ZNSsC5EPKcRKSaIcE,comdat
	.align	1
	.weak	_ZNSsC2EPKcRKSaIcE
	.code	16
	.thumb_func
	.type	_ZNSsC2EPKcRKSaIcE, %function
_ZNSsC2EPKcRKSaIcE:
	.fnstart
.LFB1688:
	.loc 9 639 0
	.cfi_startproc
.LVL133:
	push	{r4, r5, r6, lr}
	.save {r4, r5, r6, lr}
	.cfi_def_cfa_offset 16
	.cfi_offset 4, -16
	.cfi_offset 5, -12
	.cfi_offset 6, -8
	.cfi_offset 14, -4
	.loc 9 639 0
	mov	r4, r0
.LBB1436:
.LBB1437:
	.loc 8 112 0
	str	r0, [r4, #16]
.LVL134:
.LBB1438:
.LBB1439:
	.loc 1 481 0
	str	r0, [r4, #20]
.LVL135:
.LBE1439:
.LBE1438:
.LBE1437:
.LBE1436:
.LBB1440:
.LBB1441:
	.file 10 "D:/android-ndk-r12b/build//../sources/cxx-stl/stlport/stlport/stl/char_traits.h"
	.loc 10 229 0
	mov	r0, r1
.LVL136:
.LBE1441:
.LBE1440:
	.loc 9 639 0
	mov	r6, r1
.LBB1444:
.LBB1442:
	.loc 10 229 0
	bl	strlen
.LVL137:
.LBE1442:
.LBE1444:
.LBB1445:
.LBB1446:
	.file 11 "D:/android-ndk-r12b/build//../sources/cxx-stl/stlport/stlport/stl/_string.h"
	.loc 11 379 0
	add	r1, r0, #1
.LBE1446:
.LBE1445:
.LBB1462:
.LBB1443:
	.loc 10 229 0
	mov	r5, r0
.LVL138:
.LBE1443:
.LBE1462:
.LBB1463:
.LBB1460:
	.loc 11 379 0
	mov	r0, r4
.LVL139:
	bl	_ZNSt4priv12_String_baseIcSaIcEE17_M_allocate_blockEj
.LVL140:
	ldr	r0, [r4, #20]
.LVL141:
.LBB1447:
.LBB1448:
.LBB1449:
	.file 12 "D:/android-ndk-r12b/build//../sources/cxx-stl/stlport/stlport/stl/_uninitialized.h"
	.loc 12 107 0
	mov	r3, r0
	cmp	r5, #0
	beq	.L76
	.loc 12 106 0
	mov	r1, r6
	mov	r2, r5
	bl	memcpy
.LVL142:
	.loc 12 107 0 discriminator 2
	add	r3, r0, r5
.L76:
.LBE1449:
.LBE1448:
.LBE1447:
.LBB1450:
.LBB1451:
.LBB1452:
.LBB1453:
.LBB1454:
	.loc 5 101 0
	mov	r2, #0
.LBE1454:
.LBE1453:
.LBE1452:
.LBE1451:
.LBE1450:
	.loc 11 380 0
	str	r3, [r4, #16]
.LVL143:
.LBE1460:
.LBE1463:
	.loc 9 644 0
	mov	r0, r4
.LBB1464:
.LBB1461:
.LBB1459:
.LBB1458:
.LBB1457:
.LBB1456:
.LBB1455:
	.loc 5 101 0
	strb	r2, [r3]
.LBE1455:
.LBE1456:
.LBE1457:
.LBE1458:
.LBE1459:
.LBE1461:
.LBE1464:
	.loc 9 644 0
	@ sp needed
.LVL144:
.LVL145:
.LVL146:
	pop	{r4, r5, r6, pc}
	.cfi_endproc
.LFE1688:
	.fnend
	.size	_ZNSsC2EPKcRKSaIcE, .-_ZNSsC2EPKcRKSaIcE
	.weak	_ZNSsC1EPKcRKSaIcE
	.thumb_set _ZNSsC1EPKcRKSaIcE,_ZNSsC2EPKcRKSaIcE
	.section	.text._ZNSsC2ERKSs,"axG",%progbits,_ZNSsC5ERKSs,comdat
	.align	1
	.weak	_ZNSsC2ERKSs
	.code	16
	.thumb_func
	.type	_ZNSsC2ERKSs, %function
_ZNSsC2ERKSs:
	.fnstart
.LFB1612:
	.loc 9 647 0
	.cfi_startproc
.LVL147:
	push	{r3, r4, r5, r6, r7, lr}
	.save {r3, r4, r5, r6, r7, lr}
	.cfi_def_cfa_offset 24
	.cfi_offset 3, -24
	.cfi_offset 4, -20
	.cfi_offset 5, -16
	.cfi_offset 6, -12
	.cfi_offset 7, -8
	.cfi_offset 14, -4
	.loc 9 647 0
	mov	r4, r0
.LBB1482:
.LBB1483:
	.loc 8 112 0
	str	r0, [r4, #16]
.LVL148:
.LBB1484:
.LBB1485:
	.loc 1 481 0
	str	r0, [r4, #20]
.LVL149:
	ldr	r6, [r1, #20]
.LVL150:
	ldr	r7, [r1, #16]
.LVL151:
.LBE1485:
.LBE1484:
.LBE1483:
.LBE1482:
.LBB1486:
.LBB1487:
	.loc 11 378 0
	sub	r5, r7, r6
.LVL152:
	.loc 11 379 0
	add	r1, r5, #1
.LVL153:
	bl	_ZNSt4priv12_String_baseIcSaIcEE17_M_allocate_blockEj
.LVL154:
	ldr	r0, [r4, #20]
.LVL155:
.LBB1488:
.LBB1489:
.LBB1490:
	.loc 12 107 0
	mov	r3, r0
	cmp	r7, r6
	beq	.L79
	.loc 12 106 0
	mov	r1, r6
	mov	r2, r5
	bl	memcpy
.LVL156:
	.loc 12 107 0 discriminator 2
	add	r3, r0, r5
.L79:
.LBE1490:
.LBE1489:
.LBE1488:
.LBB1491:
.LBB1492:
.LBB1493:
.LBB1494:
.LBB1495:
	.loc 5 101 0
	mov	r2, #0
.LBE1495:
.LBE1494:
.LBE1493:
.LBE1492:
.LBE1491:
	.loc 11 380 0
	str	r3, [r4, #16]
.LVL157:
.LBE1487:
.LBE1486:
	.loc 9 649 0
	mov	r0, r4
.LBB1502:
.LBB1501:
.LBB1500:
.LBB1499:
.LBB1498:
.LBB1497:
.LBB1496:
	.loc 5 101 0
	strb	r2, [r3]
.LBE1496:
.LBE1497:
.LBE1498:
.LBE1499:
.LBE1500:
.LBE1501:
.LBE1502:
	.loc 9 649 0
	@ sp needed
.LVL158:
.LVL159:
.LVL160:
.LVL161:
	pop	{r3, r4, r5, r6, r7, pc}
	.cfi_endproc
.LFE1612:
	.fnend
	.size	_ZNSsC2ERKSs, .-_ZNSsC2ERKSs
	.weak	_ZNSsC1ERKSs
	.thumb_set _ZNSsC1ERKSs,_ZNSsC2ERKSs
	.section	.text._ZNSt18__char_traits_baseIciE4moveEPcPKcj,"axG",%progbits,_ZNSt18__char_traits_baseIciE4moveEPcPKcj,comdat
	.align	1
	.weak	_ZNSt18__char_traits_baseIciE4moveEPcPKcj
	.code	16
	.thumb_func
	.type	_ZNSt18__char_traits_baseIciE4moveEPcPKcj, %function
_ZNSt18__char_traits_baseIciE4moveEPcPKcj:
	.fnstart
.LFB1896:
	.loc 10 167 0
	.cfi_startproc
.LVL162:
	push	{r3, lr}
	.save {r3, lr}
	.cfi_def_cfa_offset 8
	.cfi_offset 3, -8
	.cfi_offset 14, -4
	.loc 10 168 0
	cmp	r2, #0
	beq	.L82
	.loc 10 168 0 is_stmt 0 discriminator 3
	bl	memmove
.LVL163:
.L82:
	.loc 10 168 0
	@ sp needed
	pop	{r3, pc}
	.cfi_endproc
.LFE1896:
	.fnend
	.size	_ZNSt18__char_traits_baseIciE4moveEPcPKcj, .-_ZNSt18__char_traits_baseIciE4moveEPcPKcj
	.section	.text._ZNSs20_M_compute_next_sizeEj,"axG",%progbits,_ZNSs20_M_compute_next_sizeEj,comdat
	.align	1
	.weak	_ZNSs20_M_compute_next_sizeEj
	.code	16
	.thumb_func
	.type	_ZNSs20_M_compute_next_sizeEj, %function
_ZNSs20_M_compute_next_sizeEj:
	.fnstart
.LFB1930:
	.loc 11 302 0 is_stmt 1
	.cfi_startproc
.LVL164:
.LBB1515:
.LBB1516:
.LBB1517:
	.loc 11 400 0
	ldr	r2, [r0, #20]
.LBE1517:
.LBE1516:
.LBE1515:
	.loc 11 302 0
	push	{r3, lr}
	.save {r3, lr}
	.cfi_def_cfa_offset 8
	.cfi_offset 3, -8
	.cfi_offset 14, -4
.LBB1522:
.LBB1519:
.LBB1518:
	.loc 11 400 0
	ldr	r3, [r0, #16]
	sub	r3, r3, r2
.LVL165:
.LBE1518:
.LBE1519:
	.loc 11 304 0
	mov	r2, #2
	neg	r2, r2
	sub	r2, r2, r3
	cmp	r1, r2
	bls	.L86
.LVL166:
.LBB1520:
.LBB1521:
	.loc 9 600 0
	ldr	r0, .L90
.LVL167:
.LPIC43:
	add	r0, pc
	bl	_ZSt24__stl_throw_length_errorPKc
.LVL168:
.L86:
	add	r2, r3, #1
	sub	r0, r3, #0
.LVL169:
	cmp	r0, r1
	bcs	.L87
.LVL170:
	mov	r0, r1
.LVL171:
.L87:
.LBE1521:
.LBE1520:
	.loc 11 306 0
	add	r0, r2, r0
.LVL172:
	.loc 11 307 0
	add	r2, r0, #1
	beq	.L89
	.loc 11 307 0 is_stmt 0 discriminator 2
	cmp	r0, r3
	bcs	.L88
.L89:
	.loc 11 308 0 is_stmt 1
	mov	r0, #2
.LVL173:
	neg	r0, r0
.L88:
.LVL174:
.LBE1522:
	.loc 11 310 0
	@ sp needed
	pop	{r3, pc}
.L91:
	.align	2
.L90:
	.word	.LC17-(.LPIC43+4)
	.cfi_endproc
.LFE1930:
	.fnend
	.size	_ZNSs20_M_compute_next_sizeEj, .-_ZNSs20_M_compute_next_sizeEj
	.section	.text._ZNSs9_M_appendEPKcS0_,"axG",%progbits,_ZNSs9_M_appendEPKcS0_,comdat
	.align	1
	.weak	_ZNSs9_M_appendEPKcS0_
	.code	16
	.thumb_func
	.type	_ZNSs9_M_appendEPKcS0_, %function
_ZNSs9_M_appendEPKcS0_:
	.fnstart
.LFB1886:
	.loc 9 196 0
	.cfi_startproc
.LVL175:
	ldr	r3, .L111
	push	{r4, r5, r6, r7, lr}
	.save {r4, r5, r6, r7, lr}
	.cfi_def_cfa_offset 20
	.cfi_offset 4, -20
	.cfi_offset 5, -16
	.cfi_offset 6, -12
	.cfi_offset 7, -8
	.cfi_offset 14, -4
.LPIC45:
	add	r3, pc
	ldr	r3, [r3]
	mov	r6, r1
	ldr	r1, [r3]
.LVL176:
	.pad #20
	sub	sp, sp, #20
	.cfi_def_cfa_offset 40
	.loc 9 196 0
	mov	r4, r0
	str	r1, [sp, #12]
	str	r3, [sp, #4]
.LBB1584:
.LBB1585:
	.loc 9 197 0
	cmp	r6, r2
	beq	.L93
.LBB1586:
.LBB1587:
.LBB1588:
.LBB1589:
	.loc 8 74 0
	ldr	r1, [r0, #20]
.LBE1589:
.LBE1588:
.LBE1587:
	.loc 9 198 0
	sub	r5, r2, r6
.LVL177:
	ldr	r3, [r0, #16]
.LBB1644:
.LBB1591:
.LBB1590:
	.loc 8 74 0
	cmp	r1, r0
	bne	.L94
	.loc 8 74 0 is_stmt 0 discriminator 1
	sub	r3, r0, r3
	add	r3, r3, #16
	b	.L95
.L94:
	.loc 8 74 0 discriminator 2
	ldr	r1, [r0]
	sub	r3, r1, r3
.L95:
.LBE1590:
.LBE1591:
	.loc 9 199 0 is_stmt 1
	cmp	r5, r3
	bcc	.L96
.LBB1592:
	.loc 9 200 0
	mov	r0, r4
.LVL178:
	mov	r1, r5
	bl	_ZNSs20_M_compute_next_sizeEj
.LVL179:
	sub	r7, r0, #0
.LVL180:
.LBB1593:
.LBB1594:
.LBB1595:
.LBB1596:
.LBB1597:
	.loc 1 356 0
	str	r0, [sp]
.LBB1598:
	.loc 1 346 0
	beq	.L97
.LBB1599:
	.loc 1 347 0
	str	r0, [sp, #8]
	.loc 1 348 0
	add	r0, sp, #8
.LVL181:
	bl	_ZNSt12__node_alloc8allocateERj
.LVL182:
	.loc 1 352 0
	ldr	r7, [sp, #8]
.LVL183:
	.loc 1 348 0
	str	r0, [sp]
.LVL184:
.L97:
	ldr	r3, [r4, #20]
	mov	ip, r3
.LVL185:
.LBE1599:
.LBE1598:
.LBE1597:
.LBE1596:
.LBE1595:
.LBE1594:
.LBE1593:
.LBB1600:
.LBB1601:
.LBB1602:
.LBB1603:
	.loc 12 86 0
	mov	r2, ip
	ldr	r3, [r4, #16]
.LVL186:
	sub	r2, r3, r2
.LVL187:
	mov	r3, #0
.LVL188:
.L98:
	sub	r0, r2, r3
.LVL189:
	.loc 12 86 0 is_stmt 0 discriminator 1
	cmp	r0, #0
	ble	.L108
	mov	r1, ip
	ldrb	r0, [r1, r3]
.LVL190:
.LBB1604:
.LBB1605:
.LBB1606:
	.loc 5 146 0 is_stmt 1
	ldr	r1, [sp]
	strb	r0, [r1, r3]
.LVL191:
	add	r3, r3, #1
.LVL192:
	b	.L98
.LVL193:
.L108:
	mvn	r3, r2
.LVL194:
	asr	r3, r3, #31
	and	r3, r2
	ldr	r2, [sp]
	add	r3, r2, r3
.LVL195:
.LBE1606:
.LBE1605:
.LBE1604:
	.loc 12 86 0 discriminator 1
	mov	r2, #0
.LVL196:
.L101:
	sub	r1, r5, r2
.LVL197:
.LBE1603:
.LBE1602:
.LBE1601:
.LBE1600:
.LBB1607:
.LBB1608:
.LBB1609:
.LBB1610:
	cmp	r1, #0
	ble	.L109
	ldrb	r1, [r6, r2]
.LVL198:
.LBB1611:
.LBB1612:
.LBB1613:
	.loc 5 146 0
	strb	r1, [r3, r2]
.LVL199:
	add	r2, r2, #1
.LVL200:
	b	.L101
.LVL201:
.L109:
	mvn	r2, r5
.LVL202:
	asr	r2, r2, #31
	and	r5, r2
.LVL203:
	add	r5, r3, r5
.LVL204:
.LBE1613:
.LBE1612:
.LBE1611:
.LBE1610:
.LBE1609:
.LBE1608:
.LBE1607:
.LBB1614:
.LBB1615:
.LBB1616:
.LBB1617:
	.loc 5 101 0
	mov	r3, #0
.LVL205:
.LBE1617:
.LBE1616:
.LBE1615:
.LBE1614:
	.loc 9 205 0
	mov	r0, r4
.LVL206:
.LBB1621:
.LBB1620:
.LBB1619:
.LBB1618:
	.loc 5 101 0
	strb	r3, [r5]
.LBE1618:
.LBE1619:
.LBE1620:
.LBE1621:
	.loc 9 205 0
	bl	_ZNSt4priv12_String_baseIcSaIcEE19_M_deallocate_blockEv
.LVL207:
	.loc 9 206 0
	ldr	r3, [sp]
.LBB1622:
.LBB1623:
	.loc 8 164 0
	str	r5, [r4, #16]
.LBE1623:
.LBE1622:
	.loc 9 206 0
	add	r7, r3, r7
.LVL208:
.LBB1625:
.LBB1624:
	.loc 8 160 0
	str	r7, [r4]
	.loc 8 165 0
	str	r3, [r4, #20]
.LBE1624:
.LBE1625:
.LBE1592:
	b	.L93
.LVL209:
.L96:
.LBB1626:
	.loc 9 211 0
	ldr	r3, [r4, #16]
.LBB1627:
.LBB1628:
.LBB1629:
.LBB1630:
	.loc 12 86 0
	add	r1, r6, #1
.LVL210:
	sub	r2, r2, r6
.LVL211:
.LBE1630:
.LBE1629:
.LBE1628:
.LBE1627:
	.loc 9 211 0
	add	r3, r3, #1
.LVL212:
.L104:
	sub	r0, r2, r1
	add	r0, r6, r0
.LBB1637:
.LBB1636:
.LBB1635:
.LBB1634:
	.loc 12 86 0 discriminator 1
	cmp	r0, #0
	ble	.L110
	ldrb	r0, [r1]
.LVL213:
	.loc 12 88 0
	add	r1, r1, #1
.LVL214:
.LBB1631:
.LBB1632:
.LBB1633:
	.loc 5 146 0
	strb	r0, [r3]
.LBE1633:
.LBE1632:
.LBE1631:
	.loc 12 89 0
	add	r3, r3, #1
.LVL215:
	b	.L104
.LVL216:
.L110:
.LBE1634:
.LBE1635:
.LBE1636:
.LBE1637:
.LBB1638:
.LBB1639:
.LBB1640:
.LBB1641:
	.loc 5 101 0
	mov	r3, #0
.LVL217:
	ldr	r2, [r4, #16]
	strb	r3, [r2, r5]
.LVL218:
	ldrb	r3, [r6]
.LVL219:
.LBE1641:
.LBE1640:
.LBE1639:
.LBE1638:
.LBB1642:
.LBB1643:
	.loc 10 232 0
	ldr	r2, [r4, #16]
.LVL220:
	strb	r3, [r2]
.LVL221:
.LBE1643:
.LBE1642:
	.loc 9 214 0
	ldr	r3, [r4, #16]
	add	r5, r3, r5
.LVL222:
	str	r5, [r4, #16]
.LVL223:
.L93:
.LBE1626:
.LBE1644:
.LBE1586:
.LBE1585:
.LBE1584:
	.loc 9 218 0
	ldr	r3, [sp, #4]
	ldr	r2, [sp, #12]
	mov	r0, r4
	ldr	r3, [r3]
	cmp	r2, r3
	beq	.L106
.LVL224:
	bl	__stack_chk_fail
.LVL225:
.L106:
	add	sp, sp, #20
	@ sp needed
.LVL226:
	pop	{r4, r5, r6, r7, pc}
.L112:
	.align	2
.L111:
	.word	__stack_chk_guard(GOT_PREL)+(.-(.LPIC45+4))
	.cfi_endproc
.LFE1886:
	.fnend
	.size	_ZNSs9_M_appendEPKcS0_, .-_ZNSs9_M_appendEPKcS0_
	.section	.text._Z13ConcatStringsRSt6vectorISsSaISsEESs,"ax",%progbits
	.align	1
	.global	_Z13ConcatStringsRSt6vectorISsSaISsEESs
	.code	16
	.thumb_func
	.type	_Z13ConcatStringsRSt6vectorISsSaISsEESs, %function
_Z13ConcatStringsRSt6vectorISsSaISsEESs:
	.fnstart
.LFB1594:
	.loc 3 419 0
	.cfi_startproc
.LVL227:
	push	{r3, r4, r5, r6, r7, lr}
	.save {r3, r4, r5, r6, r7, lr}
	.cfi_def_cfa_offset 24
	.cfi_offset 3, -24
	.cfi_offset 4, -20
	.cfi_offset 5, -16
	.cfi_offset 6, -12
	.cfi_offset 7, -8
	.cfi_offset 14, -4
	.loc 3 419 0
	mov	r4, r0
.LBB1673:
.LBB1674:
.LBB1675:
.LBB1676:
.LBB1677:
.LBB1678:
.LBB1679:
.LBB1680:
	.loc 5 101 0
	mov	r5, #0
.LBE1680:
.LBE1679:
.LBE1678:
.LBE1677:
.LBE1676:
.LBE1675:
.LBE1674:
.LBE1673:
	.loc 3 419 0
	mov	r6, r1
.LBB1712:
.LBB1694:
.LBB1692:
.LBB1685:
.LBB1686:
	.loc 8 120 0
	str	r0, [r4, #16]
.LVL228:
.LBB1687:
.LBB1688:
	.loc 1 481 0
	str	r0, [r4, #20]
.LBE1688:
.LBE1687:
	.loc 8 124 0
	mov	r1, #16
.LVL229:
.LBE1686:
.LBE1685:
.LBE1692:
.LBE1694:
.LBE1712:
	.loc 3 419 0
	mov	r7, r2
.LBB1713:
.LBB1695:
.LBB1693:
.LBB1690:
.LBB1689:
	.loc 8 124 0
	bl	_ZNSt4priv12_String_baseIcSaIcEE17_M_allocate_blockEj
.LVL230:
.LBE1689:
.LBE1690:
.LBB1691:
.LBB1684:
.LBB1683:
.LBB1682:
.LBB1681:
	.loc 5 101 0
	ldr	r3, [r4, #16]
	strb	r5, [r3]
.LVL231:
.L114:
.LBE1681:
.LBE1682:
.LBE1683:
.LBE1684:
.LBE1691:
.LBE1693:
.LBE1695:
.LBB1696:
.LBB1697:
.LBB1698:
	.loc 4 192 0
	ldr	r2, [r6]
	ldr	r3, [r6, #4]
	sub	r3, r3, r2
	ldr	r2, .L121
	asr	r1, r3, #3
	mov	r3, r1
	mul	r3, r2
.LBE1698:
.LBE1697:
	.loc 3 421 0 discriminator 1
	cmp	r5, r3
	bcs	.L120
	.loc 3 422 0
	cmp	r5, #0
	beq	.L115
.LVL232:
.LBB1699:
.LBB1700:
.LBB1701:
	.loc 11 517 0 discriminator 2
	mov	r0, r4
	ldr	r1, [r7, #20]
	ldr	r2, [r7, #16]
	bl	_ZNSs9_M_appendEPKcS0_
.LVL233:
.L115:
	mov	r2, #24
	mov	r3, r2
	mul	r3, r5
.LBE1701:
.LBE1700:
.LBE1699:
.LBB1702:
.LBB1703:
	.loc 4 202 0
	ldr	r2, [r6]
.LBE1703:
.LBE1702:
.LBB1705:
.LBB1706:
.LBB1707:
	.loc 11 517 0 discriminator 2
	mov	r0, r4
.LBE1707:
.LBE1706:
.LBE1705:
.LBB1710:
.LBB1704:
	.loc 4 202 0
	add	r3, r2, r3
.LVL234:
.LBE1704:
.LBE1710:
.LBB1711:
.LBB1709:
.LBB1708:
	.loc 11 517 0 discriminator 2
	ldr	r1, [r3, #20]
	ldr	r2, [r3, #16]
	bl	_ZNSs9_M_appendEPKcS0_
.LVL235:
.LBE1708:
.LBE1709:
.LBE1711:
	.loc 3 421 0 discriminator 2
	add	r5, r5, #1
.LVL236:
	b	.L114
.LVL237:
.L120:
.LBE1696:
.LBE1713:
	.loc 3 428 0
	mov	r0, r4
	@ sp needed
.LVL238:
.LVL239:
.LVL240:
.LVL241:
	pop	{r3, r4, r5, r6, r7, pc}
.L122:
	.align	2
.L121:
	.word	-1431655765
	.cfi_endproc
.LFE1594:
	.fnend
	.size	_Z13ConcatStringsRSt6vectorISsSaISsEESs, .-_Z13ConcatStringsRSt6vectorISsSaISsEESs
	.section	.text._ZNSs9_M_insertEPcPKcS1_b,"axG",%progbits,_ZNSs9_M_insertEPcPKcS1_b,comdat
	.align	1
	.weak	_ZNSs9_M_insertEPcPKcS1_b
	.code	16
	.thumb_func
	.type	_ZNSs9_M_insertEPcPKcS1_b, %function
_ZNSs9_M_insertEPcPKcS1_b:
	.fnstart
.LFB1895:
	.loc 9 314 0
	.cfi_startproc
.LVL242:
	push	{r4, r5, r6, r7, lr}
	.save {r4, r5, r6, r7, lr}
	.cfi_def_cfa_offset 20
	.cfi_offset 4, -20
	.cfi_offset 5, -16
	.cfi_offset 6, -12
	.cfi_offset 7, -8
	.cfi_offset 14, -4
	.pad #36
	sub	sp, sp, #36
	.cfi_def_cfa_offset 56
	.loc 9 314 0
	str	r2, [sp]
	ldr	r2, .L170
.LVL243:
	mov	r6, r3
.LPIC47:
	add	r2, pc
	add	r3, sp, #56
.LVL244:
	ldrb	r3, [r3]
.LVL245:
	ldr	r2, [r2]
	mov	r5, r0
	str	r3, [sp, #8]
	ldr	r3, [r2]
	mov	r7, r1
	str	r3, [sp, #28]
.LBB1816:
	.loc 9 318 0
	ldr	r3, [sp]
	str	r2, [sp, #20]
	cmp	r3, r6
	bne	.LCB2787
	b	.L123	@long jump
.LCB2787:
.LBB1817:
.LBB1818:
.LBB1819:
.LBB1820:
	.loc 8 74 0
	ldr	r2, [r0, #20]
.LBE1820:
.LBE1819:
.LBE1818:
	.loc 9 319 0
	sub	r4, r6, r3
.LVL246:
	ldr	r3, [r0, #16]
.LBB1919:
.LBB1822:
.LBB1821:
	.loc 8 74 0
	cmp	r2, r0
	bne	.L126
	.loc 8 74 0 is_stmt 0 discriminator 1
	sub	r3, r0, r3
	add	r3, r3, #16
	b	.L127
.L126:
	.loc 8 74 0 discriminator 2
	ldr	r2, [r0]
	sub	r3, r2, r3
.L127:
.LBE1821:
.LBE1822:
	.loc 9 320 0 is_stmt 1
	cmp	r3, r4
	bls	.L128
.LBB1823:
	.loc 9 321 0
	ldr	r3, [r5, #16]
	str	r3, [sp, #4]
	sub	r3, r3, r7
	mov	ip, r3
.LVL247:
	ldr	r3, [sp, #4]
.LVL248:
	add	r3, r3, #1
	str	r3, [sp, #12]
.LBB1824:
	.loc 9 323 0
	cmp	ip, r4
	bcc	.L129
	.loc 9 324 0
	ldr	r3, [sp, #4]
	sub	r2, r3, r4
.LBB1825:
.LBB1826:
.LBB1827:
.LBB1828:
	.loc 12 86 0
	ldr	r3, [sp, #12]
.LBE1828:
.LBE1827:
.LBE1826:
.LBE1825:
	.loc 9 324 0
	add	r2, r2, #1
.LVL249:
.LBB1835:
.LBB1834:
.LBB1833:
.LBB1832:
	.loc 12 86 0
	sub	r3, r3, r2
.LVL250:
	str	r3, [sp, #12]
.LVL251:
	mov	r3, #0
.LVL252:
.L130:
	ldr	r1, [sp, #12]
	sub	r1, r1, r3
.LVL253:
	.loc 12 86 0 is_stmt 0 discriminator 1
	cmp	r1, #0
	ble	.L164
	ldr	r1, [sp, #4]
.LVL254:
	ldrb	r0, [r2, r3]
.LVL255:
	add	r1, r1, r3
.LBB1829:
.LBB1830:
.LBB1831:
	.loc 5 146 0 is_stmt 1
	strb	r0, [r1, #1]
.LVL256:
	add	r3, r3, #1
.LVL257:
	b	.L130
.LVL258:
.L164:
.LBE1831:
.LBE1830:
.LBE1829:
.LBE1832:
.LBE1833:
.LBE1834:
.LBE1835:
	.loc 9 325 0
	ldr	r3, [r5, #16]
.LVL259:
	.loc 9 326 0
	add	r0, r7, r4
	mov	r1, r7
.LVL260:
	.loc 9 325 0
	add	r3, r3, r4
	str	r3, [r5, #16]
	mov	r3, ip
	add	r3, r3, #1
	.loc 9 326 0
	sub	r2, r3, r4
.LVL261:
	bl	_ZNSt18__char_traits_baseIciE4moveEPcPKcj
.LVL262:
	.loc 9 327 0
	ldr	r3, [sp, #8]
	cmp	r3, #0
	beq	.L132
	.loc 9 327 0 is_stmt 0 discriminator 1
	cmp	r6, r7
	bcs	.L133
.L132:
.LVL263:
.LBB1836:
.LBB1837:
.LBB1838:
	.loc 10 172 0 is_stmt 1
	cmp	r4, #0
	bne	.LCB2979
	b	.L123	@long jump
.LCB2979:
	.loc 10 172 0 is_stmt 0 discriminator 3
	mov	r0, r7
	ldr	r1, [sp]
	b	.L163
.LVL264:
.L133:
.LBE1838:
.LBE1837:
.LBE1836:
	.loc 9 332 0 is_stmt 1
	ldr	r3, [sp]
	cmp	r3, r7
	bcc	.L135
.LVL265:
.LBB1839:
.LBB1840:
.LBB1841:
	.loc 10 172 0
	cmp	r4, #0
	beq	.L123
	.loc 10 172 0 is_stmt 0 discriminator 3
	mov	r0, r7
	mov	r1, r6
.LVL266:
.L163:
	mov	r2, r4
	b	.L162
.LVL267:
.L135:
.LBE1841:
.LBE1840:
.LBE1839:
.LBB1842:
.LBB1843:
	.loc 11 683 0 is_stmt 1
	mov	r0, r7
	ldr	r1, [sp]
	mov	r2, r4
	b	.L140
.LVL268:
.L129:
.LBE1843:
.LBE1842:
.LBB1844:
	.loc 9 346 0
	mov	r3, ip
	add	r2, r3, #1
	ldr	r3, [sp]
	add	r1, r3, r2
.LVL269:
.LBB1845:
.LBB1846:
.LBB1847:
.LBB1848:
	.loc 12 86 0
	sub	r3, r6, r1
	str	r3, [sp, #16]
.LVL270:
	mov	r3, #0
.LVL271:
.L136:
	ldr	r0, [sp, #16]
	sub	r0, r0, r3
.LVL272:
	.loc 12 86 0 is_stmt 0 discriminator 1
	cmp	r0, #0
	ble	.L165
	ldr	r0, [sp, #4]
.LVL273:
	ldrb	r6, [r1, r3]
.LVL274:
	add	r0, r0, r3
.LBB1849:
.LBB1850:
.LBB1851:
	.loc 5 146 0 is_stmt 1
	strb	r6, [r0, #1]
.LVL275:
	add	r3, r3, #1
.LVL276:
	b	.L136
.LVL277:
.L165:
.LBE1851:
.LBE1850:
.LBE1849:
.LBE1848:
.LBE1847:
.LBE1846:
.LBE1845:
	.loc 9 348 0
	mov	r3, ip
.LVL278:
.LBB1852:
.LBB1853:
.LBB1854:
.LBB1855:
	.loc 12 86 0
	mov	r6, #0
.LBE1855:
.LBE1854:
.LBE1853:
.LBE1852:
	.loc 9 348 0
	sub	r0, r4, r3
.LVL279:
	ldr	r3, [r5, #16]
	add	r0, r3, r0
.LBB1865:
.LBB1863:
.LBB1861:
.LBB1859:
	.loc 12 86 0
	ldr	r3, [sp, #12]
.LBE1859:
.LBE1861:
.LBE1863:
.LBE1865:
	.loc 9 348 0
	str	r0, [r5, #16]
.LVL280:
.LBB1866:
.LBB1864:
.LBB1862:
.LBB1860:
	.loc 12 86 0
	sub	r1, r3, r7
.LVL281:
.L138:
	sub	r3, r1, r6
.LVL282:
	.loc 12 86 0 is_stmt 0 discriminator 1
	cmp	r3, #0
	ble	.L166
	ldrb	r3, [r7, r6]
.LVL283:
.LBB1856:
.LBB1857:
.LBB1858:
	.loc 5 146 0 is_stmt 1
	strb	r3, [r0, r6]
.LVL284:
	add	r6, r6, #1
.LVL285:
	b	.L138
.LVL286:
.L166:
.LBE1858:
.LBE1857:
.LBE1856:
.LBE1860:
.LBE1862:
.LBE1864:
.LBE1866:
	.loc 9 350 0
	ldr	r3, [r5, #16]
.LVL287:
.LBB1867:
.LBB1868:
.LBB1869:
	.loc 10 172 0 discriminator 3
	mov	r0, r7
.LVL288:
.LBE1869:
.LBE1868:
.LBE1867:
	.loc 9 350 0
	add	r3, r3, ip
	str	r3, [r5, #16]
	.loc 9 351 0
	ldr	r3, [sp, #8]
.LBB1874:
.LBB1872:
.LBB1870:
	.loc 10 172 0 discriminator 3
	ldr	r1, [sp]
.LVL289:
.LBE1870:
.LBE1872:
.LBE1874:
	.loc 9 351 0
	cmp	r3, #0
	bne	.L140
.LVL290:
.L162:
.LBB1875:
.LBB1873:
.LBB1871:
	.loc 10 172 0 discriminator 3
	bl	memcpy
.LVL291:
	b	.L123
.LVL292:
.L140:
.LBE1871:
.LBE1873:
.LBE1875:
.LBB1876:
.LBB1877:
	.loc 11 683 0
	bl	_ZNSt18__char_traits_baseIciE4moveEPcPKcj
.LVL293:
	b	.L123
.LVL294:
.L128:
.LBE1877:
.LBE1876:
.LBE1844:
.LBE1824:
.LBE1823:
.LBB1878:
	.loc 9 358 0
	mov	r0, r5
.LVL295:
	mov	r1, r4
.LVL296:
	bl	_ZNSs20_M_compute_next_sizeEj
.LVL297:
	sub	r6, r0, #0
.LVL298:
.LBB1879:
.LBB1880:
.LBB1881:
.LBB1882:
.LBB1883:
	.loc 1 356 0
	str	r0, [sp, #4]
.LBB1884:
	.loc 1 346 0
	beq	.L141
.LBB1885:
	.loc 1 347 0
	str	r0, [sp, #24]
	.loc 1 348 0
	add	r0, sp, #24
.LVL299:
	bl	_ZNSt12__node_alloc8allocateERj
.LVL300:
	.loc 1 352 0
	ldr	r6, [sp, #24]
.LVL301:
	.loc 1 348 0
	str	r0, [sp, #4]
.LVL302:
.L141:
	ldr	r3, [r5, #20]
	mov	ip, r3
.LVL303:
.LBE1885:
.LBE1884:
.LBE1883:
.LBE1882:
.LBE1881:
.LBE1880:
.LBE1879:
.LBB1886:
.LBB1887:
.LBB1888:
.LBB1889:
	.loc 12 86 0
	sub	r1, r7, r3
.LVL304:
	mov	r3, #0
.LVL305:
.L142:
	sub	r0, r1, r3
.LVL306:
	.loc 12 86 0 is_stmt 0 discriminator 1
	cmp	r0, #0
	ble	.L167
	mov	r2, ip
	ldrb	r0, [r2, r3]
.LVL307:
.LBB1890:
.LBB1891:
.LBB1892:
	.loc 5 146 0 is_stmt 1
	ldr	r2, [sp, #4]
	strb	r0, [r2, r3]
.LVL308:
	add	r3, r3, #1
.LVL309:
	b	.L142
.LVL310:
.L167:
	mvn	r2, r1
	ldr	r3, [sp, #4]
.LVL311:
	asr	r2, r2, #31
	and	r2, r1
	add	r2, r3, r2
.LVL312:
.LBE1892:
.LBE1891:
.LBE1890:
	.loc 12 86 0 discriminator 1
	mov	r3, #0
.LVL313:
.L145:
	sub	r1, r4, r3
.LVL314:
.LBE1889:
.LBE1888:
.LBE1887:
.LBE1886:
.LBB1893:
.LBB1894:
.LBB1895:
.LBB1896:
	cmp	r1, #0
	ble	.L168
	ldr	r1, [sp]
.LVL315:
	ldrb	r1, [r1, r3]
.LVL316:
.LBB1897:
.LBB1898:
.LBB1899:
	.loc 5 146 0
	strb	r1, [r2, r3]
.LVL317:
	add	r3, r3, #1
.LVL318:
	b	.L145
.LVL319:
.L168:
	mvn	r3, r4
.LVL320:
	asr	r3, r3, #31
	and	r4, r3
.LVL321:
	add	r3, r2, r4
.LVL322:
.LBE1899:
.LBE1898:
.LBE1897:
.LBE1896:
.LBE1895:
.LBE1894:
.LBE1893:
.LBB1900:
.LBB1901:
.LBB1902:
.LBB1903:
	.loc 12 86 0
	ldr	r2, [r5, #16]
.LVL323:
	sub	r1, r2, r7
.LVL324:
	mov	r2, #0
.LVL325:
.L148:
	sub	r0, r1, r2
.LVL326:
	.loc 12 86 0 is_stmt 0 discriminator 1
	cmp	r0, #0
	ble	.L169
	ldrb	r0, [r7, r2]
.LVL327:
.LBB1904:
.LBB1905:
.LBB1906:
	.loc 5 146 0 is_stmt 1
	strb	r0, [r3, r2]
.LVL328:
	add	r2, r2, #1
.LVL329:
	b	.L148
.LVL330:
.L169:
	mvn	r4, r1
	asr	r4, r4, #31
	and	r4, r1
	add	r4, r3, r4
.LVL331:
.LBE1906:
.LBE1905:
.LBE1904:
.LBE1903:
.LBE1902:
.LBE1901:
.LBE1900:
.LBB1907:
.LBB1908:
.LBB1909:
.LBB1910:
	.loc 5 101 0
	mov	r3, #0
.LVL332:
.LBE1910:
.LBE1909:
.LBE1908:
.LBE1907:
	.loc 9 364 0
	mov	r0, r5
.LVL333:
.LBB1914:
.LBB1913:
.LBB1912:
.LBB1911:
	.loc 5 101 0
	strb	r3, [r4]
.LBE1911:
.LBE1912:
.LBE1913:
.LBE1914:
	.loc 9 364 0
	bl	_ZNSt4priv12_String_baseIcSaIcEE19_M_deallocate_blockEv
.LVL334:
	.loc 9 365 0
	ldr	r3, [sp, #4]
.LBB1915:
.LBB1916:
	.loc 8 164 0
	str	r4, [r5, #16]
.LBE1916:
.LBE1915:
	.loc 9 365 0
	add	r6, r3, r6
.LVL335:
.LBB1918:
.LBB1917:
	.loc 8 160 0
	str	r6, [r5]
	.loc 8 165 0
	str	r3, [r5, #20]
.LVL336:
.L123:
.LBE1917:
.LBE1918:
.LBE1878:
.LBE1919:
.LBE1817:
.LBE1816:
	.loc 9 368 0
	ldr	r3, [sp, #20]
	ldr	r2, [sp, #28]
	ldr	r3, [r3]
	cmp	r2, r3
	beq	.L151
	bl	__stack_chk_fail
.LVL337:
.L151:
	add	sp, sp, #36
	@ sp needed
.LVL338:
.LVL339:
	pop	{r4, r5, r6, r7, pc}
.L171:
	.align	2
.L170:
	.word	__stack_chk_guard(GOT_PREL)+(.-(.LPIC47+4))
	.cfi_endproc
.LFE1895:
	.fnend
	.size	_ZNSs9_M_insertEPcPKcS1_b, .-_ZNSs9_M_insertEPcPKcS1_b
	.section	.text._ZNSs10_M_replaceEPcS_PKcS1_b,"axG",%progbits,_ZNSs10_M_replaceEPcS_PKcS1_b,comdat
	.align	1
	.weak	_ZNSs10_M_replaceEPcS_PKcS1_b
	.code	16
	.thumb_func
	.type	_ZNSs10_M_replaceEPcS_PKcS1_b, %function
_ZNSs10_M_replaceEPcS_PKcS1_b:
	.fnstart
.LFB1818:
	.loc 9 389 0
	.cfi_startproc
.LVL340:
	push	{r4, r5, r6, r7, lr}
	.save {r4, r5, r6, r7, lr}
	.cfi_def_cfa_offset 20
	.cfi_offset 4, -20
	.cfi_offset 5, -16
	.cfi_offset 6, -12
	.cfi_offset 7, -8
	.cfi_offset 14, -4
	mov	r7, r1
	mov	r5, r2
	mov	r1, r3
.LVL341:
	.pad #20
	sub	sp, sp, #20
	.cfi_def_cfa_offset 40
	.loc 9 389 0
	add	r3, sp, #40
.LVL342:
	ldmia	r3!, {r2}
.LVL343:
	mov	r6, r0
	ldrb	r3, [r3]
.LVL344:
.LBB1939:
	.loc 9 392 0
	sub	r4, r2, r1
.LVL345:
.LBE1939:
	.loc 9 389 0
	str	r3, [sp, #12]
.LBB1957:
	.loc 9 393 0
	sub	r3, r5, r7
	str	r3, [sp, #8]
.LVL346:
.LBB1940:
	.loc 9 394 0
	cmp	r3, r4
	blt	.L173
	.loc 9 395 0
	ldr	r3, [sp, #12]
.LVL347:
	cmp	r3, #0
	beq	.L174
	.loc 9 395 0 is_stmt 0 discriminator 1
	cmp	r2, r7
	bcc	.L174
	.loc 9 395 0 discriminator 2
	cmp	r1, r5
	bcc	.L175
.L174:
.LVL348:
.LBB1941:
.LBB1942:
.LBB1943:
.LBB1944:
	.loc 10 172 0 is_stmt 1
	cmp	r4, #0
	beq	.L176
	.loc 10 172 0 is_stmt 0 discriminator 3
	mov	r0, r7
.LVL349:
	mov	r2, r4
.LVL350:
	bl	memcpy
.LVL351:
	b	.L176
.LVL352:
.L175:
.LBE1944:
.LBE1943:
.LBE1942:
.LBE1941:
.LBB1945:
.LBB1946:
	.loc 11 683 0 is_stmt 1
	mov	r0, r7
.LVL353:
	mov	r2, r4
.LVL354:
	bl	_ZNSt18__char_traits_baseIciE4moveEPcPKcj
.LVL355:
.L176:
.LBE1946:
.LBE1945:
	.loc 9 399 0
	add	r4, r7, r4
.LVL356:
.LBB1947:
.LBB1948:
	.loc 11 803 0
	cmp	r4, r5
	beq	.L177
.LVL357:
	.loc 11 805 0
	ldr	r3, [r6, #16]
	.loc 11 805 0 is_stmt 0 discriminator 1
	mov	r0, r4
	.loc 11 805 0
	sub	r2, r3, r5
	add	r2, r2, #1
	.loc 11 805 0 discriminator 1
	mov	r1, r5
	bl	_ZNSt18__char_traits_baseIciE4moveEPcPKcj
.LVL358:
	.loc 11 806 0 is_stmt 1
	ldr	r3, [r6, #16]
	sub	r4, r5, r4
.LVL359:
	sub	r4, r3, r4
	str	r4, [r6, #16]
	b	.L177
.LVL360:
.L173:
	ldr	r3, [sp, #8]
.LVL361:
	add	r4, r1, r3
.LVL362:
.LBE1948:
.LBE1947:
.LBB1949:
	.loc 9 400 0
	ldr	r3, [sp, #12]
	cmp	r3, #0
	beq	.L178
	.loc 9 400 0 is_stmt 0 discriminator 1
	cmp	r1, r5
	bcs	.L178
	.loc 9 400 0 discriminator 2
	ldr	r3, [sp, #40]
	cmp	r3, r7
	bhi	.L179
.L178:
.LVL363:
.LBB1950:
.LBB1951:
.LBB1952:
.LBB1953:
	.loc 10 172 0 is_stmt 1
	ldr	r3, [sp, #8]
	cmp	r3, #0
	beq	.L180
	.loc 10 172 0 is_stmt 0 discriminator 3
	mov	r0, r7
.LVL364:
	mov	r2, r3
.LVL365:
	bl	memcpy
.LVL366:
.L180:
.LBE1953:
.LBE1952:
.LBE1951:
	.loc 9 403 0 is_stmt 1
	ldr	r3, [sp, #12]
	b	.L194
.LVL367:
.L179:
.LBE1950:
.LBB1954:
	.loc 9 404 0
	cmp	r1, r7
	bcs	.L181
.LVL368:
.LBB1955:
	.loc 9 407 0
	ldr	r2, [r0, #20]
.LVL369:
	sub	r3, r7, r2
	str	r3, [sp, #12]
.LVL370:
	.loc 9 409 0
	mov	r3, #1
.LVL371:
	.loc 9 408 0
	sub	r7, r1, r2
.LVL372:
	.loc 9 409 0
	str	r3, [sp]
	mov	r1, r5
.LVL373:
	mov	r2, r4
	ldr	r3, [sp, #40]
	bl	_ZNSs9_M_insertEPcPKcS1_b
.LVL374:
	ldr	r1, [r6, #20]
.LVL375:
	.loc 9 410 0
	ldr	r3, [sp, #12]
	.loc 9 410 0 is_stmt 0 discriminator 2
	ldr	r2, [sp, #8]
	.loc 9 410 0
	add	r0, r1, r3
	add	r1, r1, r7
	.loc 9 410 0 discriminator 2
	bl	_ZNSt18__char_traits_baseIciE4moveEPcPKcj
.LVL376:
.LBE1955:
	b	.L177
.LVL377:
.L181:
.LBB1956:
	.loc 9 413 0 is_stmt 1
	mov	r0, r7
.LVL378:
	ldr	r2, [sp, #8]
.LVL379:
	bl	_ZNSt18__char_traits_baseIciE4moveEPcPKcj
.LVL380:
	.loc 9 414 0
	mov	r3, #1
.LVL381:
.L194:
	str	r3, [sp]
	mov	r0, r6
	mov	r1, r5
	mov	r2, r4
	ldr	r3, [sp, #40]
	bl	_ZNSs9_M_insertEPcPKcS1_b
.LVL382:
.L177:
.LBE1956:
.LBE1954:
.LBE1949:
.LBE1940:
.LBE1957:
	.loc 9 417 0
	mov	r0, r6
	add	sp, sp, #20
	@ sp needed
.LVL383:
.LVL384:
	pop	{r4, r5, r6, r7, pc}
	.cfi_endproc
.LFE1818:
	.fnend
	.size	_ZNSs10_M_replaceEPcS_PKcS1_b, .-_ZNSs10_M_replaceEPcS_PKcS1_b
	.section	.text._Z13StringReplaceRSsRKSsS1_,"ax",%progbits
	.align	1
	.global	_Z13StringReplaceRSsRKSsS1_
	.code	16
	.thumb_func
	.type	_Z13StringReplaceRSsRKSsS1_, %function
_Z13StringReplaceRSsRKSsS1_:
	.fnstart
.LFB1595:
	.loc 3 431 0
	.cfi_startproc
.LVL385:
	push	{r4, r5, r6, r7, lr}
	.save {r4, r5, r6, r7, lr}
	.cfi_def_cfa_offset 20
	.cfi_offset 4, -20
	.cfi_offset 5, -16
	.cfi_offset 6, -12
	.cfi_offset 7, -8
	.cfi_offset 14, -4
	ldr	r3, [r1, #20]
	mov	ip, r2
	ldr	r2, [r1, #16]
.LVL386:
	.pad #44
	sub	sp, sp, #44
	.cfi_def_cfa_offset 64
	ldr	r4, [r0, #20]
	str	r2, [sp, #8]
.LBB2011:
.LBB2012:
.LBB2013:
.LBB2014:
	.loc 11 400 0
	sub	r7, r2, r3
	ldr	r2, [r0, #16]
.LBE2014:
.LBE2013:
.LBE2012:
.LBE2011:
	.loc 3 431 0
	str	r0, [sp, #20]
.LVL387:
.LBB2043:
.LBB2032:
.LBB2015:
.LBB2016:
.LBB2017:
.LBB2018:
	.loc 11 400 0
	sub	r1, r2, r4
.LVL388:
.LBE2018:
.LBE2017:
	.loc 9 424 0
	beq	.L196
.LBE2016:
.LBE2015:
.LBE2032:
	.loc 3 434 0
	mov	r5, #0
.LBB2033:
.LBB2030:
.LBB2028:
	.loc 9 424 0 discriminator 1
	cmp	r7, r1
	bhi	.L221
	b	.L227
.L196:
	.loc 9 426 0
	mov	r5, r1
	.loc 9 425 0
	cmp	r7, #0
	beq	.L199
	b	.L221
.L227:
.LVL389:
.LBB2019:
.LBB2020:
	.file 13 "D:/android-ndk-r12b/build//../sources/cxx-stl/stlport/stlport/stl/_algobase.c"
	.loc 13 233 0
	cmp	r4, r2
	beq	.L221
	.loc 13 233 0 is_stmt 0 discriminator 1
	ldr	r0, [sp, #8]
.LVL390:
	cmp	r3, r0
	beq	.L215
.LVL391:
	.loc 13 239 0 is_stmt 1
	add	r0, r3, #1
	ldrb	r3, [r3]
.LVL392:
	str	r0, [sp, #24]
.LVL393:
	add	r6, r4, #1
	str	r3, [sp, #28]
	sub	r3, r0, #0
	ldr	r0, [sp, #8]
.LVL394:
	cmp	r3, r0
	bne	.L202
	mov	r3, r4
.LVL395:
.L211:
.LBE2020:
.LBB2022:
.LBB2023:
	.loc 13 240 0 discriminator 1
	ldrb	r5, [r3]
	ldr	r0, [sp, #28]
	cmp	r5, r0
	bne	.L203
	b	.L228
.LVL396:
.L229:
.LBE2023:
.LBE2022:
.LBB2025:
.LBB2021:
	.loc 13 257 0
	cmp	r6, r2
	beq	.L226
	ldr	r0, [sp, #24]
	str	r6, [sp, #16]
	str	r0, [sp, #12]
.LVL397:
.L207:
	.loc 13 259 0
	ldr	r0, [sp, #16]
	ldrb	r0, [r0]
	mov	r5, r0
	ldr	r0, [sp, #12]
	ldrb	r0, [r0]
	str	r0, [sp, #36]
	ldr	r0, [sp, #36]
	cmp	r5, r0
	beq	.L208
.LVL398:
.L205:
	.loc 13 249 0
	ldr	r3, [sp, #32]
	add	r6, r6, #1
.LVL399:
	cmp	r3, r2
	beq	.L226
.LVL400:
.L202:
	sub	r3, r6, #1
.LVL401:
	.loc 13 249 0 is_stmt 0 discriminator 1
	ldrb	r5, [r3]
	ldr	r0, [sp, #28]
	str	r6, [sp, #32]
.LVL402:
	cmp	r5, r0
	bne	.L205
	b	.L229
.LVL403:
.L208:
	.loc 13 260 0 is_stmt 1
	ldr	r0, [sp, #12]
	add	r0, r0, #1
	str	r0, [sp, #12]
.LVL404:
	ldr	r5, [sp, #12]
	ldr	r0, [sp, #8]
.LVL405:
	cmp	r5, r0
	beq	.L200
	.loc 13 262 0
	ldr	r0, [sp, #16]
	add	r0, r0, #1
	str	r0, [sp, #16]
.LVL406:
	cmp	r0, r2
	bne	.L207
	b	.L226
.LVL407:
.L215:
.LBE2021:
	.loc 13 233 0 discriminator 1
	mov	r3, r4
.LVL408:
.L200:
.LBE2025:
.LBE2019:
	.loc 9 434 0 discriminator 1
	sub	r5, r3, r4
.LBE2028:
.LBE2030:
.LBE2033:
	.loc 3 433 0
	add	r3, r5, #1
	beq	.L226
.LVL409:
.LBB2034:
.LBB2035:
	.loc 11 815 0
	cmp	r5, r1
	bls	.L199
.LVL410:
.LBB2036:
.LBB2037:
	.loc 9 604 0
	ldr	r0, .L230
.LPIC48:
	add	r0, pc
	bl	_ZSt24__stl_throw_out_of_rangePKc
.LVL411:
.L199:
.LBE2037:
.LBE2036:
	.loc 11 817 0
	sub	r2, r1, r5
	cmp	r2, r7
	bls	.L209
	mov	r2, r7
.L209:
.LVL412:
	mov	r3, ip
	ldr	r6, [r3, #16]
.LVL413:
	ldr	r3, [r3, #20]
.LVL414:
	sub	r1, r2, r1
	.loc 11 818 0
	sub	r1, r1, #2
.LBB2038:
.LBB2039:
	.loc 11 400 0
	sub	r7, r6, r3
.LVL415:
.LBE2039:
.LBE2038:
	.loc 11 818 0
	cmp	r7, r1
	bls	.L210
.LVL416:
.LBB2040:
.LBB2041:
	.loc 9 600 0
	ldr	r0, .L230+4
.LPIC49:
	add	r0, pc
	bl	_ZSt24__stl_throw_length_errorPKc
.LVL417:
.L210:
.LBE2041:
.LBE2040:
	.loc 11 821 0
	mov	r0, ip
	.loc 11 820 0
	add	r2, r2, r5
	.loc 11 821 0
	add	r1, r4, r5
	add	r2, r4, r2
	ldr	r4, [sp, #20]
	.loc 11 821 0 is_stmt 0 discriminator 2
	str	r6, [sp]
.LVL418:
	.loc 11 821 0
	sub	r4, r0, r4
	.loc 11 821 0 discriminator 2
	neg	r5, r4
	adc	r4, r4, r5
.LVL419:
	ldr	r0, [sp, #20]
	str	r4, [sp, #4]
	bl	_ZNSs10_M_replaceEPcS_PKcS1_b
.LVL420:
.LBE2035:
.LBE2034:
	.loc 3 436 0 is_stmt 1
	mov	r5, #1
	b	.L221
.LVL421:
.L228:
.LBB2042:
.LBB2031:
.LBB2029:
	.loc 9 434 0
	cmp	r3, r2
	bne	.L200
	b	.L226
.LVL422:
.L203:
.LBB2027:
.LBB2026:
.LBB2024:
	.loc 13 241 0
	add	r3, r3, #1
.LVL423:
	.loc 13 240 0
	cmp	r3, r2
	bne	.L211
.LVL424:
.L226:
.LBE2024:
.LBE2026:
.LBE2027:
.LBE2029:
.LBE2031:
.LBE2042:
	.loc 3 434 0
	mov	r5, #0
.LVL425:
.L221:
.LBE2043:
	.loc 3 437 0
	mov	r0, r5
	add	sp, sp, #44
	@ sp needed
	pop	{r4, r5, r6, r7, pc}
.L231:
	.align	2
.L230:
	.word	.LC17-(.LPIC48+4)
	.word	.LC17-(.LPIC49+4)
	.cfi_endproc
.LFE1595:
	.fnend
	.size	_Z13StringReplaceRSsRKSsS1_, .-_Z13StringReplaceRSsRKSsS1_
	.section	.text._Z11SaveCStringPc,"ax",%progbits
	.align	1
	.global	_Z11SaveCStringPc
	.code	16
	.thumb_func
	.type	_Z11SaveCStringPc, %function
_Z11SaveCStringPc:
	.fnstart
.LFB1596:
	.loc 3 440 0
	.cfi_startproc
.LVL426:
	push	{r4, r5, r6, r7, lr}
	.save {r4, r5, r6, r7, lr}
	.cfi_def_cfa_offset 20
	.cfi_offset 4, -20
	.cfi_offset 5, -16
	.cfi_offset 6, -12
	.cfi_offset 7, -8
	.cfi_offset 14, -4
	mov	r5, r0
	ldr	r4, .L234
	.pad #76
	sub	sp, sp, #76
	.cfi_def_cfa_offset 96
.LBB2044:
	.loc 3 442 0 discriminator 1
	add	r6, sp, #20
.LPIC53:
	add	r4, pc
.LBE2044:
	.loc 3 440 0
	ldr	r4, [r4]
.LBB2053:
	.loc 3 442 0 discriminator 3
	add	r7, sp, #44
.LBE2053:
	.loc 3 440 0
	ldr	r3, [r4]
	str	r3, [sp, #68]
.LVL427:
.LBB2054:
	.loc 3 441 0 discriminator 1
	add	r3, sp, #16
.LVL428:
	mov	r2, r3
	str	r3, [sp, #4]
	bl	_ZNSsC1EPKcRKSaIcE
.LVL429:
	.loc 3 442 0 discriminator 1
	ldr	r1, .L234+4
	add	r2, sp, #12
.LVL430:
	mov	r0, r6
.LPIC51:
	add	r1, pc
	bl	_ZNSsC1EPKcRKSaIcE
.LVL431:
	.loc 3 442 0 is_stmt 0 discriminator 3
	ldr	r1, .L234+8
	ldr	r2, [sp, #4]
	mov	r0, r7
.LPIC52:
	add	r1, pc
	bl	_ZNSsC1EPKcRKSaIcE
.LVL432:
	.loc 3 442 0 discriminator 4
	mov	r2, r7
	mov	r1, r6
	mov	r0, r5
	bl	_Z13StringReplaceRSsRKSsS1_
.LVL433:
.LBB2045:
.LBB2046:
.LBB2047:
.LBB2048:
	.loc 8 156 0 is_stmt 1
	mov	r0, r7
	bl	_ZNSt4priv12_String_baseIcSaIcEE19_M_deallocate_blockEv
.LVL434:
.LBE2048:
.LBE2047:
.LBE2046:
.LBE2045:
.LBB2049:
.LBB2050:
.LBB2051:
.LBB2052:
	mov	r0, r6
	bl	_ZNSt4priv12_String_baseIcSaIcEE19_M_deallocate_blockEv
.LVL435:
.LBE2052:
.LBE2051:
.LBE2050:
.LBE2049:
.LBE2054:
	.loc 3 444 0
	ldr	r2, [sp, #68]
	ldr	r3, [r4]
	mov	r0, r5
	cmp	r2, r3
	beq	.L233
	bl	__stack_chk_fail
.LVL436:
.L233:
	add	sp, sp, #76
	@ sp needed
.LVL437:
.LVL438:
	pop	{r4, r5, r6, r7, pc}
.L235:
	.align	2
.L234:
	.word	__stack_chk_guard(GOT_PREL)+(.-(.LPIC53+4))
	.word	.LC18-(.LPIC51+4)
	.word	.LC19-(.LPIC52+4)
	.cfi_endproc
.LFE1596:
	.fnend
	.size	_Z11SaveCStringPc, .-_Z11SaveCStringPc
	.section	.text._ZNSt4priv12_String_baseIcSaIcEE11_M_move_srcERS2_,"axG",%progbits,_ZNSt4priv12_String_baseIcSaIcEE11_M_move_srcERS2_,comdat
	.align	1
	.weak	_ZNSt4priv12_String_baseIcSaIcEE11_M_move_srcERS2_
	.code	16
	.thumb_func
	.type	_ZNSt4priv12_String_baseIcSaIcEE11_M_move_srcERS2_, %function
_ZNSt4priv12_String_baseIcSaIcEE11_M_move_srcERS2_:
	.fnstart
.LFB2010:
	.loc 8 128 0
	.cfi_startproc
.LVL439:
.LBB2055:
.LBB2056:
	.loc 8 64 0
	ldr	r3, [r1, #20]
.LBE2056:
.LBE2055:
	.loc 8 128 0
	push	{r4, r5, r6, lr}
	.save {r4, r5, r6, lr}
	.cfi_def_cfa_offset 16
	.cfi_offset 4, -16
	.cfi_offset 5, -12
	.cfi_offset 6, -8
	.cfi_offset 14, -4
	.loc 8 129 0
	cmp	r3, r1
	bne	.L237
	.loc 8 130 0
	mov	r1, r3
.LVL440:
	mov	r2, r0
	ldmia	r1!, {r4, r5, r6}
	stmia	r2!, {r4, r5, r6}
	ldr	r1, [r1]
	str	r1, [r2]
	.loc 8 131 0
	ldr	r2, [r3, #16]
	.loc 8 132 0
	str	r0, [r0, #20]
	.loc 8 131 0
	sub	r3, r2, r3
	add	r3, r0, r3
	str	r3, [r0, #16]
	b	.L236
.LVL441:
.L237:
	.loc 8 135 0
	str	r3, [r0, #20]
	.loc 8 136 0
	ldr	r3, [r1, #16]
	str	r3, [r0, #16]
	.loc 8 137 0
	ldr	r3, [r1]
	str	r3, [r0]
	.loc 8 138 0
	mov	r3, #0
	str	r3, [r1, #20]
.LVL442:
.L236:
	.loc 8 140 0
	@ sp needed
	pop	{r4, r5, r6, pc}
	.cfi_endproc
.LFE2010:
	.fnend
	.size	_ZNSt4priv12_String_baseIcSaIcEE11_M_move_srcERS2_, .-_ZNSt4priv12_String_baseIcSaIcEE11_M_move_srcERS2_
	.global	__aeabi_uidiv
	.section	.text._ZNSt6vectorISsSaISsEE22_M_insert_overflow_auxEPSsRKSsRKSt12__false_typejb,"axG",%progbits,_ZNSt6vectorISsSaISsEE22_M_insert_overflow_auxEPSsRKSsRKSt12__false_typejb,comdat
	.align	1
	.weak	_ZNSt6vectorISsSaISsEE22_M_insert_overflow_auxEPSsRKSsRKSt12__false_typejb
	.code	16
	.thumb_func
	.type	_ZNSt6vectorISsSaISsEE22_M_insert_overflow_auxEPSsRKSsRKSt12__false_typejb, %function
_ZNSt6vectorISsSaISsEE22_M_insert_overflow_auxEPSsRKSsRKSt12__false_typejb:
	.fnstart
.LFB1923:
	.loc 6 81 0
	.cfi_startproc
.LVL443:
	push	{r4, r5, r6, r7, lr}
	.save {r4, r5, r6, r7, lr}
	.cfi_def_cfa_offset 20
	.cfi_offset 4, -20
	.cfi_offset 5, -16
	.cfi_offset 6, -12
	.cfi_offset 7, -8
	.cfi_offset 14, -4
	.pad #44
	sub	sp, sp, #44
	.cfi_def_cfa_offset 64
	.loc 6 81 0
	add	r3, sp, #64
.LVL444:
	str	r2, [sp, #20]
	ldmia	r3!, {r2}
.LVL445:
	str	r1, [sp, #4]
.LBB2147:
.LBB2148:
.LBB2149:
.LBB2150:
.LBB2151:
	.loc 4 192 0
	ldr	r1, [r0]
.LVL446:
.LBE2151:
.LBE2150:
.LBE2149:
.LBE2148:
.LBE2147:
	.loc 6 81 0
	ldrb	r3, [r3]
.LVL447:
	mov	r4, r0
	str	r3, [sp, #24]
	ldr	r3, .L283
.LPIC64:
	add	r3, pc
	ldr	r3, [r3]
	ldr	r2, [r3]
	str	r3, [sp, #28]
.LBB2227:
.LBB2160:
.LBB2158:
	.loc 4 173 0
	ldr	r3, [sp, #64]
.LBE2158:
.LBE2160:
.LBE2227:
	.loc 6 81 0
	str	r2, [sp, #36]
.LVL448:
.LBB2228:
.LBB2161:
.LBB2159:
.LBB2154:
.LBB2152:
	.loc 4 192 0
	ldr	r2, [r0, #4]
	sub	r7, r2, r1
	ldr	r2, .L283+4
	asr	r6, r7, #3
.LBE2152:
.LBE2154:
	.loc 4 173 0
	ldr	r7, .L283+8
.LBB2155:
.LBB2153:
	.loc 4 192 0
	mov	r5, r2
	mul	r5, r6
.LVL449:
	str	r2, [sp, #16]
.LBE2153:
.LBE2155:
	.loc 4 173 0
	sub	r1, r7, r5
	cmp	r3, r1
	bls	.L240
.LVL450:
.LBB2156:
.LBB2157:
	.loc 6 41 0
	ldr	r0, .L283+12
.LVL451:
.LPIC63:
	add	r0, pc
	bl	_ZSt24__stl_throw_length_errorPKc
.LVL452:
.L240:
	ldr	r3, [sp, #64]
.LVL453:
	cmp	r3, r5
	bcs	.L241
	mov	r3, r5
.L241:
.LBE2157:
.LBE2156:
	.loc 4 175 0
	add	r3, r3, r5
	str	r3, [sp]
.LVL454:
	.loc 4 176 0
	cmp	r3, r7
	bhi	.L262
	.loc 4 176 0 is_stmt 0 discriminator 2
	cmp	r3, r5
	bcc	.LCB5195
	b	.L243	@long jump
.LCB5195:
.L262:
	.loc 4 176 0
	ldr	r3, .L283+8
.LVL455:
	str	r3, [sp]
.LVL456:
.L242:
.LBE2159:
.LBE2161:
.LBB2162:
.LBB2163:
.LBB2164:
.LBB2165:
.LBB2166:
.LBB2167:
.LBB2168:
	.loc 1 347 0 is_stmt 1
	mov	r5, #24
.LVL457:
	ldr	r3, [sp]
	.loc 1 348 0
	add	r0, sp, #32
.LVL458:
	.loc 1 347 0
	mul	r3, r5
	str	r3, [sp, #32]
	.loc 1 348 0
	bl	_ZNSt12__node_alloc8allocateERj
.LVL459:
	.loc 1 352 0
	mov	r1, r5
	.loc 1 348 0
	str	r0, [sp, #8]
.LVL460:
	.loc 1 352 0
	ldr	r0, [sp, #32]
.LVL461:
	bl	__aeabi_uidiv
.LVL462:
	str	r0, [sp]
.LVL463:
.L260:
.LBE2168:
.LBE2167:
.LBE2166:
.LBE2165:
.LBE2164:
.LBE2163:
.LBE2162:
	.loc 6 91 0
	ldr	r6, [r4]
.LVL464:
.LBB2174:
.LBB2175:
	.loc 12 428 0
	ldr	r3, [sp, #4]
	ldr	r2, [sp, #16]
	ldr	r5, [sp, #8]
	sub	r3, r3, r6
	asr	r3, r3, #3
	mul	r2, r3
	mov	r7, r2
	str	r2, [sp, #12]
.LVL465:
.L244:
	.loc 12 428 0 is_stmt 0 discriminator 1
	cmp	r7, #0
	ble	.L281
.LVL466:
.LBB2176:
.LBB2177:
.LBB2178:
	.loc 5 160 0 is_stmt 1
	cmp	r5, #0
	beq	.L263
.LVL467:
.LBB2179:
.LBB2180:
.LBB2181:
.LBB2182:
.LBB2183:
.LBB2184:
	.loc 1 486 0
	ldr	r3, [r6, #20]
.LBE2184:
.LBE2183:
	.loc 8 147 0 discriminator 1
	mov	r0, r5
.LBB2186:
.LBB2185:
	.loc 1 486 0
	str	r3, [r5, #20]
.LVL468:
.LBE2185:
.LBE2186:
	.loc 8 147 0 discriminator 1
	mov	r1, r6
	bl	_ZNSt4priv12_String_baseIcSaIcEE11_M_move_srcERS2_
.LVL469:
.L263:
.LBE2182:
.LBE2181:
.LBE2180:
.LBE2179:
.LBE2178:
.LBE2177:
.LBE2176:
	.loc 12 430 0
	add	r6, r6, #24
.LVL470:
	add	r5, r5, #24
.LVL471:
	.loc 12 428 0 discriminator 3
	sub	r7, r7, #1
.LVL472:
	b	.L244
.LVL473:
.L281:
	ldr	r3, [sp, #12]
	mov	r6, #24
.LVL474:
	mvn	r5, r3
.LVL475:
	asr	r5, r5, #31
	and	r3, r5
	mov	r5, r3
	mul	r5, r6
	ldr	r3, [sp, #8]
	add	r5, r3, r5
.LBE2175:
.LBE2174:
	.loc 6 93 0
	ldr	r3, [sp, #64]
	cmp	r3, #1
	bne	.L248
.LVL476:
.LBB2187:
.LBB2188:
.LBB2189:
	.loc 5 119 0
	cmp	r5, #0
	beq	.L249
	.loc 5 119 0 is_stmt 0 discriminator 3
	mov	r0, r5
	ldr	r1, [sp, #20]
	bl	_ZNSsC1ERKSs
.LVL477:
.L249:
.LBE2189:
.LBE2188:
.LBE2187:
	.loc 6 95 0 is_stmt 1
	add	r5, r5, #24
.LVL478:
	mov	r7, r5
.LVL479:
	b	.L250
.LVL480:
.L248:
.LBB2190:
.LBB2191:
	.loc 12 314 0
	ldr	r3, [sp, #64]
	mul	r3, r6
.LBB2192:
.LBB2193:
.LBB2194:
	.loc 12 249 0
	asr	r6, r3, #3
.LBE2194:
.LBE2193:
.LBE2192:
	.loc 12 314 0
	add	r7, r5, r3
.LVL481:
.LBB2200:
.LBB2199:
.LBB2198:
	.loc 12 249 0
	ldr	r3, [sp, #16]
	mul	r3, r6
	mov	r6, r3
.LVL482:
.L251:
	.loc 12 249 0 is_stmt 0 discriminator 1
	cmp	r6, #0
	ble	.L250
.LVL483:
.LBB2195:
.LBB2196:
.LBB2197:
	.loc 5 139 0 is_stmt 1
	cmp	r5, #0
	beq	.L252
	.loc 5 139 0 is_stmt 0 discriminator 3
	mov	r0, r5
	ldr	r1, [sp, #20]
	bl	_ZNSsC1ERKSs
.LVL484:
.L252:
.LBE2197:
.LBE2196:
.LBE2195:
	.loc 12 249 0 is_stmt 1 discriminator 3
	sub	r6, r6, #1
.LVL485:
	add	r5, r5, #24
.LVL486:
	b	.L251
.LVL487:
.L250:
.LBE2198:
.LBE2199:
.LBE2200:
.LBE2191:
.LBE2190:
	.loc 6 98 0
	ldr	r3, [sp, #24]
	cmp	r3, #0
	bne	.L254
.LVL488:
.LBB2201:
.LBB2202:
	.loc 12 428 0
	ldr	r3, [r4, #4]
	ldr	r2, [sp, #4]
	mov	r6, r7
	sub	r5, r3, r2
	ldr	r3, [sp, #16]
	asr	r5, r5, #3
	mul	r3, r5
	mov	r5, r3
.LVL489:
	str	r3, [sp, #12]
.LVL490:
.L255:
	.loc 12 428 0 is_stmt 0 discriminator 1
	ldr	r3, [sp, #12]
	cmp	r3, #0
	ble	.L282
.LVL491:
.LBB2203:
.LBB2204:
.LBB2205:
	.loc 5 160 0 is_stmt 1
	cmp	r6, #0
	beq	.L264
.LVL492:
.LBB2206:
.LBB2207:
.LBB2208:
.LBB2209:
.LBB2210:
.LBB2211:
	.loc 1 486 0
	ldr	r3, [sp, #4]
.LBE2211:
.LBE2210:
	.loc 8 147 0 discriminator 1
	mov	r0, r6
.LBB2214:
.LBB2212:
	.loc 1 486 0
	ldr	r3, [r3, #20]
.LBE2212:
.LBE2214:
	.loc 8 147 0 discriminator 1
	ldr	r1, [sp, #4]
.LBB2215:
.LBB2213:
	.loc 1 486 0
	str	r3, [r6, #20]
.LVL493:
	str	r3, [sp, #16]
.LBE2213:
.LBE2215:
	.loc 8 147 0 discriminator 1
	bl	_ZNSt4priv12_String_baseIcSaIcEE11_M_move_srcERS2_
.LVL494:
.L264:
.LBE2209:
.LBE2208:
.LBE2207:
.LBE2206:
.LBE2205:
.LBE2204:
.LBE2203:
	.loc 12 430 0
	ldr	r3, [sp, #4]
	add	r6, r6, #24
.LVL495:
	add	r3, r3, #24
	str	r3, [sp, #4]
.LVL496:
	.loc 12 428 0 discriminator 3
	ldr	r3, [sp, #12]
.LVL497:
	sub	r3, r3, #1
	str	r3, [sp, #12]
.LVL498:
	b	.L255
.LVL499:
.L282:
	mvn	r3, r5
.LVL500:
	mov	r2, r5
	asr	r3, r3, #31
	and	r2, r3
	mov	r3, #24
	mov	r5, r2
	mul	r5, r3
	add	r7, r7, r5
.LVL501:
.L254:
	ldr	r0, [r4]
.LVL502:
.LBE2202:
.LBE2201:
.LBB2216:
.LBB2217:
	.loc 4 662 0
	ldr	r3, [r4, #8]
	sub	r1, r3, r0
.LVL503:
.LBB2218:
.LBB2219:
	.loc 1 319 0
	cmp	r0, #0
	beq	.L259
	.loc 1 323 0
	bl	_ZNSt12__node_alloc10deallocateEPvj
.LVL504:
.L259:
.LBE2219:
.LBE2218:
.LBE2217:
.LBE2216:
.LBB2220:
.LBB2221:
	.loc 4 666 0
	ldr	r3, [sp, #8]
.LBE2221:
.LBE2220:
	.loc 6 104 0
	ldr	r2, [sp]
.LBB2224:
.LBB2222:
	.loc 4 667 0
	str	r7, [r4, #4]
	.loc 4 666 0
	str	r3, [r4]
.LBE2222:
.LBE2224:
	.loc 6 104 0
	mov	r3, #24
	mul	r2, r3
	mov	r3, r2
	ldr	r2, [sp, #8]
	add	r3, r2, r3
.LVL505:
.LBB2225:
.LBB2223:
	.loc 4 668 0
	str	r3, [r4, #8]
.LBE2223:
.LBE2225:
.LBE2228:
	.loc 6 105 0
	ldr	r3, [sp, #28]
.LVL506:
	ldr	r2, [sp, #36]
	ldr	r3, [r3]
	cmp	r2, r3
	beq	.L261
	bl	__stack_chk_fail
.LVL507:
.L243:
.LBB2229:
.LBB2226:
.LBB2173:
.LBB2172:
.LBB2171:
.LBB2170:
.LBB2169:
	.loc 1 346 0
	ldr	r3, [sp]
	cmp	r3, #0
	beq	.LCB5908
	b	.L242	@long jump
.LCB5908:
.LBE2169:
	.loc 1 356 0
	str	r3, [sp, #8]
	b	.L260
.LVL508:
.L261:
.LBE2170:
.LBE2171:
.LBE2172:
.LBE2173:
.LBE2226:
.LBE2229:
	.loc 6 105 0
	add	sp, sp, #44
.LVL509:
	@ sp needed
.LVL510:
.LVL511:
	pop	{r4, r5, r6, r7, pc}
.L284:
	.align	2
.L283:
	.word	__stack_chk_guard(GOT_PREL)+(.-(.LPIC64+4))
	.word	-1431655765
	.word	178956970
	.word	.LC3-(.LPIC63+4)
	.cfi_endproc
.LFE1923:
	.fnend
	.size	_ZNSt6vectorISsSaISsEE22_M_insert_overflow_auxEPSsRKSsRKSt12__false_typejb, .-_ZNSt6vectorISsSaISsEE22_M_insert_overflow_auxEPSsRKSsRKSt12__false_typejb
	.section	.text._Z8ReadMapsiRSt6vectorISsSaISsEE,"ax",%progbits
	.align	1
	.global	_Z8ReadMapsiRSt6vectorISsSaISsEE
	.code	16
	.thumb_func
	.type	_Z8ReadMapsiRSt6vectorISsSaISsEE, %function
_Z8ReadMapsiRSt6vectorISsSaISsEE:
	.fnstart
.LFB1582:
	.loc 3 179 0
	.cfi_startproc
.LVL512:
	push	{r4, r5, r6, r7, lr}
	.save {r4, r5, r6, r7, lr}
	.cfi_def_cfa_offset 20
	.cfi_offset 4, -20
	.cfi_offset 5, -16
	.cfi_offset 6, -12
	.cfi_offset 7, -8
	.cfi_offset 14, -4
	ldr	r7, .L306
	ldr	r4, .L306+4
	ldr	r2, .L306+8
.LPIC70:
	add	r7, pc
	ldr	r7, [r7]
	.pad #2132
	add	sp, sp, r4
	.cfi_def_cfa_offset 2152
	.loc 3 179 0
	mov	r4, r1
	ldr	r3, [r7]
	add	r1, sp, #16
.LVL513:
	add	r2, r2, r1
	str	r3, [r2]
.LBB2341:
	.loc 3 180 0
	mov	r2, #128
	add	r6, sp, #76
	mov	r1, #0
	lsl	r2, r2, #3
.LBE2341:
	.loc 3 179 0
	mov	r5, r0
.LBB2387:
	.loc 3 180 0
	mov	r0, r6
.LVL514:
	bl	memset
.LVL515:
	mov	r2, #128
	add	r0, sp, #1020
	add	r0, r0, #80
	mov	r1, #0
	lsl	r2, r2, #3
	bl	memset
.LVL516:
	str	r7, [sp, #20]
	.loc 3 181 0
	cmp	r5, #0
	bne	.L286
	.loc 3 182 0
	bl	getpid
.LVL517:
	mov	r5, r0
.LVL518:
.L286:
	.loc 3 186 0
	ldr	r1, .L306+12
	mov	r2, r5
.LPIC66:
	add	r1, pc
	mov	r0, r6
	bl	sprintf
.LVL519:
	.loc 3 187 0
	ldr	r1, .L306+16
	mov	r0, r6
.LPIC67:
	add	r1, pc
	bl	fopen
.LVL520:
	str	r0, [sp, #12]
.LVL521:
	.loc 3 188 0
	cmp	r0, #0
	bne	.L287
	.loc 3 189 0
	ldr	r1, .L306+20
	ldr	r2, .L306+24
	mov	r3, r6
.LPIC68:
	add	r1, pc
.LPIC69:
	add	r2, pc
	mov	r0, #3
.LVL522:
	bl	__android_log_print
.LVL523:
	b	.L285
.LVL524:
.L287:
	ldr	r6, [r4]
.LVL525:
	ldr	r7, [r4, #4]
.LVL526:
.LBB2342:
.LBB2343:
.LBB2344:
	.loc 4 630 0
	cmp	r6, r7
	beq	.L291
	mov	r5, r6
.LVL527:
.L290:
.LBB2345:
.LBB2346:
.LBB2347:
.LBB2348:
.LBB2349:
.LBB2350:
.LBB2351:
.LBB2352:
.LBB2353:
.LBB2354:
.LBB2355:
.LBB2356:
	.loc 8 156 0
	mov	r0, r5
.LBE2356:
.LBE2355:
.LBE2354:
.LBE2353:
.LBE2352:
	.loc 5 191 0 discriminator 2
	add	r5, r5, #24
.LVL528:
.LBB2361:
.LBB2360:
.LBB2359:
.LBB2358:
.LBB2357:
	.loc 8 156 0
	bl	_ZNSt4priv12_String_baseIcSaIcEE19_M_deallocate_blockEv
.LVL529:
.LBE2357:
.LBE2358:
.LBE2359:
.LBE2360:
.LBE2361:
	.loc 5 191 0 discriminator 1
	cmp	r5, r7
	bne	.L290
.LVL530:
.LBE2351:
.LBE2350:
.LBE2349:
.LBE2348:
.LBE2347:
	.loc 4 608 0
	str	r6, [r4, #4]
	b	.L291
.LVL531:
.L297:
.LBE2346:
.LBE2345:
.LBE2344:
.LBE2343:
.LBE2342:
.LBB2362:
	.loc 3 195 0
	mov	r0, r6
	bl	strlen
.LVL532:
	mov	r3, #0
	add	r0, r6, r0
	sub	r0, r0, #1
	strb	r3, [r0]
.LVL533:
	.loc 3 196 0 discriminator 1
	add	r5, sp, #28
	add	r3, sp, #24
.LVL534:
	mov	r1, r6
	mov	r2, r3
	mov	r0, r5
	str	r3, [sp, #16]
	bl	_ZNSsC1EPKcRKSaIcE
.LVL535:
.LBB2363:
.LBB2364:
	.loc 4 380 0
	ldr	r6, [r4, #4]
	ldr	r3, [r4, #8]
	cmp	r6, r3
	beq	.L292
.LVL536:
.LBB2365:
.LBB2366:
.LBB2367:
	.loc 5 119 0
	cmp	r6, #0
	beq	.L293
	.loc 5 119 0 is_stmt 0 discriminator 3
	mov	r0, r6
	mov	r1, r5
	bl	_ZNSsC1ERKSs
.LVL537:
.L293:
.LBE2367:
.LBE2366:
.LBE2365:
	.loc 4 382 0 is_stmt 1
	ldr	r3, [r4, #4]
	add	r3, r3, #24
	str	r3, [r4, #4]
.LVL538:
.L294:
.LBE2364:
.LBE2363:
.LBB2381:
.LBB2382:
.LBB2383:
.LBB2384:
	.loc 8 156 0
	add	r0, sp, #28
	bl	_ZNSt4priv12_String_baseIcSaIcEE19_M_deallocate_blockEv
.LVL539:
.L291:
.LBE2384:
.LBE2383:
.LBE2382:
.LBE2381:
.LBE2362:
	.loc 3 193 0
	mov	r1, #128
	add	r6, sp, #1020
	add	r6, r6, #80
	mov	r0, r6
	lsl	r1, r1, #3
	ldr	r2, [sp, #12]
	bl	fgets
.LVL540:
	cmp	r0, #0
	bne	.L297
	b	.L305
.LVL541:
.L292:
.LBB2386:
.LBB2385:
.LBB2380:
.LBB2368:
.LBB2369:
.LBB2370:
.LBB2371:
.LBB2372:
.LBB2373:
.LBB2374:
	.loc 4 416 0
	ldr	r3, [r4]
	cmp	r3, r5
	bhi	.L295
	.loc 4 416 0 is_stmt 0 discriminator 1
	cmp	r6, r5
	bls	.L295
.LBE2374:
.LBE2373:
.LBB2375:
	.loc 4 150 0 is_stmt 1
	add	r7, sp, #52
	mov	r1, r5
	mov	r0, r7
	bl	_ZNSsC1ERKSs
.LVL542:
	.loc 4 151 0
	mov	r3, #1
	mov	r0, r4
	str	r3, [sp]
	str	r3, [sp, #4]
	mov	r1, r6
	mov	r2, r7
	ldr	r3, [sp, #16]
	bl	_ZNSt6vectorISsSaISsEE22_M_insert_overflow_auxEPSsRKSsRKSt12__false_typejb
.LVL543:
.LBB2376:
.LBB2377:
.LBB2378:
.LBB2379:
	.loc 8 156 0
	mov	r0, r7
	bl	_ZNSt4priv12_String_baseIcSaIcEE19_M_deallocate_blockEv
.LVL544:
	b	.L294
.LVL545:
.L295:
.LBE2379:
.LBE2378:
.LBE2377:
.LBE2376:
.LBE2375:
	.loc 4 154 0
	mov	r3, #1
	mov	r0, r4
	str	r3, [sp]
	str	r3, [sp, #4]
	mov	r1, r6
	mov	r2, r5
	ldr	r3, [sp, #16]
	bl	_ZNSt6vectorISsSaISsEE22_M_insert_overflow_auxEPSsRKSsRKSt12__false_typejb
.LVL546:
	b	.L294
.LVL547:
.L305:
.LBE2372:
.LBE2371:
.LBE2370:
.LBE2369:
.LBE2368:
.LBE2380:
.LBE2385:
.LBE2386:
	.loc 3 201 0
	ldr	r0, [sp, #12]
	bl	fclose
.LVL548:
.L285:
.LBE2387:
	.loc 3 203 0
	ldr	r3, .L306+8
	add	r2, sp, #16
	add	r3, r3, r2
	ldr	r2, [r3]
	ldr	r3, [sp, #20]
	ldr	r3, [r3]
	cmp	r2, r3
	beq	.L299
	bl	__stack_chk_fail
.LVL549:
.L299:
	ldr	r3, .L306+28
	add	sp, sp, r3
	@ sp needed
.LVL550:
	pop	{r4, r5, r6, r7, pc}
.L307:
	.align	2
.L306:
	.word	__stack_chk_guard(GOT_PREL)+(.-(.LPIC70+4))
	.word	-2132
	.word	2108
	.word	.LC20-(.LPIC66+4)
	.word	.LC21-(.LPIC67+4)
	.word	.LC1-(.LPIC68+4)
	.word	.LC22-(.LPIC69+4)
	.word	2132
	.cfi_endproc
.LFE1582:
	.fnend
	.size	_Z8ReadMapsiRSt6vectorISsSaISsEE, .-_Z8ReadMapsiRSt6vectorISsSaISsEE
	.section	.text.FindLibraryPath,"ax",%progbits
	.align	1
	.global	FindLibraryPath
	.code	16
	.thumb_func
	.type	FindLibraryPath, %function
FindLibraryPath:
	.fnstart
.LFB1583:
	.loc 3 206 0
	.cfi_startproc
.LVL551:
	push	{r4, r5, r6, r7, lr}
	.save {r4, r5, r6, r7, lr}
	.cfi_def_cfa_offset 20
	.cfi_offset 4, -20
	.cfi_offset 5, -16
	.cfi_offset 6, -12
	.cfi_offset 7, -8
	.cfi_offset 14, -4
.LBB2388:
.LBB2389:
.LBB2390:
.LBB2391:
	.loc 4 67 0
	mov	r4, #0
	ldr	r5, .L317
.LBE2391:
.LBE2390:
.LBE2389:
.LBE2388:
	.loc 3 206 0
	.pad #44
	sub	sp, sp, #44
	.cfi_def_cfa_offset 64
.LBB2407:
.LBB2400:
.LBB2397:
.LBB2394:
	.loc 4 67 0
	add	r7, sp, #24
.LPIC76:
	add	r5, pc
.LBE2394:
.LBE2397:
.LBE2400:
.LBE2407:
	.loc 3 206 0
	ldr	r5, [r5]
	str	r0, [sp, #12]
	str	r1, [sp, #16]
	ldr	r3, [r5]
.LBB2408:
	.loc 3 208 0
	mov	r1, r7
.LVL552:
.LBB2401:
.LBB2398:
.LBB2395:
	.loc 4 67 0
	str	r4, [r7, #4]
.LBB2392:
.LBB2393:
	.loc 1 481 0
	str	r4, [r7, #8]
.LBE2393:
.LBE2392:
.LBE2395:
.LBE2398:
.LBE2401:
	.loc 3 208 0
	mov	r0, r4
.LVL553:
.LBE2408:
	.loc 3 206 0
	str	r3, [sp, #36]
.LVL554:
.LBB2409:
.LBB2402:
.LBB2399:
.LBB2396:
	.loc 4 67 0
	str	r4, [sp, #24]
.LBE2396:
.LBE2399:
.LBE2402:
	.loc 3 208 0
	bl	_Z8ReadMapsiRSt6vectorISsSaISsEE
.LVL555:
.LBB2403:
.LBB2404:
.LBB2405:
	.loc 4 192 0
	ldr	r6, [sp, #24]
	ldr	r3, [r7, #4]
	ldr	r2, .L317+4
	str	r5, [sp, #20]
	sub	r3, r3, r6
	asr	r3, r3, #3
	mov	r1, r2
	mul	r1, r3
	add	r6, r6, #20
	str	r1, [sp, #8]
.LVL556:
.L309:
.LBE2405:
.LBE2404:
	.loc 3 210 0 discriminator 1
	ldr	r3, [sp, #8]
	cmp	r4, r3
	beq	.L313
.LVL557:
	ldr	r3, [r6]
.LBB2406:
	.loc 3 213 0 discriminator 2
	ldr	r1, [sp, #12]
	add	r6, r6, #24
.LVL558:
	mov	r0, r3
	str	r3, [sp, #4]
.LVL559:
	bl	strstr
.LVL560:
	sub	r5, r0, #0
.LVL561:
	.loc 3 213 0 is_stmt 0
	beq	.L310
.LVL562:
	.loc 3 214 0 is_stmt 1 discriminator 2
	ldr	r1, .L317+8
	ldr	r2, .L317+12
	mov	r0, #3
.LVL563:
.LPIC72:
	add	r1, pc
.LPIC73:
	add	r2, pc
	ldr	r3, [sp, #4]
	bl	__android_log_print
.LVL564:
.L311:
	.loc 3 215 0 discriminator 1
	ldrb	r3, [r5]
	cmp	r3, #32
	beq	.L316
	.loc 3 215 0 is_stmt 0 discriminator 2
	sub	r5, r5, #1
.LVL565:
	b	.L311
.L316:
	.loc 3 216 0 is_stmt 1
	add	r5, r5, #1
.LVL566:
	.loc 3 217 0
	mov	r1, r5
	ldr	r0, [sp, #16]
	bl	strcpy
.LVL567:
	.loc 3 218 0
	ldr	r1, .L317+16
	ldr	r2, .L317+20
	mov	r3, r5
.LPIC74:
	add	r1, pc
.LPIC75:
	add	r2, pc
	mov	r0, #3
	bl	__android_log_print
.LVL568:
	.loc 3 219 0
	b	.L313
.LVL569:
.L310:
.LBE2406:
	.loc 3 210 0 discriminator 2
	add	r4, r4, #1
.LVL570:
	b	.L309
.LVL571:
.L313:
.LBE2403:
	.loc 3 221 0
	mov	r0, r7
	bl	_ZNSt6vectorISsSaISsEED1Ev
.LVL572:
.LBE2409:
	.loc 3 222 0
	ldr	r3, [sp, #20]
	ldr	r2, [sp, #36]
	ldr	r3, [r3]
	cmp	r2, r3
	beq	.L315
	bl	__stack_chk_fail
.LVL573:
.L315:
	add	sp, sp, #44
	@ sp needed
.LVL574:
.LVL575:
	pop	{r4, r5, r6, r7, pc}
.L318:
	.align	2
.L317:
	.word	__stack_chk_guard(GOT_PREL)+(.-(.LPIC76+4))
	.word	-1431655765
	.word	.LC1-(.LPIC72+4)
	.word	.LC23-(.LPIC73+4)
	.word	.LC1-(.LPIC74+4)
	.word	.LC23-(.LPIC75+4)
	.cfi_endproc
.LFE1583:
	.fnend
	.size	FindLibraryPath, .-FindLibraryPath
	.section	.text.MonoLoadAndInvokeAssembly,"ax",%progbits
	.align	1
	.global	MonoLoadAndInvokeAssembly
	.code	16
	.thumb_func
	.type	MonoLoadAndInvokeAssembly, %function
MonoLoadAndInvokeAssembly:
	.fnstart
.LFB1580:
	.loc 3 82 0
	.cfi_startproc
.LVL576:
	push	{r4, r5, r6, r7, lr}
	.save {r4, r5, r6, r7, lr}
	.cfi_def_cfa_offset 20
	.cfi_offset 4, -20
	.cfi_offset 5, -16
	.cfi_offset 6, -12
	.cfi_offset 7, -8
	.cfi_offset 14, -4
	ldr	r4, .L327
	ldr	r5, .L327+4
	.pad #1116
	add	sp, sp, r4
	.cfi_def_cfa_offset 1136
	.loc 3 82 0
	str	r3, [sp, #56]
	ldr	r3, .L327+8
.LVL577:
	str	r0, [sp, #52]
	str	r1, [sp, #24]
	str	r2, [sp, #28]
.LPIC77:
	add	r5, pc
	ldr	r4, [r5, r3]
	add	r2, sp, #1020
.LVL578:
	add	r2, r2, #88
	ldr	r3, [r4]
.LBB2426:
	.loc 3 83 0
	add	r6, sp, #84
	mov	r1, #0
.LVL579:
.LBE2426:
	.loc 3 82 0
	str	r3, [r2]
.LBB2441:
	.loc 3 83 0
	mov	r2, #128
	mov	r0, r6
.LVL580:
	lsl	r2, r2, #3
	bl	memset
.LVL581:
	.loc 3 84 0
	mov	r2, #128
	ldr	r0, .L327+12
	mov	r1, r6
.LPIC78:
	add	r0, pc
	lsl	r2, r2, #3
	bl	FindLibraryPath
.LVL582:
	.loc 3 85 0
	ldrb	r3, [r6]
	str	r4, [sp, #60]
	cmp	r3, #0
	bne	.L320
	.loc 3 86 0
	ldr	r1, .L327+16
	ldr	r2, .L327+20
	mov	r0, #3
.LPIC79:
	add	r1, pc
.LPIC80:
	add	r2, pc
	bl	__android_log_print
.LVL583:
	b	.L319
.L320:
	.loc 3 89 0
	ldr	r4, .L327+24
	ldr	r2, .L327+28
	mov	r3, r6
.LPIC81:
	add	r4, pc
.LPIC82:
	add	r2, pc
	mov	r1, r4
	mov	r0, #3
	bl	__android_log_print
.LVL584:
	.loc 3 90 0
	mov	r0, r6
	mov	r1, #0
	bl	dlopen
.LVL585:
	.loc 3 91 0
	ldr	r1, .L327+32
	.loc 3 90 0
	mov	r7, r0
.LVL586:
	.loc 3 91 0
.LPIC83:
	add	r1, pc
	bl	dlsym
.LVL587:
	ldr	r2, .L327+36
	mov	r3, r0
	ldr	r6, [r5, r2]
	.loc 3 92 0
	ldr	r2, .L327+40
	mov	r1, r4
	.loc 3 91 0
	str	r0, [r6]
	.loc 3 92 0
.LPIC85:
	add	r2, pc
	mov	r0, #3
	bl	__android_log_print
.LVL588:
	.loc 3 93 0
	ldr	r3, [r6]
	blx	r3
.LVL589:
	.loc 3 94 0
	ldr	r2, .L327+44
	.loc 3 93 0
	mov	r3, r0
.LVL590:
	.loc 3 94 0
.LPIC87:
	add	r2, pc
	mov	r1, r4
	mov	r0, #3
.LVL591:
	bl	__android_log_print
.LVL592:
	.loc 3 96 0
	ldr	r1, .L327+48
	mov	r0, r7
.LPIC88:
	add	r1, pc
	bl	dlsym
.LVL593:
	ldr	r2, .L327+52
	mov	r3, r0
	ldr	r2, [r5, r2]
	.loc 3 97 0
	mov	r1, r4
	.loc 3 96 0
	str	r0, [r2]
	str	r2, [sp, #20]
	.loc 3 97 0
	ldr	r2, .L327+56
	mov	r0, #3
.LPIC90:
	add	r2, pc
	bl	__android_log_print
.LVL594:
	.loc 3 99 0
	ldr	r1, .L327+60
	mov	r0, r7
.LPIC91:
	add	r1, pc
	bl	dlsym
.LVL595:
	ldr	r2, .L327+64
	mov	r3, r0
	ldr	r2, [r5, r2]
	.loc 3 100 0
	mov	r1, r4
	.loc 3 99 0
	str	r0, [r2]
	.loc 3 100 0
	ldr	r2, .L327+68
	mov	r0, #3
.LPIC93:
	add	r2, pc
	bl	__android_log_print
.LVL596:
	.loc 3 102 0
	ldr	r1, .L327+72
	mov	r0, r7
.LPIC94:
	add	r1, pc
	bl	dlsym
.LVL597:
	ldr	r2, .L327+76
	mov	r3, r0
	ldr	r6, [r5, r2]
	.loc 3 103 0
	ldr	r2, .L327+80
	mov	r1, r4
	.loc 3 102 0
	str	r0, [r6]
	.loc 3 103 0
.LPIC96:
	add	r2, pc
	mov	r0, #3
	bl	__android_log_print
.LVL598:
	.loc 3 104 0
	ldr	r3, [r6]
	blx	r3
.LVL599:
	mov	r6, r0
.LVL600:
	.loc 3 105 0
	ldr	r2, .L327+84
	mov	r3, r6
.LPIC98:
	add	r2, pc
	mov	r1, r4
	mov	r0, #3
.LVL601:
	bl	__android_log_print
.LVL602:
	.loc 3 107 0
	ldr	r1, .L327+88
	mov	r0, r7
.LPIC99:
	add	r1, pc
	bl	dlsym
.LVL603:
	ldr	r2, .L327+92
	mov	r3, r0
	ldr	r2, [r5, r2]
	.loc 3 108 0
	mov	r1, r4
	.loc 3 107 0
	str	r0, [r2]
	str	r2, [sp, #32]
	.loc 3 108 0
	ldr	r2, .L327+96
	mov	r0, #3
.LPIC101:
	add	r2, pc
	bl	__android_log_print
.LVL604:
	.loc 3 109 0
	ldr	r3, [sp, #32]
	mov	r0, r6
	ldr	r3, [r3]
	blx	r3
.LVL605:
	.loc 3 111 0
	ldr	r1, .L327+100
	mov	r0, r7
.LPIC102:
	add	r1, pc
	bl	dlsym
.LVL606:
	ldr	r2, .L327+104
	mov	r3, r0
	ldr	r2, [r5, r2]
	.loc 3 112 0
	mov	r1, r4
	.loc 3 111 0
	str	r0, [r2]
	str	r2, [sp, #32]
	.loc 3 112 0
	ldr	r2, .L327+108
	mov	r0, #3
.LPIC104:
	add	r2, pc
	bl	__android_log_print
.LVL607:
	.loc 3 114 0
	ldr	r1, .L327+112
	mov	r0, r7
.LPIC105:
	add	r1, pc
	bl	dlsym
.LVL608:
	ldr	r2, .L327+116
	mov	r3, r0
	ldr	r2, [r5, r2]
	.loc 3 115 0
	mov	r1, r4
	.loc 3 114 0
	str	r0, [r2]
	str	r2, [sp, #36]
	.loc 3 115 0
	ldr	r2, .L327+120
	mov	r0, #3
.LPIC107:
	add	r2, pc
	bl	__android_log_print
.LVL609:
	.loc 3 117 0
	ldr	r1, .L327+124
	mov	r0, r7
.LPIC108:
	add	r1, pc
	bl	dlsym
.LVL610:
	ldr	r2, .L327+128
	mov	r3, r0
	ldr	r2, [r5, r2]
	.loc 3 118 0
	mov	r1, r4
	.loc 3 117 0
	str	r0, [r2]
	str	r2, [sp, #40]
	.loc 3 118 0
	ldr	r2, .L327+132
	mov	r0, #3
.LPIC110:
	add	r2, pc
	bl	__android_log_print
.LVL611:
	.loc 3 120 0
	ldr	r1, .L327+136
	mov	r0, r7
.LPIC111:
	add	r1, pc
	bl	dlsym
.LVL612:
	ldr	r2, .L327+140
	mov	r3, r0
	ldr	r2, [r5, r2]
	.loc 3 121 0
	mov	r1, r4
	.loc 3 120 0
	str	r0, [r2]
	str	r2, [sp, #44]
	.loc 3 121 0
	ldr	r2, .L327+144
	mov	r0, #3
.LPIC113:
	add	r2, pc
	bl	__android_log_print
.LVL613:
	.loc 3 123 0
	ldr	r1, .L327+148
	mov	r0, r7
.LPIC114:
	add	r1, pc
	bl	dlsym
.LVL614:
	ldr	r2, .L327+152
	mov	r3, r0
	ldr	r2, [r5, r2]
	.loc 3 129 0
	add	r7, sp, #72
.LVL615:
	.loc 3 124 0
	mov	r1, r4
	.loc 3 123 0
	str	r0, [r2]
	str	r2, [sp, #48]
	.loc 3 124 0
	ldr	r2, .L327+156
	mov	r0, #3
.LPIC116:
	add	r2, pc
	bl	__android_log_print
.LVL616:
	.loc 3 129 0
	mov	r0, r7
	ldr	r1, [sp, #52]
	bl	_Z8ReadFilePKc
.LVL617:
.LBB2427:
.LBB2428:
	.loc 4 192 0
	ldr	r2, [sp, #72]
	ldr	r3, [r7, #4]
.LBE2428:
.LBE2427:
	.loc 3 133 0
	mov	r5, #0
.LBB2430:
.LBB2429:
	.loc 4 192 0
	sub	r3, r3, r2
.LBE2429:
.LBE2430:
	.loc 3 130 0 discriminator 1
	ldr	r2, .L327+160
	mov	r1, r4
.LPIC118:
	add	r2, pc
	mov	r0, #3
	bl	__android_log_print
.LVL618:
	ldr	r2, [sp, #72]
.LVL619:
	.loc 3 131 0 discriminator 5
	mov	r0, #3
	.loc 3 131 0 is_stmt 0
	ldrb	r1, [r2, #1]
	ldrb	r3, [r2]
	.loc 3 134 0 is_stmt 1 discriminator 2
	add	r6, sp, #68
.LVL620:
	.loc 3 131 0
	str	r1, [sp]
	ldrb	r1, [r2, #2]
	str	r1, [sp, #4]
	ldrb	r1, [r2, #3]
	str	r1, [sp, #8]
	ldrb	r2, [r2, #4]
	.loc 3 131 0 is_stmt 0 discriminator 5
	mov	r1, r4
	.loc 3 131 0
	str	r2, [sp, #12]
	.loc 3 131 0 discriminator 5
	ldr	r2, .L327+164
.LPIC120:
	add	r2, pc
	bl	__android_log_print
.LVL621:
.LBB2431:
.LBB2432:
	.loc 4 192 0 is_stmt 1
	ldr	r2, [sp, #72]
	ldr	r3, [r7, #4]
.LBE2432:
.LBE2431:
	.loc 3 133 0
	str	r5, [sp, #68]
.LVL622:
	.loc 3 134 0 discriminator 2
	mov	r0, r2
.LBB2434:
.LBB2433:
	.loc 4 192 0
	sub	r1, r3, r2
.LBE2433:
.LBE2434:
	.loc 3 134 0 discriminator 2
	ldr	r3, [sp, #20]
	mov	r2, #1
	ldr	r3, [r3]
	mov	ip, r3
	mov	r3, r6
	blx	ip
.LVL623:
	.loc 3 135 0
	ldr	r3, [sp, #68]
	ldr	r2, .L327+168
	.loc 3 134 0 discriminator 2
	str	r0, [sp, #20]
.LVL624:
	.loc 3 135 0
	str	r3, [sp]
	mov	r1, r4
.LPIC122:
	add	r2, pc
	ldr	r3, [sp, #20]
	mov	r0, #3
.LVL625:
	bl	__android_log_print
.LVL626:
	.loc 3 137 0
	ldr	r3, [sp, #32]
	mov	r2, r6
	ldr	r3, [r3]
	mov	r1, r5
	mov	ip, r3
	ldr	r0, [sp, #20]
	mov	r3, r5
	blx	ip
.LVL627:
	mov	r6, r0
.LVL628:
	.loc 3 138 0
	ldr	r2, .L327+172
	mov	r1, r4
.LPIC124:
	add	r2, pc
	mov	r3, r6
	mov	r0, #3
.LVL629:
	bl	__android_log_print
.LVL630:
	.loc 3 140 0
	ldr	r3, [sp, #36]
	mov	r0, r6
	ldr	r3, [r3]
	blx	r3
.LVL631:
	mov	r6, r0
.LVL632:
	.loc 3 141 0
	ldr	r2, .L327+176
	mov	r3, r6
	mov	r1, r4
.LPIC126:
	add	r2, pc
	mov	r0, #3
.LVL633:
	bl	__android_log_print
.LVL634:
	.loc 3 143 0
	ldr	r3, [sp, #28]
	ldr	r2, .L327+180
	mov	r1, r4
	str	r3, [sp]
.LPIC128:
	add	r2, pc
	ldr	r3, [sp, #24]
	mov	r0, #3
	bl	__android_log_print
.LVL635:
	.loc 3 144 0
	ldr	r3, [sp, #40]
	mov	r0, r6
	ldr	r3, [r3]
	ldr	r1, [sp, #24]
	ldr	r2, [sp, #28]
	blx	r3
.LVL636:
	mov	r6, r0
.LVL637:
	.loc 3 145 0
	ldr	r2, .L327+184
	mov	r3, r6
	mov	r1, r4
.LPIC130:
	add	r2, pc
	mov	r0, #3
.LVL638:
	bl	__android_log_print
.LVL639:
	.loc 3 147 0
	ldr	r3, [sp, #44]
	mov	r0, r6
	ldr	r3, [r3]
	ldr	r1, [sp, #56]
	mov	r2, r5
	blx	r3
.LVL640:
	mov	r6, r0
.LVL641:
	.loc 3 148 0
	ldr	r2, .L327+188
	mov	r1, r4
.LPIC132:
	add	r2, pc
	mov	r3, r6
	mov	r0, #3
.LVL642:
	bl	__android_log_print
.LVL643:
	.loc 3 150 0
	ldr	r3, [sp, #48]
	mov	r1, r5
	ldr	r3, [r3]
	mov	r2, r5
	mov	ip, r3
	mov	r0, r6
	mov	r3, r5
	blx	ip
.LVL644:
	.loc 3 151 0
	ldr	r2, .L327+192
	mov	r0, #3
	mov	r1, r4
.LPIC134:
	add	r2, pc
	bl	__android_log_print
.LVL645:
.LBB2435:
.LBB2436:
.LBB2437:
.LBB2438:
	.loc 4 87 0
	ldr	r0, [sp, #72]
	cmp	r0, r5
	beq	.L319
.LVL646:
	.loc 4 88 0
	ldr	r1, [r7, #8]
	sub	r1, r1, r0
.LBB2439:
.LBB2440:
	.loc 1 323 0
	bl	_ZNSt12__node_alloc10deallocateEPvj
.LVL647:
.L319:
.LBE2440:
.LBE2439:
.LBE2438:
.LBE2437:
.LBE2436:
.LBE2435:
.LBE2441:
	.loc 3 152 0
	add	r3, sp, #1020
	add	r3, r3, #88
	ldr	r2, [r3]
	ldr	r3, [sp, #60]
	ldr	r3, [r3]
	cmp	r2, r3
	beq	.L323
	bl	__stack_chk_fail
.LVL648:
.L323:
	ldr	r3, .L327+196
	add	sp, sp, r3
	@ sp needed
	pop	{r4, r5, r6, r7, pc}
.L328:
	.align	2
.L327:
	.word	-1116
	.word	_GLOBAL_OFFSET_TABLE_-(.LPIC77+4)
	.word	__stack_chk_guard(GOT)
	.word	.LC24-(.LPIC78+4)
	.word	.LC1-(.LPIC79+4)
	.word	.LC25-(.LPIC80+4)
	.word	.LC1-(.LPIC81+4)
	.word	.LC26-(.LPIC82+4)
	.word	.LC27-(.LPIC83+4)
	.word	mono_domain_get(GOT)
	.word	.LC28-(.LPIC85+4)
	.word	.LC29-(.LPIC87+4)
	.word	.LC30-(.LPIC88+4)
	.word	mono_image_open_from_data(GOT)
	.word	.LC31-(.LPIC90+4)
	.word	.LC32-(.LPIC91+4)
	.word	mono_domain_assembly_open(GOT)
	.word	.LC33-(.LPIC93+4)
	.word	.LC34-(.LPIC94+4)
	.word	mono_get_root_domain(GOT)
	.word	.LC35-(.LPIC96+4)
	.word	.LC36-(.LPIC98+4)
	.word	.LC37-(.LPIC99+4)
	.word	mono_thread_attach(GOT)
	.word	.LC38-(.LPIC101+4)
	.word	.LC39-(.LPIC102+4)
	.word	mono_assembly_load_from_full(GOT)
	.word	.LC40-(.LPIC104+4)
	.word	.LC41-(.LPIC105+4)
	.word	mono_assembly_get_image(GOT)
	.word	.LC42-(.LPIC107+4)
	.word	.LC43-(.LPIC108+4)
	.word	mono_class_from_name(GOT)
	.word	.LC44-(.LPIC110+4)
	.word	.LC45-(.LPIC111+4)
	.word	mono_class_get_method_from_name(GOT)
	.word	.LC46-(.LPIC113+4)
	.word	.LC47-(.LPIC114+4)
	.word	mono_runtime_invoke(GOT)
	.word	.LC48-(.LPIC116+4)
	.word	.LC49-(.LPIC118+4)
	.word	.LC50-(.LPIC120+4)
	.word	.LC51-(.LPIC122+4)
	.word	.LC52-(.LPIC124+4)
	.word	.LC53-(.LPIC126+4)
	.word	.LC54-(.LPIC128+4)
	.word	.LC55-(.LPIC130+4)
	.word	.LC56-(.LPIC132+4)
	.word	.LC57-(.LPIC134+4)
	.word	1116
	.cfi_endproc
.LFE1580:
	.fnend
	.size	MonoLoadAndInvokeAssembly, .-MonoLoadAndInvokeAssembly
	.section	.text.FindBaseLibrary,"ax",%progbits
	.align	1
	.global	FindBaseLibrary
	.code	16
	.thumb_func
	.type	FindBaseLibrary, %function
FindBaseLibrary:
	.fnstart
.LFB1586:
	.loc 3 254 0
	.cfi_startproc
.LVL649:
	push	{r4, r5, r6, r7, lr}
	.save {r4, r5, r6, r7, lr}
	.cfi_def_cfa_offset 20
	.cfi_offset 4, -20
	.cfi_offset 5, -16
	.cfi_offset 6, -12
	.cfi_offset 7, -8
	.cfi_offset 14, -4
	mov	r4, r1
.LBB2442:
.LBB2443:
.LBB2444:
.LBB2445:
	.loc 4 67 0
	mov	r7, #0
	ldr	r5, .L336
.LBE2445:
.LBE2444:
.LBE2443:
.LBE2442:
	.loc 3 254 0
	.pad #44
	sub	sp, sp, #44
	.cfi_def_cfa_offset 64
.LBB2457:
	.loc 3 255 0
	ldr	r2, .L336+4
.LPIC138:
	add	r5, pc
.LBE2457:
	.loc 3 254 0
	ldr	r5, [r5]
	str	r0, [sp, #12]
.LBB2458:
.LBB2452:
.LBB2450:
.LBB2448:
	.loc 4 67 0
	add	r6, sp, #24
.LBE2448:
.LBE2450:
.LBE2452:
.LBE2458:
	.loc 3 254 0
	ldr	r3, [r5]
.LBB2459:
	.loc 3 255 0
	str	r1, [sp]
	ldr	r1, .L336+8
.LVL650:
.LPIC137:
	add	r2, pc
.LBE2459:
	.loc 3 254 0
	str	r3, [sp, #36]
.LBB2460:
	.loc 3 255 0
.LPIC136:
	add	r1, pc
	ldr	r3, [sp, #12]
	mov	r0, #3
.LVL651:
	bl	__android_log_print
.LVL652:
	.loc 3 258 0
	mov	r0, r4
	mov	r1, r6
.LBB2453:
.LBB2451:
.LBB2449:
	.loc 4 67 0
	str	r7, [sp, #24]
	str	r7, [r6, #4]
.LVL653:
.LBB2446:
.LBB2447:
	.loc 1 481 0
	str	r7, [r6, #8]
.LVL654:
.LBE2447:
.LBE2446:
.LBE2449:
.LBE2451:
.LBE2453:
	.loc 3 258 0
	bl	_Z8ReadMapsiRSt6vectorISsSaISsEE
.LVL655:
.LBB2454:
.LBB2455:
.LBB2456:
	.loc 4 192 0
	ldr	r4, [sp, #24]
.LVL656:
	ldr	r3, [r6, #4]
	ldr	r2, .L336+12
	str	r5, [sp, #20]
	sub	r3, r3, r4
	asr	r3, r3, #3
	mov	r1, r2
	mul	r1, r3
	add	r4, r4, #20
	str	r1, [sp, #16]
.LVL657:
.L330:
.LBE2456:
.LBE2455:
	.loc 3 259 0 discriminator 1
	ldr	r3, [sp, #16]
	cmp	r7, r3
	beq	.L335
.LVL658:
	ldr	r5, [r4]
.LVL659:
	.loc 3 261 0 discriminator 2
	ldr	r1, [sp, #12]
	add	r4, r4, #24
.LVL660:
	mov	r0, r5
	bl	strstr
.LVL661:
	.loc 3 261 0 is_stmt 0
	cmp	r0, #0
	beq	.L331
.LVL662:
	.loc 3 262 0 is_stmt 1 discriminator 2
	mov	r0, r5
	mov	r1, #0
	mov	r2, #16
	bl	strtoul
.LVL663:
	mov	r4, r0
.LVL664:
	.loc 3 263 0
	b	.L332
.LVL665:
.L331:
	.loc 3 259 0 discriminator 2
	add	r7, r7, #1
.LVL666:
	b	.L330
.LVL667:
.L335:
.LBE2454:
	.loc 3 256 0
	mov	r4, #0
.LVL668:
.L332:
	.loc 3 266 0 discriminator 1
	mov	r0, r6
	bl	_ZNSt6vectorISsSaISsEED1Ev
.LVL669:
.LBE2460:
	.loc 3 267 0
	ldr	r3, [sp, #20]
	ldr	r2, [sp, #36]
	mov	r0, r4
	ldr	r3, [r3]
	cmp	r2, r3
	beq	.L334
	bl	__stack_chk_fail
.LVL670:
.L334:
	add	sp, sp, #44
	@ sp needed
.LVL671:
.LVL672:
	pop	{r4, r5, r6, r7, pc}
.L337:
	.align	2
.L336:
	.word	__stack_chk_guard(GOT_PREL)+(.-(.LPIC138+4))
	.word	.LC58-(.LPIC137+4)
	.word	.LC1-(.LPIC136+4)
	.word	-1431655765
	.cfi_endproc
.LFE1586:
	.fnend
	.size	FindBaseLibrary, .-FindBaseLibrary
	.section	.text.FindBaseLibraryFromAddress,"ax",%progbits
	.align	1
	.global	FindBaseLibraryFromAddress
	.code	16
	.thumb_func
	.type	FindBaseLibraryFromAddress, %function
FindBaseLibraryFromAddress:
	.fnstart
.LFB1587:
	.loc 3 270 0
	.cfi_startproc
.LVL673:
	push	{r4, r5, r6, r7, lr}
	.save {r4, r5, r6, r7, lr}
	.cfi_def_cfa_offset 20
	.cfi_offset 4, -20
	.cfi_offset 5, -16
	.cfi_offset 6, -12
	.cfi_offset 7, -8
	.cfi_offset 14, -4
.LBB2491:
.LBB2492:
.LBB2493:
.LBB2494:
	.loc 4 67 0
	mov	r4, #0
	ldr	r7, .L349
.LBE2494:
.LBE2493:
.LBE2492:
.LBE2491:
	.loc 3 270 0
	.pad #60
	sub	sp, sp, #60
	.cfi_def_cfa_offset 80
.LBB2523:
.LBB2501:
.LBB2499:
.LBB2497:
	.loc 4 67 0
	add	r5, sp, #16
.LPIC143:
	add	r7, pc
.LBE2497:
.LBE2499:
.LBE2501:
.LBE2523:
	.loc 3 270 0
	ldr	r7, [r7]
	mov	r6, r0
	ldr	r3, [r7]
.LBB2524:
	.loc 3 273 0
	mov	r0, r1
.LVL674:
	mov	r1, r5
.LVL675:
.LBE2524:
	.loc 3 270 0
	str	r3, [sp, #52]
.LVL676:
.LBB2525:
.LBB2502:
.LBB2500:
.LBB2498:
	.loc 4 67 0
	str	r4, [sp, #16]
	str	r4, [r5, #4]
.LVL677:
.LBB2495:
.LBB2496:
	.loc 1 481 0
	str	r4, [r5, #8]
.LVL678:
.LBE2496:
.LBE2495:
.LBE2498:
.LBE2500:
.LBE2502:
	.loc 3 273 0
	bl	_Z8ReadMapsiRSt6vectorISsSaISsEE
.LVL679:
	str	r7, [sp, #4]
.LVL680:
.L339:
.LBB2503:
.LBB2504:
.LBB2505:
	.loc 4 192 0
	ldr	r2, [r5]
	ldr	r3, [r5, #4]
	ldr	r1, .L349+4
	sub	r3, r3, r2
	asr	r0, r3, #3
	mov	r3, r0
	mul	r3, r1
.LBE2505:
.LBE2504:
	.loc 3 274 0 discriminator 1
	cmp	r4, r3
	bcs	.L347
.LVL681:
	mov	r3, #24
	mov	r1, r3
	mul	r1, r4
.LBB2506:
	.loc 3 275 0 discriminator 1
	add	r0, sp, #28
.LBB2507:
.LBB2508:
	.loc 4 202 0
	add	r1, r2, r1
.LBE2508:
.LBE2507:
	.loc 3 275 0 discriminator 1
	bl	_ZNSsC1ERKSs
.LVL682:
.LBB2509:
.LBB2510:
	.loc 7 706 0
	mov	r1, #32
	ldr	r3, [sp, #48]
.LVL683:
	ldr	r2, [sp, #44]
.LVL684:
.L340:
	.loc 7 704 0 discriminator 1
	cmp	r3, r2
	beq	.L348
	.loc 7 705 0
	ldrb	r0, [r3]
	cmp	r0, #45
	bne	.L341
	.loc 7 706 0
	strb	r1, [r3]
.L341:
	.loc 7 704 0
	add	r3, r3, #1
.LVL685:
	b	.L340
.L348:
.LVL686:
.LBE2510:
.LBE2509:
	.loc 3 279 0 discriminator 1
	ldr	r1, .L349+8
	add	r3, sp, #12
.LVL687:
	ldr	r0, [sp, #48]
.LPIC140:
	add	r1, pc
	add	r2, sp, #8
.LVL688:
	bl	sscanf
.LVL689:
	.loc 3 281 0
	ldr	r3, [sp, #8]
	add	r7, sp, #28
.LVL690:
	cmp	r6, r3
	bcc	.L343
	.loc 3 281 0 is_stmt 0 discriminator 1
	ldr	r3, [sp, #12]
	cmp	r6, r3
	bcs	.L343
.LVL691:
	.loc 3 282 0 is_stmt 1 discriminator 1
	ldr	r1, .L349+12
	ldr	r2, .L349+16
	ldr	r3, [sp, #48]
.LPIC141:
	add	r1, pc
.LPIC142:
	add	r2, pc
	mov	r0, #3
	bl	__android_log_print
.LVL692:
.LBB2511:
.LBB2512:
.LBB2513:
.LBB2514:
	.loc 8 156 0
	mov	r0, r7
.LBE2514:
.LBE2513:
.LBE2512:
.LBE2511:
	.loc 3 283 0
	ldr	r4, [sp, #8]
.LVL693:
.LBB2518:
.LBB2517:
.LBB2516:
.LBB2515:
	.loc 8 156 0
	bl	_ZNSt4priv12_String_baseIcSaIcEE19_M_deallocate_blockEv
.LVL694:
	b	.L344
.LVL695:
.L343:
.LBE2515:
.LBE2516:
.LBE2517:
.LBE2518:
.LBB2519:
.LBB2520:
.LBB2521:
.LBB2522:
	mov	r0, r7
	bl	_ZNSt4priv12_String_baseIcSaIcEE19_M_deallocate_blockEv
.LVL696:
.LBE2522:
.LBE2521:
.LBE2520:
.LBE2519:
.LBE2506:
	.loc 3 274 0 discriminator 2
	add	r4, r4, #1
.LVL697:
	b	.L339
.LVL698:
.L347:
.LBE2503:
	.loc 3 271 0
	mov	r4, #0
.LVL699:
.L344:
	.loc 3 287 0 discriminator 1
	mov	r0, r5
	bl	_ZNSt6vectorISsSaISsEED1Ev
.LVL700:
.LBE2525:
	.loc 3 288 0
	ldr	r3, [sp, #4]
	ldr	r2, [sp, #52]
	mov	r0, r4
	ldr	r3, [r3]
	cmp	r2, r3
	beq	.L346
	bl	__stack_chk_fail
.LVL701:
.L346:
	add	sp, sp, #60
	@ sp needed
.LVL702:
.LVL703:
	pop	{r4, r5, r6, r7, pc}
.L350:
	.align	2
.L349:
	.word	__stack_chk_guard(GOT_PREL)+(.-(.LPIC143+4))
	.word	-1431655765
	.word	.LC59-(.LPIC140+4)
	.word	.LC1-(.LPIC141+4)
	.word	.LC60-(.LPIC142+4)
	.cfi_endproc
.LFE1587:
	.fnend
	.size	FindBaseLibraryFromAddress, .-FindBaseLibraryFromAddress
	.section	.text.GetFuncOffset,"ax",%progbits
	.align	1
	.global	GetFuncOffset
	.code	16
	.thumb_func
	.type	GetFuncOffset, %function
GetFuncOffset:
	.fnstart
.LFB1585:
	.loc 3 244 0
	.cfi_startproc
.LVL704:
	push	{r0, r1, r4, r5, r6, lr}
	.save {r0, r1, r4, r5, r6, lr}
	.cfi_def_cfa_offset 24
	.cfi_offset 0, -24
	.cfi_offset 1, -20
	.cfi_offset 4, -16
	.cfi_offset 5, -12
	.cfi_offset 6, -8
	.cfi_offset 14, -4
	.loc 3 244 0
	mov	r6, r0
	mov	r4, r1
.LBB2526:
	.loc 3 245 0
	ldr	r5, .L352
	ldr	r2, .L352+4
	mov	r3, r6
.LPIC144:
	add	r5, pc
.LPIC145:
	add	r2, pc
	str	r1, [sp]
	mov	r0, #3
.LVL705:
	mov	r1, r5
.LVL706:
	bl	__android_log_print
.LVL707:
	.loc 3 246 0
	mov	r1, r4
	mov	r0, r6
	bl	GetFuncAddress
.LVL708:
	.loc 3 247 0
	mov	r1, #0
	.loc 3 246 0
	mov	r4, r0
.LVL709:
	.loc 3 247 0
	bl	FindBaseLibraryFromAddress
.LVL710:
	mov	r6, r0
.LVL711:
	.loc 3 248 0
	ldr	r2, .L352+8
	mov	r1, r5
	mov	r3, r6
	str	r4, [sp]
.LPIC147:
	add	r2, pc
	mov	r0, #3
.LVL712:
	bl	__android_log_print
.LVL713:
.LBE2526:
	.loc 3 250 0
	@ sp needed
.LBB2527:
	.loc 3 249 0
	sub	r0, r4, r6
.LVL714:
.LVL715:
.LBE2527:
	.loc 3 250 0
	pop	{r1, r2, r4, r5, r6, pc}
.L353:
	.align	2
.L352:
	.word	.LC1-(.LPIC144+4)
	.word	.LC61-(.LPIC145+4)
	.word	.LC62-(.LPIC147+4)
	.cfi_endproc
.LFE1585:
	.fnend
	.size	GetFuncOffset, .-GetFuncOffset
	.section	.text.GetBaseLibraryNameFromAddress,"ax",%progbits
	.align	1
	.global	GetBaseLibraryNameFromAddress
	.code	16
	.thumb_func
	.type	GetBaseLibraryNameFromAddress, %function
GetBaseLibraryNameFromAddress:
	.fnstart
.LFB1590:
	.loc 3 338 0
	.cfi_startproc
.LVL716:
	push	{r4, r5, r6, r7, lr}
	.save {r4, r5, r6, r7, lr}
	.cfi_def_cfa_offset 20
	.cfi_offset 4, -20
	.cfi_offset 5, -16
	.cfi_offset 6, -12
	.cfi_offset 7, -8
	.cfi_offset 14, -4
.LBB2558:
.LBB2559:
.LBB2560:
.LBB2561:
	.loc 4 67 0
	mov	r4, #0
	ldr	r7, .L364
.LBE2561:
.LBE2560:
.LBE2559:
.LBE2558:
	.loc 3 338 0
	.pad #60
	sub	sp, sp, #60
	.cfi_def_cfa_offset 80
.LBB2586:
.LBB2568:
.LBB2566:
.LBB2564:
	.loc 4 67 0
	add	r5, sp, #16
.LPIC154:
	add	r7, pc
.LBE2564:
.LBE2566:
.LBE2568:
.LBE2586:
	.loc 3 338 0
	ldr	r7, [r7]
	mov	r6, r0
	ldr	r3, [r7]
.LBB2587:
	.loc 3 342 0
	mov	r0, r1
.LVL717:
	mov	r1, r5
.LVL718:
.LBE2587:
	.loc 3 338 0
	str	r3, [sp, #52]
.LVL719:
.LBB2588:
.LBB2569:
.LBB2567:
.LBB2565:
	.loc 4 67 0
	str	r4, [sp, #16]
	str	r4, [r5, #4]
.LVL720:
.LBB2562:
.LBB2563:
	.loc 1 481 0
	str	r4, [r5, #8]
.LVL721:
.LBE2563:
.LBE2562:
.LBE2565:
.LBE2567:
.LBE2569:
	.loc 3 342 0
	bl	_Z8ReadMapsiRSt6vectorISsSaISsEE
.LVL722:
	str	r7, [sp, #4]
.LVL723:
.L355:
.LBB2570:
.LBB2571:
.LBB2572:
	.loc 4 192 0
	ldr	r2, [r5]
	ldr	r3, [r5, #4]
	ldr	r1, .L364+4
	sub	r3, r3, r2
	asr	r0, r3, #3
	mov	r3, r0
	mul	r3, r1
.LBE2572:
.LBE2571:
	.loc 3 343 0 discriminator 1
	cmp	r4, r3
	bcs	.L360
.LVL724:
	mov	r3, #24
	mov	r1, r3
	mul	r1, r4
.LBB2573:
	.loc 3 344 0 discriminator 1
	add	r0, sp, #28
.LBB2574:
.LBB2575:
	.loc 4 202 0
	add	r1, r2, r1
.LBE2575:
.LBE2574:
	.loc 3 344 0 discriminator 1
	bl	_ZNSsC1ERKSs
.LVL725:
.LBB2576:
.LBB2577:
	.loc 7 706 0
	mov	r1, #32
	ldr	r3, [sp, #48]
.LVL726:
	ldr	r2, [sp, #44]
.LVL727:
.L356:
	.loc 7 704 0 discriminator 1
	cmp	r3, r2
	beq	.L363
	.loc 7 705 0
	ldrb	r0, [r3]
	cmp	r0, #45
	bne	.L357
	.loc 7 706 0
	strb	r1, [r3]
.L357:
	.loc 7 704 0
	add	r3, r3, #1
.LVL728:
	b	.L356
.L363:
.LVL729:
.LBE2577:
.LBE2576:
	.loc 3 348 0 discriminator 1
	ldr	r1, .L364+8
	add	r3, sp, #12
.LVL730:
	ldr	r0, [sp, #48]
.LPIC149:
	add	r1, pc
	add	r2, sp, #8
.LVL731:
	bl	sscanf
.LVL732:
	.loc 3 350 0
	ldr	r3, [sp, #8]
	add	r7, sp, #28
.LVL733:
	cmp	r6, r3
	bcc	.L359
	.loc 3 350 0 is_stmt 0 discriminator 1
	ldr	r3, [sp, #12]
	cmp	r6, r3
	bcs	.L359
.LVL734:
	.loc 3 351 0 is_stmt 1 discriminator 1
	ldr	r1, .L364+12
	ldr	r2, .L364+16
	ldr	r3, [sp, #48]
.LPIC150:
	add	r1, pc
.LPIC151:
	add	r2, pc
	mov	r0, #3
	bl	__android_log_print
.LVL735:
	.loc 3 352 0 discriminator 1
	ldr	r0, .L364+20
	ldr	r1, [sp, #48]
.LPIC152:
	add	r0, pc
	bl	strcpy
.LVL736:
.LBB2578:
.LBB2579:
.LBB2580:
.LBB2581:
	.loc 8 156 0
	mov	r0, r7
	bl	_ZNSt4priv12_String_baseIcSaIcEE19_M_deallocate_blockEv
.LVL737:
	b	.L360
.LVL738:
.L359:
.LBE2581:
.LBE2580:
.LBE2579:
.LBE2578:
.LBB2582:
.LBB2583:
.LBB2584:
.LBB2585:
	mov	r0, r7
	bl	_ZNSt4priv12_String_baseIcSaIcEE19_M_deallocate_blockEv
.LVL739:
.LBE2585:
.LBE2584:
.LBE2583:
.LBE2582:
.LBE2573:
	.loc 3 343 0 discriminator 2
	add	r4, r4, #1
.LVL740:
	b	.L355
.LVL741:
.L360:
.LBE2570:
	.loc 3 356 0 discriminator 1
	mov	r0, r5
	bl	_ZNSt6vectorISsSaISsEED1Ev
.LVL742:
.LBE2588:
	.loc 3 357 0
	ldr	r3, [sp, #4]
	ldr	r0, .L364+24
	ldr	r2, [sp, #52]
	ldr	r3, [r3]
.LPIC153:
	add	r0, pc
	cmp	r2, r3
	beq	.L362
	bl	__stack_chk_fail
.LVL743:
.L362:
	add	sp, sp, #60
	@ sp needed
.LVL744:
.LVL745:
.LVL746:
	pop	{r4, r5, r6, r7, pc}
.L365:
	.align	2
.L364:
	.word	__stack_chk_guard(GOT_PREL)+(.-(.LPIC154+4))
	.word	-1431655765
	.word	.LC59-(.LPIC149+4)
	.word	.LC1-(.LPIC150+4)
	.word	.LC60-(.LPIC151+4)
	.word	.LANCHOR0-(.LPIC152+4)
	.word	.LANCHOR0-(.LPIC153+4)
	.cfi_endproc
.LFE1590:
	.fnend
	.size	GetBaseLibraryNameFromAddress, .-GetBaseLibraryNameFromAddress
	.section	.text.FinddlopenAddress,"ax",%progbits
	.align	1
	.global	FinddlopenAddress
	.code	16
	.thumb_func
	.type	FinddlopenAddress, %function
FinddlopenAddress:
	.fnstart
.LFB1588:
	.loc 3 291 0
	.cfi_startproc
.LVL747:
	push	{r3, r4, r5, r6, r7, lr}
	.save {r3, r4, r5, r6, r7, lr}
	.cfi_def_cfa_offset 24
	.cfi_offset 3, -24
	.cfi_offset 4, -20
	.cfi_offset 5, -16
	.cfi_offset 6, -12
	.cfi_offset 7, -8
	.cfi_offset 14, -4
	ldr	r4, .L370
	.loc 3 291 0
	mov	r6, r0
.LPIC172:
	add	r4, pc
.LBB2589:
	.loc 3 294 0
	ldr	r4, [r4]
	mov	r1, #0
	mov	r0, r4
.LVL748:
	bl	FindBaseLibraryFromAddress
.LVL749:
	mov	r7, r0
.LVL750:
	.loc 3 295 0
	ldr	r5, .L370+4
	ldr	r2, .L370+8
	mov	r3, r7
.LPIC156:
	add	r5, pc
.LPIC157:
	add	r2, pc
	mov	r1, r5
	mov	r0, #3
.LVL751:
	bl	__android_log_print
.LVL752:
	.loc 3 296 0
	mov	r0, r4
	mov	r1, #0
	bl	GetBaseLibraryNameFromAddress
.LVL753:
	.loc 3 296 0 is_stmt 0 discriminator 1
	ldr	r2, .L370+12
	.loc 3 296 0
	mov	r3, r0
	.loc 3 296 0 discriminator 1
	mov	r1, r5
.LPIC159:
	add	r2, pc
	mov	r0, #3
	bl	__android_log_print
.LVL754:
	.loc 3 298 0 is_stmt 1
	ldr	r2, .L370+16
	.loc 3 297 0
	sub	r7, r4, r7
.LVL755:
	.loc 3 298 0
	mov	r3, r7
.LPIC161:
	add	r2, pc
	mov	r1, r5
	mov	r0, #3
	bl	__android_log_print
.LVL756:
	.loc 3 300 0
	ldr	r0, .L370+20
	mov	r1, r6
.LPIC162:
	add	r0, pc
	bl	FindBaseLibrary
.LVL757:
	mov	r4, r0
.LVL758:
	.loc 3 301 0
	ldr	r2, .L370+24
	mov	r0, #3
.LVL759:
	mov	r1, r5
.LPIC164:
	add	r2, pc
	mov	r3, r4
	bl	__android_log_print
.LVL760:
	.loc 3 302 0
	cmp	r4, #0
	bne	.L367
	.loc 3 304 0
	ldr	r0, .L370+28
	mov	r1, r6
.LPIC165:
	add	r0, pc
	bl	FindBaseLibrary
.LVL761:
	mov	r4, r0
.LVL762:
	.loc 3 305 0
	ldr	r2, .L370+32
	mov	r0, #3
.LVL763:
	mov	r1, r5
.LPIC167:
	add	r2, pc
	mov	r3, r4
	bl	__android_log_print
.LVL764:
	.loc 3 307 0
	cmp	r4, #0
	beq	.L368
.L367:
	.loc 3 309 0
	ldr	r1, .L370+36
	ldr	r2, .L370+40
	.loc 3 308 0
	add	r4, r4, r7
.LVL765:
	.loc 3 309 0
.LPIC168:
	add	r1, pc
.LPIC169:
	add	r2, pc
	mov	r3, r4
	mov	r0, #3
	bl	__android_log_print
.LVL766:
	b	.L369
.LVL767:
.L368:
	.loc 3 312 0
	ldr	r2, .L370+44
	mov	r0, #3
	mov	r1, r5
.LPIC171:
	add	r2, pc
	bl	__android_log_print
.LVL768:
.L369:
.LBE2589:
	.loc 3 315 0
	mov	r0, r4
	@ sp needed
.LVL769:
.LVL770:
.LVL771:
	pop	{r3, r4, r5, r6, r7, pc}
.L371:
	.align	2
.L370:
	.word	dlopen(GOT_PREL)+(.-(.LPIC172+4))
	.word	.LC1-(.LPIC156+4)
	.word	.LC63-(.LPIC157+4)
	.word	.LC64-(.LPIC159+4)
	.word	.LC65-(.LPIC161+4)
	.word	.LC66-(.LPIC162+4)
	.word	.LC67-(.LPIC164+4)
	.word	.LC68-(.LPIC165+4)
	.word	.LC69-(.LPIC167+4)
	.word	.LC1-(.LPIC168+4)
	.word	.LC70-(.LPIC169+4)
	.word	.LC71-(.LPIC171+4)
	.cfi_endproc
.LFE1588:
	.fnend
	.size	FinddlopenAddress, .-FinddlopenAddress
	.section	.text.FindwriteAddress,"ax",%progbits
	.align	1
	.global	FindwriteAddress
	.code	16
	.thumb_func
	.type	FindwriteAddress, %function
FindwriteAddress:
	.fnstart
.LFB1589:
	.loc 3 318 0
	.cfi_startproc
.LVL772:
	push	{r3, r4, r5, r6, r7, lr}
	.save {r3, r4, r5, r6, r7, lr}
	.cfi_def_cfa_offset 24
	.cfi_offset 3, -24
	.cfi_offset 4, -20
	.cfi_offset 5, -16
	.cfi_offset 6, -12
	.cfi_offset 7, -8
	.cfi_offset 14, -4
	ldr	r4, .L375
	.loc 3 318 0
	mov	r5, r0
.LPIC187:
	add	r4, pc
.LBB2590:
	.loc 3 320 0
	ldr	r4, [r4]
	mov	r1, #0
	mov	r0, r4
.LVL773:
	bl	FindBaseLibraryFromAddress
.LVL774:
	mov	r7, r0
.LVL775:
	.loc 3 321 0
	ldr	r6, .L375+4
	ldr	r2, .L375+8
	mov	r3, r7
.LPIC174:
	add	r6, pc
.LPIC175:
	add	r2, pc
	mov	r1, r6
	mov	r0, #3
.LVL776:
	bl	__android_log_print
.LVL777:
	.loc 3 322 0
	mov	r0, r4
	mov	r1, #0
	bl	GetBaseLibraryNameFromAddress
.LVL778:
	.loc 3 322 0 is_stmt 0 discriminator 1
	ldr	r2, .L375+12
	.loc 3 322 0
	mov	r3, r0
	.loc 3 322 0 discriminator 1
	mov	r1, r6
.LPIC177:
	add	r2, pc
	mov	r0, #3
	bl	__android_log_print
.LVL779:
	.loc 3 324 0 is_stmt 1
	ldr	r2, .L375+16
	.loc 3 323 0
	sub	r4, r4, r7
.LVL780:
	.loc 3 324 0
	mov	r3, r4
.LPIC179:
	add	r2, pc
	mov	r1, r6
	mov	r0, #3
	bl	__android_log_print
.LVL781:
	.loc 3 326 0
	ldr	r0, .L375+20
	mov	r1, r5
.LPIC180:
	add	r0, pc
	bl	FindBaseLibrary
.LVL782:
	mov	r5, r0
.LVL783:
	.loc 3 327 0
	ldr	r2, .L375+24
	mov	r0, #3
.LVL784:
	mov	r1, r6
.LPIC182:
	add	r2, pc
	mov	r3, r5
	bl	__android_log_print
.LVL785:
	.loc 3 328 0
	cmp	r5, #0
	beq	.L373
	.loc 3 330 0
	ldr	r2, .L375+28
	.loc 3 329 0
	add	r5, r4, r5
.LVL786:
	.loc 3 330 0
	mov	r1, r6
.LPIC184:
	add	r2, pc
	mov	r3, r5
	mov	r0, #3
	bl	__android_log_print
.LVL787:
	b	.L374
.LVL788:
.L373:
	.loc 3 332 0
	ldr	r2, .L375+32
	mov	r0, #3
	mov	r1, r6
.LPIC186:
	add	r2, pc
	bl	__android_log_print
.LVL789:
.L374:
.LBE2590:
	.loc 3 335 0
	mov	r0, r5
	@ sp needed
.LVL790:
.LVL791:
.LVL792:
	pop	{r3, r4, r5, r6, r7, pc}
.L376:
	.align	2
.L375:
	.word	write(GOT_PREL)+(.-(.LPIC187+4))
	.word	.LC1-(.LPIC174+4)
	.word	.LC72-(.LPIC175+4)
	.word	.LC73-(.LPIC177+4)
	.word	.LC74-(.LPIC179+4)
	.word	.LC75-(.LPIC180+4)
	.word	.LC67-(.LPIC182+4)
	.word	.LC76-(.LPIC184+4)
	.word	.LC77-(.LPIC186+4)
	.cfi_endproc
.LFE1589:
	.fnend
	.size	FindwriteAddress, .-FindwriteAddress
	.section	.text.GetBaseLibraryTextSize,"ax",%progbits
	.align	1
	.global	GetBaseLibraryTextSize
	.code	16
	.thumb_func
	.type	GetBaseLibraryTextSize, %function
GetBaseLibraryTextSize:
	.fnstart
.LFB1591:
	.loc 3 360 0
	.cfi_startproc
.LVL793:
	push	{r4, r5, r6, r7, lr}
	.save {r4, r5, r6, r7, lr}
	.cfi_def_cfa_offset 20
	.cfi_offset 4, -20
	.cfi_offset 5, -16
	.cfi_offset 6, -12
	.cfi_offset 7, -8
	.cfi_offset 14, -4
	mov	r7, r1
.LBB2625:
.LBB2626:
.LBB2627:
.LBB2628:
	.loc 4 67 0
	mov	r4, #0
	ldr	r6, .L395
.LBE2628:
.LBE2627:
.LBE2626:
.LBE2625:
	.loc 3 360 0
	.pad #68
	sub	sp, sp, #68
	.cfi_def_cfa_offset 88
.LBB2664:
	.loc 3 361 0
	ldr	r2, .L395+4
.LPIC195:
	add	r6, pc
.LBE2664:
	.loc 3 360 0
	ldr	r6, [r6]
	str	r0, [sp, #12]
.LBB2665:
.LBB2635:
.LBB2633:
.LBB2631:
	.loc 4 67 0
	add	r5, sp, #24
.LBE2631:
.LBE2633:
.LBE2635:
.LBE2665:
	.loc 3 360 0
	ldr	r3, [r6]
.LBB2666:
	.loc 3 361 0
	str	r1, [sp]
	ldr	r1, .L395+8
.LVL794:
.LBE2666:
	.loc 3 360 0
	str	r3, [sp, #60]
.LBB2667:
	.loc 3 361 0
.LPIC190:
	add	r2, pc
.LPIC189:
	add	r1, pc
	ldr	r3, [sp, #12]
	mov	r0, #3
.LVL795:
	bl	__android_log_print
.LVL796:
	.loc 3 364 0
	mov	r0, r7
	mov	r1, r5
.LBB2636:
.LBB2634:
.LBB2632:
	.loc 4 67 0
	str	r4, [sp, #24]
	str	r4, [r5, #4]
.LVL797:
.LBB2629:
.LBB2630:
	.loc 1 481 0
	str	r4, [r5, #8]
.LVL798:
	mov	r7, r6
.LVL799:
.LBE2630:
.LBE2629:
.LBE2632:
.LBE2634:
.LBE2636:
	.loc 3 364 0
	bl	_Z8ReadMapsiRSt6vectorISsSaISsEE
.LVL800:
.L378:
.LBB2637:
.LBB2638:
.LBB2639:
	.loc 4 192 0
	ldr	r1, [r5]
	ldr	r3, [r5, #4]
	ldr	r2, .L395+12
	sub	r3, r3, r1
	asr	r0, r3, #3
	mov	r3, r0
	mul	r3, r2
.LBE2639:
.LBE2638:
	.loc 3 365 0 discriminator 1
	cmp	r4, r3
	bcs	.L393
.LVL801:
	mov	r6, #24
	mov	r3, r6
	mul	r3, r4
.LBB2640:
	.loc 3 366 0 discriminator 1
	add	r0, sp, #36
.LBB2641:
.LBB2642:
	.loc 4 202 0
	add	r1, r1, r3
	mov	r6, r3
.LBE2642:
.LBE2641:
	.loc 3 366 0 discriminator 1
	bl	_ZNSsC1ERKSs
.LVL802:
.LBB2643:
.LBB2644:
	.loc 7 706 0
	mov	r1, #32
	ldr	r3, [sp, #56]
.LVL803:
	ldr	r2, [sp, #52]
.LVL804:
.L379:
	.loc 7 704 0 discriminator 1
	cmp	r3, r2
	beq	.L394
	.loc 7 705 0
	ldrb	r0, [r3]
	cmp	r0, #45
	bne	.L380
	.loc 7 706 0
	strb	r1, [r3]
.L380:
	.loc 7 704 0
	add	r3, r3, #1
.LVL805:
	b	.L379
.L394:
.LVL806:
	ldr	r3, [sp, #24]
.LVL807:
.LBE2644:
.LBE2643:
.LBB2645:
	.loc 3 368 0 discriminator 2
	ldr	r1, [sp, #12]
	add	r6, r3, r6
.LVL808:
	ldr	r6, [r6, #20]
.LVL809:
	mov	r0, r6
	bl	strstr
.LVL810:
	.loc 3 368 0 is_stmt 0
	cmp	r0, #0
	beq	.L382
.LVL811:
	.loc 3 368 0 discriminator 7
	ldr	r1, .L395+16
	mov	r0, r6
.LPIC191:
	add	r1, pc
	bl	strstr
.LVL812:
	.loc 3 368 0 discriminator 3
	cmp	r0, #0
	bne	.L383
.LVL813:
.L382:
.LBE2645:
.LBB2648:
.LBB2649:
.LBB2650:
.LBB2651:
	.loc 8 156 0 is_stmt 1
	add	r0, sp, #36
.LVL814:
	bl	_ZNSt4priv12_String_baseIcSaIcEE19_M_deallocate_blockEv
.LVL815:
.LBE2651:
.LBE2650:
.LBE2649:
.LBE2648:
.LBE2640:
	.loc 3 365 0 discriminator 2
	add	r4, r4, #1
.LVL816:
	b	.L378
.LVL817:
.L393:
.LBE2637:
	.loc 3 377 0
	mov	r4, #0
.LVL818:
.L384:
	.loc 3 377 0 is_stmt 0 discriminator 1
	mov	r0, r5
	bl	_ZNSt6vectorISsSaISsEED1Ev
.LVL819:
.LBE2667:
	.loc 3 378 0 is_stmt 1
	ldr	r2, [sp, #60]
	ldr	r3, [r7]
	mov	r0, r4
	cmp	r2, r3
	beq	.L388
	bl	__stack_chk_fail
.LVL820:
.L383:
.LBB2668:
.LBB2663:
.LBB2662:
.LBB2652:
.LBB2646:
	.loc 3 371 0 discriminator 1
	ldr	r1, .L395+20
	ldr	r0, [sp, #56]
	add	r2, sp, #16
.LPIC194:
	add	r1, pc
	add	r3, sp, #20
	bl	sscanf
.LVL821:
	.loc 3 371 0 is_stmt 0
	cmp	r0, #2
	bne	.L382
	.loc 3 372 0 is_stmt 1
	ldr	r2, [sp, #16]
	ldr	r3, [sp, #20]
	ldr	r1, .L395+24
	mov	r0, #3
	sub	r3, r3, r2
	ldr	r2, .L395+28
.LPIC192:
	add	r1, pc
.LPIC193:
	add	r2, pc
	bl	__android_log_print
.LVL822:
	.loc 3 373 0
	ldr	r3, [sp, #20]
	ldr	r2, [sp, #16]
.LBE2646:
.LBE2652:
.LBB2653:
.LBB2654:
.LBB2655:
.LBB2656:
	.loc 8 156 0
	add	r0, sp, #36
.LVL823:
.LBE2656:
.LBE2655:
.LBE2654:
.LBE2653:
.LBB2660:
.LBB2647:
	.loc 3 373 0
	sub	r4, r3, r2
.LVL824:
.LBE2647:
.LBE2660:
.LBB2661:
.LBB2659:
.LBB2658:
.LBB2657:
	.loc 8 156 0
	bl	_ZNSt4priv12_String_baseIcSaIcEE19_M_deallocate_blockEv
.LVL825:
	b	.L384
.LVL826:
.L388:
.LBE2657:
.LBE2658:
.LBE2659:
.LBE2661:
.LBE2662:
.LBE2663:
.LBE2668:
	.loc 3 378 0
	add	sp, sp, #68
	@ sp needed
.LVL827:
	pop	{r4, r5, r6, r7, pc}
.L396:
	.align	2
.L395:
	.word	__stack_chk_guard(GOT_PREL)+(.-(.LPIC195+4))
	.word	.LC78-(.LPIC190+4)
	.word	.LC1-(.LPIC189+4)
	.word	-1431655765
	.word	.LC79-(.LPIC191+4)
	.word	.LC59-(.LPIC194+4)
	.word	.LC1-(.LPIC192+4)
	.word	.LC80-(.LPIC193+4)
	.cfi_endproc
.LFE1591:
	.fnend
	.size	GetBaseLibraryTextSize, .-GetBaseLibraryTextSize
	.global	mono_runtime_invoke
	.global	mono_class_get_method_from_name
	.global	mono_class_from_name
	.global	mono_assembly_get_image
	.global	mono_assembly_load_from_full
	.global	mono_thread_attach
	.global	mono_get_root_domain
	.global	mono_domain_assembly_open
	.global	mono_image_open_from_data
	.global	mono_domain_get
	.section	.rodata.str1.1,"aMS",%progbits,1
.LC0:
	.ascii	"rb\000"
.LC1:
	.ascii	"utils\000"
.LC2:
	.ascii	"ReadFile %s size=%ld\000"
.LC3:
	.ascii	"vector\000"
.LC4:
	.ascii	"GetFuncAddress: [%s] [%s]\000"
.LC5:
	.ascii	"GetFuncAddress: func [%s] at %08X\000"
.LC6:
	.ascii	"GetFuncAddress: func [%s] not found\000"
.LC7:
	.ascii	"GetFuncAddress: lib [%s] not found\000"
.LC8:
	.ascii	"/system/bin/ps | grep %s\000"
.LC9:
	.ascii	"r\000"
.LC10:
	.ascii	"FindProcessByName SKIP %s\000"
.LC11:
	.ascii	"FindProcessByName %s\000"
.LC12:
	.ascii	"%s%d\000"
.LC13:
	.ascii	"dlopen=%08X\000"
.LC14:
	.ascii	"dlsym=%08X\000"
.LC15:
	.ascii	"pid=%d\000"
.LC16:
	.ascii	"gettid=%d\000"
.LC17:
	.ascii	"basic_string\000"
.LC18:
	.ascii	"\"\000"
.LC19:
	.ascii	"\\\"\000"
.LC20:
	.ascii	"/proc/%d/maps\000"
.LC21:
	.ascii	"rt\000"
.LC22:
	.ascii	"ReadMaps: cannot open %s\000"
.LC23:
	.ascii	"FindLibraryPath: found %s\000"
.LC24:
	.ascii	"libmono.so\000"
.LC25:
	.ascii	"MonoLoadAndInvokeAssembly: libmono.so not found\012"
	.ascii	"\000"
.LC26:
	.ascii	"MonoLoadAndInvokeAssembly: found libmono.so [%s]\012"
	.ascii	"\000"
.LC27:
	.ascii	"mono_domain_get\000"
.LC28:
	.ascii	"mono_domain_get %08X\000"
.LC29:
	.ascii	"domain %08X\000"
.LC30:
	.ascii	"mono_image_open_from_data\000"
.LC31:
	.ascii	"mono_image_open_from_data %08X\000"
.LC32:
	.ascii	"mono_domain_assembly_open\000"
.LC33:
	.ascii	"mono_domain_assembly_open %08X\000"
.LC34:
	.ascii	"mono_get_root_domain\000"
.LC35:
	.ascii	"mono_get_root_domain %08X\000"
.LC36:
	.ascii	"rootdomain %08X\000"
.LC37:
	.ascii	"mono_thread_attach\000"
.LC38:
	.ascii	"mono_thread_attach %08X\000"
.LC39:
	.ascii	"mono_assembly_load_from_full\000"
.LC40:
	.ascii	"mono_assembly_load_from_full %08X\000"
.LC41:
	.ascii	"mono_assembly_get_image\000"
.LC42:
	.ascii	"mono_assembly_get_image %08X\000"
.LC43:
	.ascii	"mono_class_from_name\000"
.LC44:
	.ascii	"mono_class_from_name %08X\000"
.LC45:
	.ascii	"mono_class_get_method_from_name\000"
.LC46:
	.ascii	"mono_class_get_method_from_name %08X\000"
.LC47:
	.ascii	"mono_runtime_invoke\000"
.LC48:
	.ascii	"mono_runtime_invoke %08X\000"
.LC49:
	.ascii	"buffer size=%d\000"
.LC50:
	.ascii	"%02X %02X %02X %02X %02X\000"
.LC51:
	.ascii	"raw_image %08X status=%08X\000"
.LC52:
	.ascii	"assembly %08X\000"
.LC53:
	.ascii	"image %08X\000"
.LC54:
	.ascii	"Namespace=%sd name=%s\000"
.LC55:
	.ascii	"monoclass %08X\000"
.LC56:
	.ascii	"method %08X\000"
.LC57:
	.ascii	"invoke done\000"
.LC58:
	.ascii	"FindBaseLibrary: %s %d\000"
.LC59:
	.ascii	"%X%X\000"
.LC60:
	.ascii	"%s\000"
.LC61:
	.ascii	"GetFuncOffset: lib [%s] [%s]\000"
.LC62:
	.ascii	"GetFuncOffset: base=%08X func=%08X\000"
.LC63:
	.ascii	"linkerBase = %08X\012\000"
.LC64:
	.ascii	"linkername %s\012\000"
.LC65:
	.ascii	"offset dlopen = %08X\012\000"
.LC66:
	.ascii	"/system/lib/arm/libdl.so\000"
.LC67:
	.ascii	"targetLinkerBase = %08X\012\000"
.LC68:
	.ascii	"/system/lib/arm/linker\000"
.LC69:
	.ascii	"targetLinkerBase(/system/lib/arm/linker) = %08X\012"
	.ascii	"\000"
.LC70:
	.ascii	"target dlopen = %08X\012\000"
.LC71:
	.ascii	"ERROR: target dlopen notfound\012\000"
.LC72:
	.ascii	"libcBase = %08X\012\000"
.LC73:
	.ascii	"libcBasename %s\012\000"
.LC74:
	.ascii	"offset write = %08X\012\000"
.LC75:
	.ascii	"/system/lib/arm/libc_orig.so\000"
.LC76:
	.ascii	"target write = %08X\012\000"
.LC77:
	.ascii	"ERROR: target write notfound\012\000"
.LC78:
	.ascii	"GetBaseLibraryTextSize: %s %d\000"
.LC79:
	.ascii	"xp\000"
.LC80:
	.ascii	"GetBaseLibraryTextSize = %08X\000"
	.bss
	.align	2
.LANCHOR0 = . + 0
	.type	_ZZ29GetBaseLibraryNameFromAddressE4name, %object
	.size	_ZZ29GetBaseLibraryNameFromAddressE4name, 1024
_ZZ29GetBaseLibraryNameFromAddressE4name:
	.space	1024
	.type	mono_runtime_invoke, %object
	.size	mono_runtime_invoke, 4
mono_runtime_invoke:
	.space	4
	.type	mono_class_get_method_from_name, %object
	.size	mono_class_get_method_from_name, 4
mono_class_get_method_from_name:
	.space	4
	.type	mono_class_from_name, %object
	.size	mono_class_from_name, 4
mono_class_from_name:
	.space	4
	.type	mono_assembly_get_image, %object
	.size	mono_assembly_get_image, 4
mono_assembly_get_image:
	.space	4
	.type	mono_assembly_load_from_full, %object
	.size	mono_assembly_load_from_full, 4
mono_assembly_load_from_full:
	.space	4
	.type	mono_thread_attach, %object
	.size	mono_thread_attach, 4
mono_thread_attach:
	.space	4
	.type	mono_get_root_domain, %object
	.size	mono_get_root_domain, 4
mono_get_root_domain:
	.space	4
	.type	mono_domain_assembly_open, %object
	.size	mono_domain_assembly_open, 4
mono_domain_assembly_open:
	.space	4
	.type	mono_image_open_from_data, %object
	.size	mono_image_open_from_data, 4
mono_image_open_from_data:
	.space	4
	.type	mono_domain_get, %object
	.size	mono_domain_get, 4
mono_domain_get:
	.space	4
	.text
.Letext0:
	.file 14 "D:/android-ndk-r12b/build//../sources/cxx-stl/stlport/stlport/stl/_cstddef.h"
	.file 15 "D:/android-ndk-r12b/build//../sources/cxx-stl/stlport/stlport/stl/_cstdlib.h"
	.file 16 "D:/android-ndk-r12b/build//../sources/cxx-stl/stlport/stlport/stl/_cmath.h"
	.file 17 "D:/android-ndk-r12b/build//../sources/cxx-stl/stlport/stlport/using/cstring"
	.file 18 "D:/android-ndk-r12b/build//../sources/cxx-stl/stlport/stlport/stl/type_manips.h"
	.file 19 "D:/android-ndk-r12b/build//../sources/cxx-stl/stlport/stlport/stl/_limits.h"
	.file 20 "D:/android-ndk-r12b/build//../sources/cxx-stl/stlport/stlport/stl/_ctraits_fns.h"
	.file 21 "D:/android-ndk-r12b/build//../sources/cxx-stl/stlport/stlport/stl/_move_construct_fwk.h"
	.file 22 "D:/android-ndk-r12b/build//../sources/cxx-stl/stlport/stlport/stl/type_traits.h"
	.file 23 "D:/android-ndk-r12b/build//../sources/cxx-stl/stlport/stlport/stl/_iterator_base.h"
	.file 24 "D:/android-ndk-r12b/build//../sources/cxx-stl/stlport/stlport/../../gabi++/include/cstddef"
	.file 25 "D:/android-ndk-r12b/build//../sources/cxx-stl/stlport/stlport/stl/_cstdio.h"
	.file 26 "D:/android-ndk-r12b/build//../sources/cxx-stl/stlport/stlport/stl/_cwchar.h"
	.file 27 "D:/android-ndk-r12b/build//../sources/cxx-stl/stlport/stlport/stl/_string_npos.h"
	.file 28 "D:/android-ndk-r12b/build//../sources/cxx-stl/stlport/stlport/stl/_threads.h"
	.file 29 "D:/android-ndk-r12b/build//../sources/cxx-stl/stlport/stlport/stl/_ctime.h"
	.file 30 "D:/android-ndk-r12b/build//../sources/cxx-stl/stlport/stlport/stl/_string_fwd.h"
	.file 31 "D:/android-ndk-r12b/build//../sources/cxx-stl/stlport/stlport/stl/_iterator.h"
	.file 32 "D:/android-ndk-r12b/build//../sources/cxx-stl/stlport/stlport/stl/_function_base.h"
	.file 33 "D:/android-ndk-r12b/build//../sources/cxx-stl/stlport/stlport/stl/_range_errors.h"
	.file 34 "D:/android-ndk-r12b/build//../sources/cxx-stl/stlport/stlport/stl/config/features.h"
	.file 35 "d:\\android-ndk-r12b\\toolchains\\arm-linux-androideabi-4.9\\prebuilt\\windows-x86_64\\lib\\gcc\\arm-linux-androideabi\\4.9.x\\include\\stddef.h"
	.file 36 "<built-in>"
	.file 37 "d:\\android-ndk-r12b\\platforms\\android-9\\arch-arm\\usr\\include\\asm\\posix_types.h"
	.file 38 "d:\\android-ndk-r12b\\platforms\\android-9\\arch-arm\\usr\\include\\sys\\types.h"
	.file 39 "d:\\android-ndk-r12b\\toolchains\\arm-linux-androideabi-4.9\\prebuilt\\windows-x86_64\\lib\\gcc\\arm-linux-androideabi\\4.9.x\\include\\stdarg.h"
	.file 40 "d:\\android-ndk-r12b\\platforms\\android-9\\arch-arm\\usr\\include\\stdio.h"
	.file 41 "d:\\android-ndk-r12b\\platforms\\android-9\\arch-arm\\usr\\include\\stdlib.h"
	.file 42 "d:\\android-ndk-r12b\\platforms\\android-9\\arch-arm\\usr\\include\\string.h"
	.file 43 "d:\\android-ndk-r12b\\platforms\\android-9\\arch-arm\\usr\\include\\time.h"
	.file 44 "d:\\android-ndk-r12b\\platforms\\android-9\\arch-arm\\usr\\include\\wchar.h"
	.file 45 "d:\\android-ndk-r12b\\platforms\\android-9\\arch-arm\\usr\\include\\pthread.h"
	.file 46 "d:\\android-ndk-r12b\\platforms\\android-9\\arch-arm\\usr\\include\\android\\log.h"
	.file 47 "D:/android-ndk-r12b/build//../sources/cxx-stl/stlport/stlport/../../gabi++/include/new"
	.file 48 "d:\\android-ndk-r12b\\platforms\\android-9\\arch-arm\\usr\\include\\malloc.h"
	.file 49 "d:\\android-ndk-r12b\\platforms\\android-9\\arch-arm\\usr\\include\\dlfcn.h"
	.file 50 "d:\\android-ndk-r12b\\platforms\\android-9\\arch-arm\\usr\\include\\unistd.h"
	.file 51 "D:/android-ndk-r12b/build//../sources/cxx-stl/stlport/stlport/stl/_threads.c"
	.section	.note.GNU-stack,"",%progbits
